                              1 ;--------------------------------------------------------
                              2 ; File Created by SDCC : FreeWare ANSI-C Compiler
                              3 ; Version 2.3.1 Mon Nov 25 14:16:02 2019
                              4 
                              5 ;--------------------------------------------------------
                              6 	.module lcc553410
                              7 	
                              8 ;--------------------------------------------------------
                              9 ; Public variables in this module
                             10 ;--------------------------------------------------------
                             11 	.globl _SceneAwaitInputPressed_b
                             12 	.globl _SceneCameraAtDest_b
                             13 	.globl _SceneIsEmoting_b
                             14 	.globl _SceneUpdate_b
                             15 	.globl _SceneInit_b9
                             16 	.globl _SceneInit_b8
                             17 	.globl _SceneInit_b7
                             18 	.globl _SceneInit_b6
                             19 	.globl _SceneInit_b5
                             20 	.globl _SceneInit_b4
                             21 	.globl _SceneInit_b3
                             22 	.globl _SceneInit_b2
                             23 	.globl _SceneInit_b1
                             24 	.globl _last_joy
                             25 	.globl _update_dir
                             26 	.globl _directions
                             27 	.globl _camera_moved
                             28 	.globl _scene_col_tiles
                             29 	.globl _emote_actor
                             30 	.globl _emote_timer
                             31 	.globl _emote_type
                             32 	.globl _scene_num_triggers
                             33 	.globl _scene_num_actors
                             34 	.globl _scene_input_ready
                             35 	.globl _scene_loaded
                             36 	.globl _check_triggers
                             37 	.globl _bank_ptr
                             38 	.globl _events_ptr
                             39 	.globl _col_bank
                             40 	.globl _collision_tiles_len
                             41 	.globl _scene_load_col_ptr
                             42 	.globl _tileset_index
                             43 	.globl _image_index
                             44 	.globl _scene_bank
                             45 	.globl _dir_none
                             46 	.globl _dir_right
                             47 	.globl _dir_left
                             48 	.globl _dir_down
                             49 	.globl _dir_up
                             50 	.globl _emote_offsets
                             51 	.globl _SceneHandleWait
                             52 	.globl _SceneHandleTransition
                             53 	.globl _SceneUpdateCamera_b
                             54 	.globl _SceneUpdateActors_b
                             55 	.globl _SceneUpdateActorMovement_b
                             56 	.globl _SceneUpdateTimer_b
                             57 	.globl _SceneHandleTriggers_b
                             58 	.globl _SceneUpdateCameraShake_b
                             59 	.globl _SceneUpdateEmoteBubble_b
                             60 	.globl _SceneRender
                             61 	.globl _SceneRenderCameraShake_b
                             62 	.globl _SceneRenderActors_b
                             63 	.globl _SceneRenderActor_b
                             64 	.globl _SceneRenderEmoteBubble_b
                             65 	.globl _ScenePlayerAt_b
                             66 	.globl _SceneNpcAt_b
                             67 	.globl _SceneTriggerAt_b
                             68 	.globl _SceneSetEmote_b
                             69 ;--------------------------------------------------------
                             70 ; special function registers
                             71 ;--------------------------------------------------------
                             72 ;--------------------------------------------------------
                             73 ; special function bits 
                             74 ;--------------------------------------------------------
                             75 ;--------------------------------------------------------
                             76 ; internal ram data
                             77 ;--------------------------------------------------------
                             78 	.area _DATA
   0000                      79 _scene_bank::
   0000                      80 	.ds 1
   0001                      81 _image_index::
   0001                      82 	.ds 2
   0003                      83 _tileset_index::
   0003                      84 	.ds 1
   0004                      85 _scene_load_col_ptr::
   0004                      86 	.ds 2
   0006                      87 _collision_tiles_len::
   0006                      88 	.ds 1
   0007                      89 _col_bank::
   0007                      90 	.ds 1
   0008                      91 _events_ptr::
   0008                      92 	.ds 3
   000B                      93 _bank_ptr::
   000B                      94 	.ds 3
   000E                      95 _check_triggers::
   000E                      96 	.ds 1
   000F                      97 _scene_loaded::
   000F                      98 	.ds 1
   0010                      99 _scene_input_ready::
   0010                     100 	.ds 1
   0011                     101 _scene_num_actors::
   0011                     102 	.ds 1
   0012                     103 _scene_num_triggers::
   0012                     104 	.ds 1
   0013                     105 _emote_type::
   0013                     106 	.ds 1
   0014                     107 _emote_timer::
   0014                     108 	.ds 1
   0015                     109 _emote_actor::
   0015                     110 	.ds 1
   0016                     111 _scene_col_tiles::
   0016                     112 	.ds 128
   0096                     113 _camera_moved::
   0096                     114 	.ds 1
   0097                     115 _directions::
   0097                     116 	.ds 10
   00A1                     117 _update_dir::
   00A1                     118 	.ds 2
   00A3                     119 _last_joy::
   00A3                     120 	.ds 1
                            121 ;--------------------------------------------------------
                            122 ; overlayable items in internal ram 
                            123 ;--------------------------------------------------------
                            124 	.area _OVERLAY
                            125 ;--------------------------------------------------------
                            126 ; indirectly addressable internal ram data
                            127 ;--------------------------------------------------------
                            128 	.area _ISEG
                            129 ;--------------------------------------------------------
                            130 ; bit data
                            131 ;--------------------------------------------------------
                            132 	.area _BSEG
                            133 ;--------------------------------------------------------
                            134 ; external ram data
                            135 ;--------------------------------------------------------
                            136 	.area _XSEG
                            137 ;--------------------------------------------------------
                            138 ; global & static initialisations
                            139 ;--------------------------------------------------------
                            140 	.area _GSINIT
                            141 	.area _GSFINAL
                            142 	.area _GSINIT
                            143 ;	src/Scene_b.c 19
                            144 ;	genAssign
                            145 ;	AOP_HL for _scene_bank
   0000 21 00 00            146 	ld	hl,#_scene_bank
   0003 36 03               147 	ld	(hl),#0x03
                            148 ;	src/Scene_b.c 39
                            149 ;	genAssign
                            150 ;	AOP_HL for _emote_type
   0005 21 13 00            151 	ld	hl,#_emote_type
   0008 36 01               152 	ld	(hl),#0x01
                            153 ;	src/Scene_b.c 40
                            154 ;	genAssign
                            155 ;	AOP_HL for _emote_timer
   000A 21 14 00            156 	ld	hl,#_emote_timer
   000D 36 00               157 	ld	(hl),#0x00
                            158 ;	src/Scene_b.c 41
                            159 ;	genAssign
                            160 ;	AOP_HL for _emote_actor
   000F 21 15 00            161 	ld	hl,#_emote_actor
   0012 36 01               162 	ld	(hl),#0x01
                            163 ;	src/Scene_b.c 43
                            164 ;	src/Scene_b.c 1187
                            165 ;	genArrayInit
                            166 ; _saveRegsForCall: sendSetSize: 0 deInUse: 0 bcInUse: 0 deSending: 0
   0014 21 16 00            167 	ld	hl,#_scene_col_tiles
   0017 CD 00 00            168 	call	__initrleblock
   001A 01                  169 	.db	1
   001B 00                  170 	.db	0x00
   001C 00                  171 	.db	0
                            172 ;	src/Scene_b.c 44
                            173 ;	genAssign
                            174 ;	AOP_HL for _camera_moved
   001D 21 96 00            175 	ld	hl,#_camera_moved
   0020 36 00               176 	ld	(hl),#0x00
                            177 ;	src/Scene_b.c 1187
                            178 ;	src/Scene_b.c 50
                            179 ;	genAssign (pointer)
   0022 11 97 00            180 	ld	de,#_directions
   0025 3E 64               181 	ld	a,#<_dir_up
   0027 12                  182 	ld	(de),a
   0028 13                  183 	inc	de
   0029 3E 00               184 	ld	a,#>_dir_up
   002B 12                  185 	ld	(de),a
                            186 ;	src/Scene_b.c 1187
                            187 ;	genPlus
                            188 ;	genPlusIncr
   002C 01 99 00            189 	ld	bc,#_directions + 2
                            190 ;	src/Scene_b.c 50
                            191 ;	genAssign (pointer)
   002F 59                  192 	ld	e,c
   0030 50                  193 	ld	d,b
   0031 3E 66               194 	ld	a,#<_dir_down
   0033 12                  195 	ld	(de),a
   0034 13                  196 	inc	de
   0035 3E 00               197 	ld	a,#>_dir_down
   0037 12                  198 	ld	(de),a
                            199 ;	src/Scene_b.c 1187
                            200 ;	genPlus
                            201 ;	genPlusIncr
   0038 01 9B 00            202 	ld	bc,#_directions + 4
                            203 ;	src/Scene_b.c 50
                            204 ;	genAssign (pointer)
   003B 59                  205 	ld	e,c
   003C 50                  206 	ld	d,b
   003D 3E 68               207 	ld	a,#<_dir_left
   003F 12                  208 	ld	(de),a
   0040 13                  209 	inc	de
   0041 3E 00               210 	ld	a,#>_dir_left
   0043 12                  211 	ld	(de),a
                            212 ;	src/Scene_b.c 1187
                            213 ;	genPlus
                            214 ;	genPlusIncr
   0044 01 9D 00            215 	ld	bc,#_directions + 6
                            216 ;	src/Scene_b.c 50
                            217 ;	genAssign (pointer)
   0047 59                  218 	ld	e,c
   0048 50                  219 	ld	d,b
   0049 3E 6A               220 	ld	a,#<_dir_right
   004B 12                  221 	ld	(de),a
   004C 13                  222 	inc	de
   004D 3E 00               223 	ld	a,#>_dir_right
   004F 12                  224 	ld	(de),a
                            225 ;	src/Scene_b.c 1187
                            226 ;	genPlus
                            227 ;	genPlusIncr
   0050 01 9F 00            228 	ld	bc,#_directions + 8
                            229 ;	src/Scene_b.c 50
                            230 ;	genAssign (pointer)
   0053 59                  231 	ld	e,c
   0054 50                  232 	ld	d,b
   0055 3E 6C               233 	ld	a,#<_dir_none
   0057 12                  234 	ld	(de),a
   0058 13                  235 	inc	de
   0059 3E 00               236 	ld	a,#>_dir_none
   005B 12                  237 	ld	(de),a
                            238 ;--------------------------------------------------------
                            239 ; Home
                            240 ;--------------------------------------------------------
                            241 	.area _HOME
                            242 	.area _CODE
                            243 ;--------------------------------------------------------
                            244 ; code
                            245 ;--------------------------------------------------------
                            246 	.area _CODE_3
                            247 ;	src/Scene_b.c 82
                            248 ;	genLabel
                            249 ;	genFunction
                            250 ;	---------------------------------
                            251 ; Function SceneInit_b1
                            252 ; ---------------------------------
   0000                     253 ___SceneInit_b1_start:
   0000                     254 _SceneInit_b1:
                            255 	
                            256 ;	src/Scene_b.c 84
                            257 ;	genCall
                            258 ; _saveRegsForCall: sendSetSize: 0 deInUse: 0 bcInUse: 0 deSending: 0
   0000 CD 00 00            259 	call	_display_off
                            260 ;	src/Scene_b.c 86
                            261 ;	genAssign
                            262 ;	AOP_HL for _scene_loaded
   0003 21 0F 00            263 	ld	hl,#_scene_loaded
   0006 36 00               264 	ld	(hl),#0x00
                            265 ;	src/Scene_b.c 87
                            266 ;	genAssign
                            267 ;	AOP_HL for _scene_input_ready
   0008 21 10 00            268 	ld	hl,#_scene_input_ready
   000B 36 00               269 	ld	(hl),#0x00
                            270 ;	src/Scene_b.c 89
                            271 ;	genCall
                            272 ; _saveRegsForCall: sendSetSize: 0 deInUse: 0 bcInUse: 0 deSending: 0
   000D CD 00 00            273 	call	_SpritesReset
                            274 ;	src/Scene_b.c 90
                            275 ;	genCall
                            276 ; _saveRegsForCall: sendSetSize: 0 deInUse: 0 bcInUse: 0 deSending: 0
   0010 CD 00 00            277 	call	_UIInit
                            278 ;	src/Scene_b.c 92
                            279 ;	genAssign
   0013 01 43 FF            280 	ld	bc,#0xFF43
                            281 ;	genAssign (pointer)
   0016 3E 00               282 	ld	a,#0x00
   0018 02                  283 	ld	(bc),a
                            284 ;	src/Scene_b.c 93
                            285 ;	genAssign
   0019 01 42 FF            286 	ld	bc,#0xFF42
                            287 ;	genAssign (pointer)
   001C 3E 00               288 	ld	a,#0x00
   001E 02                  289 	ld	(bc),a
                            290 ;	src/Scene_b.c 94
                            291 ;	genAssign
   001F 01 4B FF            292 	ld	bc,#0xFF4B
                            293 ;	genAssign (pointer)
   0022 3E A6               294 	ld	a,#0xA6
   0024 02                  295 	ld	(bc),a
                            296 ;	src/Scene_b.c 95
                            297 ;	genAssign
   0025 01 4A FF            298 	ld	bc,#0xFF4A
                            299 ;	genAssign (pointer)
   0028 3E 8F               300 	ld	a,#0x8F
   002A 02                  301 	ld	(bc),a
                            302 ;	genLabel
   002B                     303 00101$:
                            304 ;	genEndFunction
                            305 	
   002B C9                  306 	ret
   002C                     307 ___SceneInit_b1_end:
   002C                     308 _emote_offsets:
   002C 02                  309 	.db #0x02
   002D 01                  310 	.db #0x01
   002E 00                  311 	.db #0x00
   002F FF                  312 	.db #0xFF
   0030 FE                  313 	.db #0xFE
   0031 FD                  314 	.db #0xFD
   0032 FC                  315 	.db #0xFC
   0033 FB                  316 	.db #0xFB
   0034 FA                  317 	.db #0xFA
   0035 FB                  318 	.db #0xFB
   0036 FC                  319 	.db #0xFC
   0037 FD                  320 	.db #0xFD
   0038 FE                  321 	.db #0xFE
   0039 FF                  322 	.db #0xFF
   003A 00                  323 	.db #0x00
   003B 00                  324 	.db #0x00
   003C 00                  325 	.db #0x00
   003D 00                  326 	.db #0x00
   003E 00                  327 	.db #0x00
   003F 00                  328 	.db #0x00
   0040 00                  329 	.db #0x00
   0041 00                  330 	.db #0x00
   0042 00                  331 	.db #0x00
   0043 00                  332 	.db #0x00
   0044 00                  333 	.db #0x00
   0045 00                  334 	.db #0x00
   0046 00                  335 	.db #0x00
   0047 00                  336 	.db #0x00
   0048 00                  337 	.db #0x00
   0049 00                  338 	.db #0x00
   004A 00                  339 	.db #0x00
   004B 00                  340 	.db #0x00
   004C 00                  341 	.db #0x00
   004D 00                  342 	.db #0x00
   004E 00                  343 	.db #0x00
   004F 00                  344 	.db #0x00
   0050 00                  345 	.db #0x00
   0051 00                  346 	.db #0x00
   0052 00                  347 	.db #0x00
   0053 00                  348 	.db #0x00
   0054 00                  349 	.db #0x00
   0055 00                  350 	.db #0x00
   0056 00                  351 	.db #0x00
   0057 00                  352 	.db #0x00
   0058 00                  353 	.db #0x00
   0059 00                  354 	.db #0x00
   005A 00                  355 	.db #0x00
   005B 00                  356 	.db #0x00
   005C 00                  357 	.db #0x00
   005D 00                  358 	.db #0x00
   005E 00                  359 	.db #0x00
   005F 00                  360 	.db #0x00
   0060 00                  361 	.db #0x00
   0061 00                  362 	.db #0x00
   0062 00                  363 	.db #0x00
   0063 00                  364 	.db #0x00
   0064                     365 _dir_up:
   0064 00                  366 	.db #0x00
   0065 FF                  367 	.db #0xFF
   0066                     368 _dir_down:
   0066 00                  369 	.db #0x00
   0067 01                  370 	.db #0x01
   0068                     371 _dir_left:
   0068 FF                  372 	.db #0xFF
   0069 00                  373 	.db #0x00
   006A                     374 _dir_right:
   006A 01                  375 	.db #0x01
   006B 00                  376 	.db #0x00
   006C                     377 _dir_none:
   006C 00                  378 	.db #0x00
   006D 00                  379 	.db #0x00
                            380 ;	src/Scene_b.c 100
                            381 ;	genLabel
                            382 ;	genFunction
                            383 ;	---------------------------------
                            384 ; Function SceneInit_b2
                            385 ; ---------------------------------
   006E                     386 ___SceneInit_b2_start:
   006E                     387 _SceneInit_b2:
   006E E8 E9               388 	lda	sp,-23(sp)
                            389 ;	src/Scene_b.c 108
                            390 ;	genMult
                            391 ;	AOP_HL for _scene_index
   0070 21 00 00            392 	ld	hl,#_scene_index
   0073 5E                  393 	ld	e,(hl)
   0074 23                  394 	inc	hl
   0075 56                  395 	ld	d,(hl)
   0076 6B                  396 	ld	l,e
   0077 62                  397 	ld	h,d
   0078 29                  398 	add	hl,hl
   0079 19                  399 	add	hl,de
   007A 4D                  400 	ld	c,l
   007B 44                  401 	ld	b,h
                            402 ;	genPlus
                            403 ;	Can't optimise plus by inc, falling back to the normal way
   007C 21 00 00            404 	ld	hl,#_scene_bank_ptrs
   007F 09                  405 	add	hl,bc
   0080 4D                  406 	ld	c,l
   0081 44                  407 	ld	b,h
                            408 ;	genIpush
                            409 ; _saveRegsForCall: sendSetSize: 0 deInUse: 0 bcInUse: 0 deSending: 0
   0082 C5                  410 	push	bc
                            411 ;	genIpush
   0083 21 0B 00            412 	ld	hl,#_bank_ptr
   0086 E5                  413 	push	hl
                            414 ;	genIpush
   0087 3E 05               415 	ld	a,#0x05
   0089 F5                  416 	push	af
   008A 33                  417 	inc	sp
                            418 ;	genCall
   008B CD 00 00            419 	call	_ReadBankedBankPtr
   008E E8 05               420 	lda	sp,5(sp)
                            421 ;	src/Scene_b.c 109
                            422 ;	genPointerGet
                            423 ;	AOP_STK for _SceneInit_b2_sloc3_1_0
   0090 11 0B 00            424 	ld	de,#_bank_ptr
   0093 1A                  425 	ld	a,(de)
   0094 F8 04               426 	lda	hl,4(sp)
                            427 ;	genCast
                            428 ;	AOP_STK for _SceneInit_b2_sloc3_1_0
                            429 ;	AOP_STK for _SceneInit_b2_sloc0_1_0
   0096 77                  430 	ld      (hl),a
                            431 ; Removed redundent load
   0097 F8 09               432 	lda	hl,9(sp)
   0099 22                  433 	ld	(hl+),a
   009A 36 00               434 	ld	(hl),#0x00
                            435 ;	genLeftShift
                            436 ;	AOP_STK for _SceneInit_b2_sloc0_1_0
                            437 ;	AOP_STK for _SceneInit_b2_sloc1_1_0
   009C 2B                  438 	dec	hl
   009D 7E                  439 	ld	a,(hl)
   009E 2B                  440 	dec	hl
   009F 2B                  441 	dec	hl
   00A0 77                  442 	ld	(hl),a
   00A1 F8 0A               443 	lda	hl,10(sp)
   00A3 7E                  444 	ld	a,(hl)
   00A4 2B                  445 	dec	hl
   00A5 2B                  446 	dec	hl
   00A6 32                  447 	ld      (hl-),a
   00A7 CB 26               448 	sla	(hl)
   00A9 23                  449 	inc	hl
   00AA CB 16               450 	rl	(hl)
                            451 ;	genPlus
                            452 ;	AOP_STK for _SceneInit_b2_sloc1_1_0
                            453 ;	AOP_STK for _SceneInit_b2_sloc0_1_0
                            454 ;	Can't optimise plus by inc, falling back to the normal way
   00AC 11 00 00            455 	ld	de,#_bank_data_ptrs
   00AF 2B                  456 	dec	hl
   00B0 2A                  457 	ld	a,(hl+)
   00B1 66                  458 	ld	h,(hl)
   00B2 6F                  459 	ld	l,a
   00B3 19                  460 	add	hl,de
   00B4 7D                  461 	ld	a,l
   00B5 54                  462 	ld	d,h
   00B6 F8 09               463 	lda	hl,9(sp)
                            464 ;	genPointerGet
                            465 ;	AOP_STK for _SceneInit_b2_sloc0_1_0
                            466 ;	AOP_STK for _SceneInit_b2_sloc1_1_0
   00B8 22                  467 	ld	(hl+),a
   00B9 72                  468 	ld	(hl),d
   00BA 5F                  469 	ld	e,a
   00BB 1A                  470 	ld	a,(de)
   00BC F8 07               471 	lda	hl,7(sp)
   00BE 77                  472 	ld	(hl),a
   00BF 13                  473 	inc	de
   00C0 1A                  474 	ld	a,(de)
   00C1 23                  475 	inc	hl
                            476 ;	genCast
                            477 ;	AOP_STK for _SceneInit_b2_sloc1_1_0
                            478 ;	AOP_STK for _SceneInit_b2_sloc0_1_0
   00C2 32                  479 	ld      (hl-),a
   00C3 2A                  480 	ld	a,(hl+)
   00C4 23                  481 	inc	hl
   00C5 32                  482 	ld      (hl-),a
   00C6 2A                  483 	ld	a,(hl+)
   00C7 23                  484 	inc	hl
   00C8 77                  485 	ld	(hl),a
                            486 ;	genPlus
                            487 ;	AOP_STK for _SceneInit_b2_sloc1_1_0
                            488 ;	genPlusIncr
                            489 ;	Can't optimise plus by inc, falling back to the normal way
   00C9 11 0B 00            490 	ld	de,#_bank_ptr
   00CC 21 01 00            491 	ld	hl,#0x0001
   00CF 19                  492 	add	hl,de
   00D0 7D                  493 	ld	a,l
   00D1 54                  494 	ld	d,h
   00D2 F8 07               495 	lda	hl,7(sp)
                            496 ;	genPointerGet
                            497 ;	AOP_STK for _SceneInit_b2_sloc1_1_0
                            498 ;	AOP_STK for _SceneInit_b2_sloc2_1_0
   00D4 22                  499 	ld	(hl+),a
   00D5 72                  500 	ld	(hl),d
   00D6 5F                  501 	ld	e,a
   00D7 1A                  502 	ld	a,(de)
   00D8 F8 05               503 	lda	hl,5(sp)
   00DA 77                  504 	ld	(hl),a
   00DB 13                  505 	inc	de
   00DC 1A                  506 	ld	a,(de)
   00DD 23                  507 	inc	hl
   00DE 77                  508 	ld	(hl),a
                            509 ;	genPlus
                            510 ;	AOP_STK for _SceneInit_b2_sloc0_1_0
                            511 ;	AOP_STK for _SceneInit_b2_sloc2_1_0
                            512 ;	AOP_STK for _SceneInit_b2_scene_load_ptr_1_1
                            513 ;	Can't optimise plus by inc, falling back to the normal way
   00DF F8 09               514 	lda	hl,9(sp)
   00E1 5E                  515 	ld	e,(hl)
   00E2 23                  516 	inc	hl
   00E3 56                  517 	ld	d,(hl)
   00E4 F8 05               518 	lda	hl,5(sp)
   00E6 2A                  519 	ld	a,(hl+)
   00E7 66                  520 	ld	h,(hl)
   00E8 6F                  521 	ld	l,a
   00E9 19                  522 	add	hl,de
   00EA 7D                  523 	ld	a,l
   00EB 54                  524 	ld	d,h
   00EC F8 0B               525 	lda	hl,11(sp)
   00EE 22                  526 	ld	(hl+),a
   00EF 72                  527 	ld	(hl),d
                            528 ;	genAssign
                            529 ;	AOP_STK for _SceneInit_b2_scene_load_ptr_1_1
                            530 ;	(registers are the same)
                            531 ;	src/Scene_b.c 110
                            532 ;	genCast
                            533 ;	AOP_STK for _SceneInit_b2_scene_load_ptr_1_1
                            534 ;	AOP_STK for _SceneInit_b2_sloc2_1_0
   00F0 2B                  535 	dec	hl
   00F1 7E                  536 	ld	a,(hl)
   00F2 F8 05               537 	lda	hl,5(sp)
   00F4 77                  538 	ld	(hl),a
   00F5 F8 0C               539 	lda	hl,12(sp)
   00F7 7E                  540 	ld	a,(hl)
   00F8 F8 06               541 	lda	hl,6(sp)
                            542 ;	genIpush
                            543 ; _saveRegsForCall: sendSetSize: 0 deInUse: 0 bcInUse: 0 deSending: 0
                            544 ;	AOP_STK for _SceneInit_b2_sloc2_1_0
   00FA 32                  545 	ld      (hl-),a
   00FB 2A                  546 	ld	a,(hl+)
   00FC 66                  547 	ld	h,(hl)
   00FD 6F                  548 	ld	l,a
   00FE E5                  549 	push	hl
                            550 ;	genIpush
                            551 ;	AOP_STK for _SceneInit_b2_sloc3_1_0
   00FF F8 06               552 	lda	hl,6(sp)
   0101 7E                  553 	ld	a,(hl)
   0102 F5                  554 	push	af
   0103 33                  555 	inc	sp
                            556 ;	genCall
   0104 CD 00 00            557 	call	_ReadBankedUWORD
                            558 ;	AOP_HL for _image_index
   0107 21 02 00            559 	ld	hl,#_image_index + 1
   010A 72                  560 	ld	(hl),d
   010B 2B                  561 	dec	hl
   010C 73                  562 	ld	(hl),e
   010D E8 03               563 	lda	sp,3(sp)
                            564 ;	src/Scene_b.c 111
                            565 ;	genPlus
                            566 ;	AOP_STK for _SceneInit_b2_scene_load_ptr_1_1
                            567 ;	AOP_STK for _SceneInit_b2_sloc2_1_0
                            568 ;	genPlusIncr
                            569 ;	Can't optimise plus by inc, falling back to the normal way
   010F F8 0B               570 	lda	hl,11(sp)
   0111 5E                  571 	ld	e,(hl)
   0112 23                  572 	inc	hl
   0113 56                  573 	ld	d,(hl)
   0114 21 02 00            574 	ld	hl,#0x0002
   0117 19                  575 	add	hl,de
   0118 7D                  576 	ld	a,l
   0119 54                  577 	ld	d,h
   011A F8 05               578 	lda	hl,5(sp)
   011C 22                  579 	ld	(hl+),a
   011D 72                  580 	ld	(hl),d
                            581 ;	genCast
                            582 ;	AOP_STK for _SceneInit_b2_sloc2_1_0
   011E 2B                  583 	dec	hl
   011F 4E                  584 	ld	c,(hl)
   0120 23                  585 	inc	hl
   0121 46                  586 	ld	b,(hl)
                            587 ;	genPointerGet
                            588 ;	AOP_STK for _SceneInit_b2_sloc3_1_0
   0122 11 0B 00            589 	ld	de,#_bank_ptr
   0125 1A                  590 	ld	a,(de)
   0126 2B                  591 	dec	hl
   0127 2B                  592 	dec	hl
   0128 77                  593 	ld	(hl),a
                            594 ;	genIpush
                            595 ; _saveRegsForCall: sendSetSize: 0 deInUse: 0 bcInUse: 0 deSending: 0
   0129 C5                  596 	push	bc
                            597 ;	genIpush
                            598 ;	AOP_STK for _SceneInit_b2_sloc3_1_0
   012A 7E                  599 	ld	a,(hl)
   012B F5                  600 	push	af
   012C 33                  601 	inc	sp
                            602 ;	genCall
   012D CD 00 00            603 	call	_ReadBankedUBYTE
   0130 4B                  604 	ld	c,e
   0131 E8 03               605 	lda	sp,3(sp)
                            606 ;	genAssign
                            607 ;	AOP_STK for _SceneInit_b2_num_sprites_1_1
   0133 F8 11               608 	lda	hl,17(sp)
   0135 71                  609 	ld	(hl),c
                            610 ;	src/Scene_b.c 114
                            611 ;	genAssign
                            612 ;	AOP_STK for _SceneInit_b2_k_1_1
   0136 2B                  613 	dec	hl
   0137 36 18               614 	ld	(hl),#0x18
                            615 ;	src/Scene_b.c 115
                            616 ;	genPlus
                            617 ;	AOP_STK for _SceneInit_b2_scene_load_ptr_1_1
                            618 ;	genPlusIncr
                            619 ;	Can't optimise plus by inc, falling back to the normal way
   0139 F8 0B               620 	lda	hl,11(sp)
   013B 5E                  621 	ld	e,(hl)
   013C 23                  622 	inc	hl
   013D 56                  623 	ld	d,(hl)
   013E 21 03 00            624 	ld	hl,#0x0003
   0141 19                  625 	add	hl,de
   0142 7D                  626 	ld	a,l
   0143 54                  627 	ld	d,h
   0144 F8 0B               628 	lda	hl,11(sp)
   0146 22                  629 	ld	(hl+),a
   0147 72                  630 	ld	(hl),d
                            631 ;	src/Scene_b.c 116
                            632 ;	genAssign
                            633 ;	AOP_STK for _SceneInit_b2_i_1_1
   0148 F8 0F               634 	lda	hl,15(sp)
   014A 36 00               635 	ld	(hl),#0x00
                            636 ;	genLabel
   014C                     637 00101$:
                            638 ;	genCmpEq
                            639 ;	AOP_STK for _SceneInit_b2_i_1_1
                            640 ;	AOP_STK for _SceneInit_b2_num_sprites_1_1
                            641 ; genCmpEq: left 1, right 1, result 0
   014C F8 11               642 	lda	hl,17(sp)
   014E 7E                  643 	ld	a,(hl)
   014F 2B                  644 	dec	hl
   0150 2B                  645 	dec	hl
   0151 BE                  646 	cp	(hl)
   0152 20 03               647 	jr	nz,00135$
   0154 C3 63 02            648 	jp	00104$
   0157                     649 00135$:
                            650 ;	src/Scene_b.c 119
                            651 ;	genCast
                            652 ;	AOP_STK for _SceneInit_b2_i_1_1
                            653 ;	AOP_STK for _SceneInit_b2_sloc2_1_0
   0157 F8 0F               654 	lda	hl,15(sp)
   0159 7E                  655 	ld	a,(hl)
   015A F8 05               656 	lda	hl,5(sp)
   015C 22                  657 	ld	(hl+),a
   015D 36 00               658 	ld	(hl),#0x00
                            659 ;	genPlus
                            660 ;	AOP_STK for _SceneInit_b2_scene_load_ptr_1_1
                            661 ;	AOP_STK for _SceneInit_b2_sloc2_1_0
                            662 ;	Can't optimise plus by inc, falling back to the normal way
   015F F8 0B               663 	lda	hl,11(sp)
   0161 5E                  664 	ld	e,(hl)
   0162 23                  665 	inc	hl
   0163 56                  666 	ld	d,(hl)
   0164 F8 05               667 	lda	hl,5(sp)
   0166 2A                  668 	ld	a,(hl+)
   0167 66                  669 	ld	h,(hl)
   0168 6F                  670 	ld	l,a
   0169 19                  671 	add	hl,de
   016A 45                  672 	ld	b,l
   016B 4C                  673 	ld	c,h
                            674 ;	genCast
                            675 ;	genPointerGet
                            676 ;	AOP_STK for _SceneInit_b2_sloc3_1_0
   016C 11 0B 00            677 	ld	de,#_bank_ptr
   016F 1A                  678 	ld	a,(de)
   0170 F8 04               679 	lda	hl,4(sp)
   0172 77                  680 	ld	(hl),a
                            681 ;	genIpush
                            682 ; _saveRegsForCall: sendSetSize: 0 deInUse: 0 bcInUse: 0 deSending: 0
   0173 68                  683 	ld	l,b
   0174 61                  684 	ld	h,c
   0175 E5                  685 	push	hl
                            686 ;	genIpush
                            687 ;	AOP_STK for _SceneInit_b2_sloc3_1_0
   0176 F8 06               688 	lda	hl,6(sp)
   0178 7E                  689 	ld	a,(hl)
   0179 F5                  690 	push	af
   017A 33                  691 	inc	sp
                            692 ;	genCall
   017B CD 00 00            693 	call	_ReadBankedUBYTE
   017E 4B                  694 	ld	c,e
   017F E8 03               695 	lda	sp,3(sp)
                            696 ;	genCast
                            697 ; Removed redundent load
   0181 06 00               698 	ld	b,#0x00
                            699 ;	src/Scene_b.c 121
                            700 ;	genMult
   0183 59                  701 	ld	e,c
   0184 50                  702 	ld	d,b
   0185 6B                  703 	ld	l,e
   0186 62                  704 	ld	h,d
   0187 29                  705 	add	hl,hl
   0188 19                  706 	add	hl,de
   0189 4D                  707 	ld	c,l
   018A 44                  708 	ld	b,h
                            709 ;	genPlus
                            710 ;	Can't optimise plus by inc, falling back to the normal way
   018B 21 00 00            711 	ld	hl,#_sprite_bank_ptrs
   018E 09                  712 	add	hl,bc
   018F 4D                  713 	ld	c,l
   0190 44                  714 	ld	b,h
                            715 ;	genAddrOf
                            716 ;	AOP_STK for _SceneInit_b2_sloc2_1_0
   0191 F8 14               717 	lda	hl,20(sp)
   0193 7D                  718 	ld	a,l
   0194 54                  719 	ld	d,h
   0195 F8 05               720 	lda	hl,5(sp)
   0197 22                  721 	ld	(hl+),a
   0198 72                  722 	ld	(hl),d
                            723 ;	genIpush
                            724 ; _saveRegsForCall: sendSetSize: 0 deInUse: 0 bcInUse: 0 deSending: 0
   0199 C5                  725 	push	bc
                            726 ;	genIpush
                            727 ;	AOP_STK for _SceneInit_b2_sloc2_1_0
   019A 2B                  728 	dec	hl
   019B 2A                  729 	ld	a,(hl+)
   019C 66                  730 	ld	h,(hl)
   019D 6F                  731 	ld	l,a
   019E E5                  732 	push	hl
                            733 ;	genIpush
   019F 3E 05               734 	ld	a,#0x05
   01A1 F5                  735 	push	af
   01A2 33                  736 	inc	sp
                            737 ;	genCall
   01A3 CD 00 00            738 	call	_ReadBankedBankPtr
   01A6 E8 05               739 	lda	sp,5(sp)
                            740 ;	src/Scene_b.c 122
                            741 ;	genPointerGet
                            742 ;	AOP_STK for _SceneInit_b2_sloc2_1_0
                            743 ;	AOP_STK for _SceneInit_b2_sloc3_1_0
   01A8 F8 05               744 	lda	hl,5(sp)
   01AA 5E                  745 	ld	e,(hl)
   01AB 23                  746 	inc	hl
   01AC 56                  747 	ld	d,(hl)
   01AD 1A                  748 	ld	a,(de)
   01AE 2B                  749 	dec	hl
   01AF 2B                  750 	dec	hl
                            751 ;	genCast
                            752 ;	AOP_STK for _SceneInit_b2_sloc3_1_0
                            753 ;	AOP_STK for _SceneInit_b2_sloc1_1_0
   01B0 77                  754 	ld      (hl),a
                            755 ; Removed redundent load
   01B1 F8 07               756 	lda	hl,7(sp)
   01B3 22                  757 	ld	(hl+),a
   01B4 36 00               758 	ld	(hl),#0x00
                            759 ;	genLeftShift
                            760 ;	AOP_STK for _SceneInit_b2_sloc1_1_0
                            761 ;	AOP_STK for _SceneInit_b2_sloc0_1_0
   01B6 2B                  762 	dec	hl
   01B7 2A                  763 	ld	a,(hl+)
   01B8 23                  764 	inc	hl
   01B9 32                  765 	ld      (hl-),a
   01BA 2A                  766 	ld	a,(hl+)
   01BB 23                  767 	inc	hl
   01BC 32                  768 	ld      (hl-),a
   01BD CB 26               769 	sla	(hl)
   01BF 23                  770 	inc	hl
   01C0 CB 16               771 	rl	(hl)
                            772 ;	genPlus
                            773 ;	AOP_STK for _SceneInit_b2_sloc0_1_0
                            774 ;	AOP_STK for _SceneInit_b2_sloc1_1_0
                            775 ;	Can't optimise plus by inc, falling back to the normal way
   01C2 11 00 00            776 	ld	de,#_bank_data_ptrs
   01C5 2B                  777 	dec	hl
   01C6 2A                  778 	ld	a,(hl+)
   01C7 66                  779 	ld	h,(hl)
   01C8 6F                  780 	ld	l,a
   01C9 19                  781 	add	hl,de
   01CA 7D                  782 	ld	a,l
   01CB 54                  783 	ld	d,h
   01CC F8 07               784 	lda	hl,7(sp)
                            785 ;	genPointerGet
                            786 ;	AOP_STK for _SceneInit_b2_sloc1_1_0
                            787 ;	AOP_STK for _SceneInit_b2_sloc0_1_0
   01CE 22                  788 	ld	(hl+),a
   01CF 72                  789 	ld	(hl),d
   01D0 5F                  790 	ld	e,a
   01D1 1A                  791 	ld	a,(de)
   01D2 23                  792 	inc	hl
   01D3 77                  793 	ld	(hl),a
   01D4 13                  794 	inc	de
   01D5 1A                  795 	ld	a,(de)
   01D6 23                  796 	inc	hl
                            797 ;	genCast
                            798 ;	AOP_STK for _SceneInit_b2_sloc0_1_0
                            799 ;	AOP_STK for _SceneInit_b2_sloc1_1_0
   01D7 32                  800 	ld      (hl-),a
   01D8 7E                  801 	ld	a,(hl)
   01D9 2B                  802 	dec	hl
   01DA 2B                  803 	dec	hl
   01DB 77                  804 	ld	(hl),a
   01DC F8 0A               805 	lda	hl,10(sp)
   01DE 7E                  806 	ld	a,(hl)
   01DF 2B                  807 	dec	hl
   01E0 2B                  808 	dec	hl
   01E1 77                  809 	ld	(hl),a
                            810 ;	genPlus
                            811 ;	AOP_STK for _SceneInit_b2_sloc2_1_0
                            812 ;	AOP_STK for _SceneInit_b2_sloc0_1_0
                            813 ;	genPlusIncr
                            814 ;	Can't optimise plus by inc, falling back to the normal way
   01E2 F8 05               815 	lda	hl,5(sp)
   01E4 5E                  816 	ld	e,(hl)
   01E5 23                  817 	inc	hl
   01E6 56                  818 	ld	d,(hl)
   01E7 21 01 00            819 	ld	hl,#0x0001
   01EA 19                  820 	add	hl,de
   01EB 7D                  821 	ld	a,l
   01EC 54                  822 	ld	d,h
   01ED F8 09               823 	lda	hl,9(sp)
                            824 ;	genPointerGet
                            825 ;	AOP_STK for _SceneInit_b2_sloc0_1_0
                            826 ;	AOP_STK for _SceneInit_b2_sloc4_1_0
   01EF 22                  827 	ld	(hl+),a
   01F0 72                  828 	ld	(hl),d
   01F1 5F                  829 	ld	e,a
   01F2 1A                  830 	ld	a,(de)
   01F3 F8 02               831 	lda	hl,2(sp)
   01F5 77                  832 	ld	(hl),a
   01F6 13                  833 	inc	de
   01F7 1A                  834 	ld	a,(de)
   01F8 23                  835 	inc	hl
   01F9 77                  836 	ld	(hl),a
                            837 ;	genPlus
                            838 ;	AOP_STK for _SceneInit_b2_sloc1_1_0
                            839 ;	AOP_STK for _SceneInit_b2_sloc4_1_0
                            840 ;	AOP_STK for _SceneInit_b2_sprite_ptr_1_1
                            841 ;	Can't optimise plus by inc, falling back to the normal way
   01FA F8 07               842 	lda	hl,7(sp)
   01FC 5E                  843 	ld	e,(hl)
   01FD 23                  844 	inc	hl
   01FE 56                  845 	ld	d,(hl)
   01FF F8 02               846 	lda	hl,2(sp)
   0201 2A                  847 	ld	a,(hl+)
   0202 66                  848 	ld	h,(hl)
   0203 6F                  849 	ld	l,a
   0204 19                  850 	add	hl,de
   0205 7D                  851 	ld	a,l
   0206 54                  852 	ld	d,h
   0207 F8 12               853 	lda	hl,18(sp)
   0209 22                  854 	ld	(hl+),a
   020A 72                  855 	ld	(hl),d
                            856 ;	genAssign
                            857 ;	AOP_STK for _SceneInit_b2_sprite_ptr_1_1
                            858 ;	(registers are the same)
                            859 ;	src/Scene_b.c 123
                            860 ;	genCast
                            861 ;	AOP_STK for _SceneInit_b2_sprite_ptr_1_1
                            862 ;	AOP_STK for _SceneInit_b2_sloc4_1_0
   020B 2B                  863 	dec	hl
   020C 7E                  864 	ld	a,(hl)
   020D F8 02               865 	lda	hl,2(sp)
   020F 77                  866 	ld	(hl),a
   0210 F8 13               867 	lda	hl,19(sp)
   0212 7E                  868 	ld	a,(hl)
   0213 F8 03               869 	lda	hl,3(sp)
                            870 ;	genIpush
                            871 ; _saveRegsForCall: sendSetSize: 0 deInUse: 0 bcInUse: 0 deSending: 0
                            872 ;	AOP_STK for _SceneInit_b2_sloc4_1_0
   0215 32                  873 	ld      (hl-),a
   0216 2A                  874 	ld	a,(hl+)
   0217 66                  875 	ld	h,(hl)
   0218 6F                  876 	ld	l,a
   0219 E5                  877 	push	hl
                            878 ;	genIpush
                            879 ;	AOP_STK for _SceneInit_b2_sloc3_1_0
   021A F8 06               880 	lda	hl,6(sp)
   021C 7E                  881 	ld	a,(hl)
   021D F5                  882 	push	af
   021E 33                  883 	inc	sp
                            884 ;	genCall
   021F CD 00 00            885 	call	_ReadBankedUBYTE
   0222 4B                  886 	ld	c,e
   0223 E8 03               887 	lda	sp,3(sp)
                            888 ;	genLeftShift
                            889 ;	AOP_STK for _SceneInit_b2_sprite_len_1_1
   0225 79                  890 	ld	a,c
   0226 87                  891 	add	a,a
   0227 87                  892 	add	a,a
   0228 F8 0D               893 	lda	hl,13(sp)
   022A 77                  894 	ld	(hl),a
                            895 ;	src/Scene_b.c 125
                            896 ;	genPlus
                            897 ;	AOP_STK for _SceneInit_b2_sprite_ptr_1_1
                            898 ;	genPlusIncr
                            899 ;	Can't optimise plus by inc, falling back to the normal way
   022B F8 12               900 	lda	hl,18(sp)
   022D 5E                  901 	ld	e,(hl)
   022E 23                  902 	inc	hl
   022F 56                  903 	ld	d,(hl)
   0230 21 01 00            904 	ld	hl,#0x0001
   0233 19                  905 	add	hl,de
   0234 45                  906 	ld	b,l
   0235 4C                  907 	ld	c,h
                            908 ;	genCast
                            909 ;	genPointerGet
                            910 ;	AOP_STK for _SceneInit_b2_sloc2_1_0
                            911 ;	AOP_STK for _SceneInit_b2_sloc4_1_0
   0236 F8 05               912 	lda	hl,5(sp)
   0238 5E                  913 	ld	e,(hl)
   0239 23                  914 	inc	hl
   023A 56                  915 	ld	d,(hl)
   023B 1A                  916 	ld	a,(de)
   023C F8 02               917 	lda	hl,2(sp)
   023E 77                  918 	ld	(hl),a
                            919 ;	genIpush
                            920 ; _saveRegsForCall: sendSetSize: 0 deInUse: 0 bcInUse: 0 deSending: 0
   023F 68                  921 	ld	l,b
   0240 61                  922 	ld	h,c
   0241 E5                  923 	push	hl
                            924 ;	genIpush
                            925 ;	AOP_STK for _SceneInit_b2_sprite_len_1_1
   0242 F8 0F               926 	lda	hl,15(sp)
   0244 7E                  927 	ld	a,(hl)
   0245 F5                  928 	push	af
   0246 33                  929 	inc	sp
                            930 ;	genIpush
                            931 ;	AOP_STK for _SceneInit_b2_k_1_1
   0247 F8 13               932 	lda	hl,19(sp)
   0249 7E                  933 	ld	a,(hl)
   024A F5                  934 	push	af
   024B 33                  935 	inc	sp
                            936 ;	genIpush
                            937 ;	AOP_STK for _SceneInit_b2_sloc4_1_0
   024C F8 06               938 	lda	hl,6(sp)
   024E 7E                  939 	ld	a,(hl)
   024F F5                  940 	push	af
   0250 33                  941 	inc	sp
                            942 ;	genCall
   0251 CD 00 00            943 	call	_SetBankedSpriteData
   0254 E8 05               944 	lda	sp,5(sp)
                            945 ;	src/Scene_b.c 126
                            946 ;	genPlus
                            947 ;	AOP_STK for _SceneInit_b2_k_1_1
                            948 ;	AOP_STK for _SceneInit_b2_sprite_len_1_1
                            949 ;	Can't optimise plus by inc, falling back to the normal way
   0256 F8 10               950 	lda	hl,16(sp)
   0258 7E                  951 	ld	a,(hl)
   0259 F8 0D               952 	lda	hl,13(sp)
   025B 86                  953 	add	a,(hl)
   025C F8 10               954 	lda	hl,16(sp)
                            955 ;	src/Scene_b.c 116
                            956 ;	genPlus
                            957 ;	AOP_STK for _SceneInit_b2_i_1_1
                            958 ;	genPlusIncr
   025E 32                  959 	ld      (hl-),a
   025F 34                  960 	inc	(hl)
                            961 ;	genGoto
   0260 C3 4C 01            962 	jp	00101$
                            963 ;	genLabel
   0263                     964 00104$:
                            965 ;	src/Scene_b.c 128
                            966 ;	genCast
                            967 ;	AOP_STK for _SceneInit_b2_num_sprites_1_1
   0263 F8 11               968 	lda	hl,17(sp)
   0265 4E                  969 	ld	c,(hl)
   0266 06 00               970 	ld	b,#0x00
                            971 ;	genPlus
                            972 ;	AOP_STK for _SceneInit_b2_scene_load_ptr_1_1
                            973 ;	Can't optimise plus by inc, falling back to the normal way
   0268 F8 0B               974 	lda	hl,11(sp)
   026A 2A                  975 	ld	a,(hl+)
   026B 66                  976 	ld	h,(hl)
   026C 6F                  977 	ld	l,a
   026D 09                  978 	add	hl,bc
   026E 7D                  979 	ld	a,l
   026F 54                  980 	ld	d,h
   0270 F8 0B               981 	lda	hl,11(sp)
   0272 22                  982 	ld	(hl+),a
   0273 72                  983 	ld	(hl),d
                            984 ;	src/Scene_b.c 131
                            985 ;	genCast
                            986 ;	AOP_STK for _SceneInit_b2_scene_load_ptr_1_1
   0274 2B                  987 	dec	hl
   0275 4E                  988 	ld	c,(hl)
   0276 23                  989 	inc	hl
   0277 46                  990 	ld	b,(hl)
                            991 ;	genPointerGet
                            992 ;	AOP_STK for _SceneInit_b2_sloc4_1_0
   0278 11 0B 00            993 	ld	de,#_bank_ptr
   027B 1A                  994 	ld	a,(de)
   027C F8 02               995 	lda	hl,2(sp)
   027E 77                  996 	ld	(hl),a
                            997 ;	genIpush
                            998 ; _saveRegsForCall: sendSetSize: 0 deInUse: 0 bcInUse: 0 deSending: 0
   027F C5                  999 	push	bc
                           1000 ;	genIpush
                           1001 ;	AOP_STK for _SceneInit_b2_sloc4_1_0
   0280 7E                 1002 	ld	a,(hl)
   0281 F5                 1003 	push	af
   0282 33                 1004 	inc	sp
                           1005 ;	genCall
   0283 CD 00 00           1006 	call	_ReadBankedUBYTE
   0286 4B                 1007 	ld	c,e
   0287 E8 03              1008 	lda	sp,3(sp)
                           1009 ;	genPlus
                           1010 ;	AOP_HL for _scene_num_actors
                           1011 ;	genPlusIncr
                           1012 ;	Can't optimise plus by inc, falling back to the normal way
   0289 79                 1013 	ld	a,c
   028A C6 01              1014 	add	a,#0x01
   028C 21 11 00           1015 	ld	hl,#_scene_num_actors
   028F 77                 1016 	ld	(hl),a
                           1017 ;	src/Scene_b.c 132
                           1018 ;	genPlus
                           1019 ;	AOP_STK for _SceneInit_b2_scene_load_ptr_1_1
                           1020 ;	genPlusIncr
   0290 F8 0B              1021 	lda	hl,11(sp)
   0292 34                 1022 	inc	(hl)
   0293 20 02              1023 	jr	nz,00138$
   0295 23                 1024 	inc	hl
   0296 34                 1025 	inc	(hl)
   0297                    1026 00138$:
                           1027 ;	src/Scene_b.c 134
                           1028 ;	genAssign
                           1029 ;	AOP_STK for _SceneInit_b2_i_1_1
   0297 F8 0F              1030 	lda	hl,15(sp)
   0299 36 01              1031 	ld	(hl),#0x01
                           1032 ;	genLabel
   029B                    1033 00105$:
                           1034 ;	genCmpEq
                           1035 ;	AOP_STK for _SceneInit_b2_i_1_1
                           1036 ;	AOP_HL for _scene_num_actors
                           1037 ; genCmpEq: left 1, right 1, result 0
   029B 21 11 00           1038 	ld	hl,#_scene_num_actors
   029E 7E                 1039 	ld	a,(hl)
   029F F8 0F              1040 	lda	hl,15(sp)
   02A1 BE                 1041 	cp	(hl)
   02A2 20 03              1042 	jr	nz,00139$
   02A4 C3 69 07           1043 	jp	00108$
   02A7                    1044 00139$:
                           1045 ;	src/Scene_b.c 137
                           1046 ;	genMult
                           1047 ;	AOP_STK for _SceneInit_b2_i_1_1
   02A7 F8 0F              1048 	lda	hl,15(sp)
   02A9 5E                 1049 	ld	e,(hl)
   02AA 16 00              1050 	ld	d,#0x00
   02AC 6B                 1051 	ld	l,e
   02AD 62                 1052 	ld	h,d
   02AE 29                 1053 	add	hl,hl
   02AF 29                 1054 	add	hl,hl
   02B0 19                 1055 	add	hl,de
   02B1 29                 1056 	add	hl,hl
   02B2 19                 1057 	add	hl,de
   02B3 29                 1058 	add	hl,hl
   02B4 4D                 1059 	ld	c,l
   02B5 44                 1060 	ld	b,h
                           1061 ;	genPlus
                           1062 ;	Can't optimise plus by inc, falling back to the normal way
   02B6 21 00 00           1063 	ld	hl,#_actors
   02B9 09                 1064 	add	hl,bc
   02BA 4D                 1065 	ld	c,l
   02BB 44                 1066 	ld	b,h
                           1067 ;	genCast
                           1068 ;	AOP_STK for _SceneInit_b2_scene_load_ptr_1_1
                           1069 ;	AOP_STK for _SceneInit_b2_sloc4_1_0
   02BC F8 0B              1070 	lda	hl,11(sp)
   02BE 7E                 1071 	ld	a,(hl)
   02BF F8 02              1072 	lda	hl,2(sp)
   02C1 77                 1073 	ld	(hl),a
   02C2 F8 0C              1074 	lda	hl,12(sp)
   02C4 7E                 1075 	ld	a,(hl)
   02C5 F8 03              1076 	lda	hl,3(sp)
   02C7 77                 1077 	ld	(hl),a
                           1078 ;	genPointerGet
                           1079 ;	AOP_STK for _SceneInit_b2_sloc3_1_0
   02C8 11 0B 00           1080 	ld	de,#_bank_ptr
   02CB 1A                 1081 	ld	a,(de)
   02CC 23                 1082 	inc	hl
   02CD 77                 1083 	ld	(hl),a
                           1084 ;	genIpush
                           1085 ; _saveRegsForCall: sendSetSize: 0 deInUse: 0 bcInUse: 1 deSending: 0
   02CE C5                 1086 	push	bc
                           1087 ;	AOP_STK for _SceneInit_b2_sloc4_1_0
   02CF 2B                 1088 	dec	hl
   02D0 2B                 1089 	dec	hl
   02D1 2A                 1090 	ld	a,(hl+)
   02D2 66                 1091 	ld	h,(hl)
   02D3 6F                 1092 	ld	l,a
   02D4 E5                 1093 	push	hl
                           1094 ;	genIpush
                           1095 ;	AOP_STK for _SceneInit_b2_sloc3_1_0
   02D5 F8 08              1096 	lda	hl,8(sp)
   02D7 7E                 1097 	ld	a,(hl)
   02D8 F5                 1098 	push	af
   02D9 33                 1099 	inc	sp
                           1100 ;	genCall
   02DA CD 00 00           1101 	call	_ReadBankedUBYTE
                           1102 ;	AOP_STK for _SceneInit_b2_sloc4_1_0
   02DD F8 07              1103 	lda	hl,7(sp)
   02DF 73                 1104 	ld	(hl),e
   02E0 E8 03              1105 	lda	sp,3(sp)
   02E2 C1                 1106 	pop	bc
                           1107 ;	genAssign (pointer)
                           1108 ;	AOP_STK for _SceneInit_b2_sloc4_1_0
   02E3 F8 02              1109 	lda	hl,2(sp)
   02E5 7E                 1110 	ld	a,(hl)
   02E6 02                 1111 	ld	(bc),a
                           1112 ;	src/Scene_b.c 139
                           1113 ;	genPlus
                           1114 ;	genPlusIncr
   02E7 21 09 00           1115 	ld	hl,#0x0009
   02EA 09                 1116 	add	hl,bc
                           1117 ;	genAssign (pointer)
   02EB 36 01              1118 	ld	(hl),#0x01
                           1119 ;	src/Scene_b.c 140
                           1120 ;	genPlus
                           1121 ;	genPlusIncr
   02ED 21 0C 00           1122 	ld	hl,#0x000C
   02F0 09                 1123 	add	hl,bc
                           1124 ;	genAssign (pointer)
   02F1 36 00              1125 	ld	(hl),#0x00
                           1126 ;	src/Scene_b.c 141
                           1127 ;	genPlus
                           1128 ;	AOP_STK for _SceneInit_b2_sloc4_1_0
                           1129 ;	genPlusIncr
                           1130 ;	Can't optimise plus by inc, falling back to the normal way
   02F3 21 0F 00           1131 	ld	hl,#0x000F
   02F6 09                 1132 	add	hl,bc
   02F7 7D                 1133 	ld	a,l
   02F8 54                 1134 	ld	d,h
   02F9 F8 02              1135 	lda	hl,2(sp)
   02FB 22                 1136 	ld	(hl+),a
   02FC 72                 1137 	ld	(hl),d
                           1138 ;	genAssign (pointer)
                           1139 ;	AOP_STK for _SceneInit_b2_sloc4_1_0
   02FD 2B                 1140 	dec	hl
   02FE 5E                 1141 	ld	e,(hl)
   02FF 23                 1142 	inc	hl
   0300 56                 1143 	ld	d,(hl)
   0301 3E 00              1144 	ld	a,#0x00
   0303 12                 1145 	ld	(de),a
                           1146 ;	src/Scene_b.c 142
                           1147 ;	genPlus
                           1148 ;	AOP_STK for _SceneInit_b2_scene_load_ptr_1_1
                           1149 ;	AOP_STK for _SceneInit_b2_sloc2_1_0
                           1150 ;	genPlusIncr
                           1151 ;	Can't optimise plus by inc, falling back to the normal way
   0304 F8 0B              1152 	lda	hl,11(sp)
   0306 5E                 1153 	ld	e,(hl)
   0307 23                 1154 	inc	hl
   0308 56                 1155 	ld	d,(hl)
   0309 21 01 00           1156 	ld	hl,#0x0001
   030C 19                 1157 	add	hl,de
   030D 7D                 1158 	ld	a,l
   030E 54                 1159 	ld	d,h
   030F F8 05              1160 	lda	hl,5(sp)
   0311 22                 1161 	ld	(hl+),a
   0312 72                 1162 	ld	(hl),d
                           1163 ;	genCast
                           1164 ;	AOP_STK for _SceneInit_b2_sloc2_1_0
                           1165 ;	AOP_STK for _SceneInit_b2_sloc1_1_0
   0313 2B                 1166 	dec	hl
   0314 2A                 1167 	ld	a,(hl+)
   0315 23                 1168 	inc	hl
   0316 32                 1169 	ld      (hl-),a
   0317 2A                 1170 	ld	a,(hl+)
   0318 23                 1171 	inc	hl
   0319 77                 1172 	ld	(hl),a
                           1173 ;	genPointerGet
                           1174 ;	AOP_STK for _SceneInit_b2_sloc3_1_0
   031A 11 0B 00           1175 	ld	de,#_bank_ptr
   031D 1A                 1176 	ld	a,(de)
   031E F8 04              1177 	lda	hl,4(sp)
   0320 77                 1178 	ld	(hl),a
                           1179 ;	genIpush
                           1180 ; _saveRegsForCall: sendSetSize: 0 deInUse: 0 bcInUse: 1 deSending: 0
   0321 C5                 1181 	push	bc
                           1182 ;	AOP_STK for _SceneInit_b2_sloc1_1_0
   0322 F8 09              1183 	lda	hl,9(sp)
   0324 2A                 1184 	ld	a,(hl+)
   0325 66                 1185 	ld	h,(hl)
   0326 6F                 1186 	ld	l,a
   0327 E5                 1187 	push	hl
                           1188 ;	genIpush
                           1189 ;	AOP_STK for _SceneInit_b2_sloc3_1_0
   0328 F8 08              1190 	lda	hl,8(sp)
   032A 7E                 1191 	ld	a,(hl)
   032B F5                 1192 	push	af
   032C 33                 1193 	inc	sp
                           1194 ;	genCall
   032D CD 00 00           1195 	call	_ReadBankedUBYTE
                           1196 ;	AOP_STK for _SceneInit_b2_sloc3_1_0
   0330 F8 09              1197 	lda	hl,9(sp)
   0332 73                 1198 	ld	(hl),e
   0333 E8 03              1199 	lda	sp,3(sp)
   0335 C1                 1200 	pop	bc
                           1201 ;	genAssign (pointer)
                           1202 ;	AOP_STK for _SceneInit_b2_sloc4_1_0
                           1203 ;	AOP_STK for _SceneInit_b2_sloc3_1_0
   0336 F8 02              1204 	lda	hl,2(sp)
   0338 5E                 1205 	ld	e,(hl)
   0339 23                 1206 	inc	hl
   033A 56                 1207 	ld	d,(hl)
   033B 23                 1208 	inc	hl
   033C 7E                 1209 	ld	a,(hl)
   033D 12                 1210 	ld	(de),a
                           1211 ;	src/Scene_b.c 143
                           1212 ;	genPlus
                           1213 ;	AOP_STK for _SceneInit_b2_sloc4_1_0
                           1214 ;	genPlusIncr
                           1215 ;	Can't optimise plus by inc, falling back to the normal way
   033E 21 07 00           1216 	ld	hl,#0x0007
   0341 09                 1217 	add	hl,bc
   0342 7D                 1218 	ld	a,l
   0343 54                 1219 	ld	d,h
   0344 F8 02              1220 	lda	hl,2(sp)
   0346 22                 1221 	ld	(hl+),a
   0347 72                 1222 	ld	(hl),d
                           1223 ;	genAssign (pointer)
                           1224 ;	AOP_STK for _SceneInit_b2_sloc4_1_0
   0348 2B                 1225 	dec	hl
   0349 5E                 1226 	ld	e,(hl)
   034A 23                 1227 	inc	hl
   034B 56                 1228 	ld	d,(hl)
   034C 3E 00              1229 	ld	a,#0x00
   034E 12                 1230 	ld	(de),a
                           1231 ;	src/Scene_b.c 144
                           1232 ;	genPlus
                           1233 ;	AOP_STK for _SceneInit_b2_scene_load_ptr_1_1
                           1234 ;	AOP_STK for _SceneInit_b2_sloc2_1_0
                           1235 ;	genPlusIncr
                           1236 ;	Can't optimise plus by inc, falling back to the normal way
   034F F8 0B              1237 	lda	hl,11(sp)
   0351 5E                 1238 	ld	e,(hl)
   0352 23                 1239 	inc	hl
   0353 56                 1240 	ld	d,(hl)
   0354 21 02 00           1241 	ld	hl,#0x0002
   0357 19                 1242 	add	hl,de
   0358 7D                 1243 	ld	a,l
   0359 54                 1244 	ld	d,h
   035A F8 05              1245 	lda	hl,5(sp)
   035C 22                 1246 	ld	(hl+),a
   035D 72                 1247 	ld	(hl),d
                           1248 ;	genCast
                           1249 ;	AOP_STK for _SceneInit_b2_sloc2_1_0
                           1250 ;	AOP_STK for _SceneInit_b2_sloc1_1_0
   035E 2B                 1251 	dec	hl
   035F 2A                 1252 	ld	a,(hl+)
   0360 23                 1253 	inc	hl
   0361 32                 1254 	ld      (hl-),a
   0362 2A                 1255 	ld	a,(hl+)
   0363 23                 1256 	inc	hl
   0364 77                 1257 	ld	(hl),a
                           1258 ;	genPointerGet
                           1259 ;	AOP_STK for _SceneInit_b2_sloc3_1_0
   0365 11 0B 00           1260 	ld	de,#_bank_ptr
   0368 1A                 1261 	ld	a,(de)
   0369 F8 04              1262 	lda	hl,4(sp)
   036B 77                 1263 	ld	(hl),a
                           1264 ;	genIpush
                           1265 ; _saveRegsForCall: sendSetSize: 0 deInUse: 0 bcInUse: 1 deSending: 0
   036C C5                 1266 	push	bc
                           1267 ;	AOP_STK for _SceneInit_b2_sloc1_1_0
   036D F8 09              1268 	lda	hl,9(sp)
   036F 2A                 1269 	ld	a,(hl+)
   0370 66                 1270 	ld	h,(hl)
   0371 6F                 1271 	ld	l,a
   0372 E5                 1272 	push	hl
                           1273 ;	genIpush
                           1274 ;	AOP_STK for _SceneInit_b2_sloc3_1_0
   0373 F8 08              1275 	lda	hl,8(sp)
   0375 7E                 1276 	ld	a,(hl)
   0376 F5                 1277 	push	af
   0377 33                 1278 	inc	sp
                           1279 ;	genCall
   0378 CD 00 00           1280 	call	_ReadBankedUBYTE
                           1281 ;	AOP_STK for _SceneInit_b2_sloc3_1_0
   037B F8 09              1282 	lda	hl,9(sp)
   037D 73                 1283 	ld	(hl),e
   037E E8 03              1284 	lda	sp,3(sp)
   0380 C1                 1285 	pop	bc
                           1286 ;	genAssign (pointer)
                           1287 ;	AOP_STK for _SceneInit_b2_sloc4_1_0
                           1288 ;	AOP_STK for _SceneInit_b2_sloc3_1_0
   0381 F8 02              1289 	lda	hl,2(sp)
   0383 5E                 1290 	ld	e,(hl)
   0384 23                 1291 	inc	hl
   0385 56                 1292 	ld	d,(hl)
   0386 23                 1293 	inc	hl
   0387 7E                 1294 	ld	a,(hl)
   0388 12                 1295 	ld	(de),a
                           1296 ;	src/Scene_b.c 145
                           1297 ;	genPlus
                           1298 ;	AOP_STK for _SceneInit_b2_sloc4_1_0
                           1299 ;	genPlusIncr
                           1300 ;	Can't optimise plus by inc, falling back to the normal way
   0389 21 08 00           1301 	ld	hl,#0x0008
   038C 09                 1302 	add	hl,bc
   038D 7D                 1303 	ld	a,l
   038E 54                 1304 	ld	d,h
   038F F8 02              1305 	lda	hl,2(sp)
   0391 22                 1306 	ld	(hl+),a
   0392 72                 1307 	ld	(hl),d
                           1308 ;	genAssign (pointer)
                           1309 ;	AOP_STK for _SceneInit_b2_sloc4_1_0
   0393 2B                 1310 	dec	hl
   0394 5E                 1311 	ld	e,(hl)
   0395 23                 1312 	inc	hl
   0396 56                 1313 	ld	d,(hl)
   0397 3E 00              1314 	ld	a,#0x00
   0399 12                 1315 	ld	(de),a
                           1316 ;	src/Scene_b.c 146
                           1317 ;	genPlus
                           1318 ;	genPlusIncr
   039A 21 0B 00           1319 	ld	hl,#0x000B
   039D 09                 1320 	add	hl,bc
                           1321 ;	genAssign (pointer)
   039E 36 00              1322 	ld	(hl),#0x00
                           1323 ;	src/Scene_b.c 147
                           1324 ;	genPlus
                           1325 ;	genPlusIncr
   03A0 21 0A 00           1326 	ld	hl,#0x000A
   03A3 09                 1327 	add	hl,bc
                           1328 ;	genAssign (pointer)
   03A4 36 00              1329 	ld	(hl),#0x00
                           1330 ;	src/Scene_b.c 148
                           1331 ;	genPlus
                           1332 ;	AOP_STK for _SceneInit_b2_scene_load_ptr_1_1
                           1333 ;	AOP_STK for _SceneInit_b2_sloc2_1_0
                           1334 ;	genPlusIncr
                           1335 ;	Can't optimise plus by inc, falling back to the normal way
   03A6 F8 0B              1336 	lda	hl,11(sp)
   03A8 5E                 1337 	ld	e,(hl)
   03A9 23                 1338 	inc	hl
   03AA 56                 1339 	ld	d,(hl)
   03AB 21 03 00           1340 	ld	hl,#0x0003
   03AE 19                 1341 	add	hl,de
   03AF 7D                 1342 	ld	a,l
   03B0 54                 1343 	ld	d,h
   03B1 F8 05              1344 	lda	hl,5(sp)
   03B3 22                 1345 	ld	(hl+),a
   03B4 72                 1346 	ld	(hl),d
                           1347 ;	genCast
                           1348 ;	AOP_STK for _SceneInit_b2_sloc2_1_0
                           1349 ;	AOP_STK for _SceneInit_b2_sloc1_1_0
   03B5 2B                 1350 	dec	hl
   03B6 2A                 1351 	ld	a,(hl+)
   03B7 23                 1352 	inc	hl
   03B8 32                 1353 	ld      (hl-),a
   03B9 2A                 1354 	ld	a,(hl+)
   03BA 23                 1355 	inc	hl
   03BB 77                 1356 	ld	(hl),a
                           1357 ;	genPointerGet
                           1358 ;	AOP_STK for _SceneInit_b2_sloc3_1_0
   03BC 11 0B 00           1359 	ld	de,#_bank_ptr
   03BF 1A                 1360 	ld	a,(de)
   03C0 F8 04              1361 	lda	hl,4(sp)
   03C2 77                 1362 	ld	(hl),a
                           1363 ;	genIpush
                           1364 ; _saveRegsForCall: sendSetSize: 0 deInUse: 0 bcInUse: 1 deSending: 0
   03C3 C5                 1365 	push	bc
                           1366 ;	AOP_STK for _SceneInit_b2_sloc1_1_0
   03C4 F8 09              1367 	lda	hl,9(sp)
   03C6 2A                 1368 	ld	a,(hl+)
   03C7 66                 1369 	ld	h,(hl)
   03C8 6F                 1370 	ld	l,a
   03C9 E5                 1371 	push	hl
                           1372 ;	genIpush
                           1373 ;	AOP_STK for _SceneInit_b2_sloc3_1_0
   03CA F8 08              1374 	lda	hl,8(sp)
   03CC 7E                 1375 	ld	a,(hl)
   03CD F5                 1376 	push	af
   03CE 33                 1377 	inc	sp
                           1378 ;	genCall
   03CF CD 00 00           1379 	call	_ReadBankedUBYTE
                           1380 ;	AOP_STK for _SceneInit_b2_sloc3_1_0
   03D2 F8 09              1381 	lda	hl,9(sp)
   03D4 73                 1382 	ld	(hl),e
   03D5 E8 03              1383 	lda	sp,3(sp)
   03D7 C1                 1384 	pop	bc
                           1385 ;	genAnd
                           1386 ;	AOP_STK for _SceneInit_b2_sloc3_1_0
   03D8 F8 04              1387 	lda	hl,4(sp)
   03DA 7E                 1388 	ld	a,(hl)
   03DB E6 01              1389 	and	a,#0x01
                           1390 ;	genAssign (pointer)
                           1391 ;	AOP_STK for _SceneInit_b2_sloc4_1_0
   03DD 2B                 1392 	dec	hl
   03DE 2B                 1393 	dec	hl
   03DF 5E                 1394 	ld	e,(hl)
   03E0 23                 1395 	inc	hl
   03E1 56                 1396 	ld	d,(hl)
   03E2 12                 1397 	ld	(de),a
                           1398 ;	src/Scene_b.c 149
                           1399 ;	genPlus
                           1400 ;	AOP_STK for _SceneInit_b2_sloc4_1_0
                           1401 ;	genPlusIncr
                           1402 ;	Can't optimise plus by inc, falling back to the normal way
   03E3 21 06 00           1403 	ld	hl,#0x0006
   03E6 09                 1404 	add	hl,bc
   03E7 7D                 1405 	ld	a,l
   03E8 54                 1406 	ld	d,h
   03E9 F8 02              1407 	lda	hl,2(sp)
   03EB 22                 1408 	ld	(hl+),a
   03EC 72                 1409 	ld	(hl),d
                           1410 ;	genAssign (pointer)
                           1411 ;	AOP_STK for _SceneInit_b2_sloc4_1_0
   03ED 2B                 1412 	dec	hl
   03EE 5E                 1413 	ld	e,(hl)
   03EF 23                 1414 	inc	hl
   03F0 56                 1415 	ld	d,(hl)
   03F1 3E 00              1416 	ld	a,#0x00
   03F3 12                 1417 	ld	(de),a
                           1418 ;	src/Scene_b.c 150
                           1419 ;	genPointerGet
                           1420 ;	AOP_STK for _SceneInit_b2_sloc3_1_0
   03F4 11 0B 00           1421 	ld	de,#_bank_ptr
   03F7 1A                 1422 	ld	a,(de)
   03F8 23                 1423 	inc	hl
   03F9 77                 1424 	ld	(hl),a
                           1425 ;	genIpush
                           1426 ; _saveRegsForCall: sendSetSize: 0 deInUse: 0 bcInUse: 1 deSending: 0
   03FA C5                 1427 	push	bc
                           1428 ;	AOP_STK for _SceneInit_b2_sloc1_1_0
   03FB F8 09              1429 	lda	hl,9(sp)
   03FD 2A                 1430 	ld	a,(hl+)
   03FE 66                 1431 	ld	h,(hl)
   03FF 6F                 1432 	ld	l,a
   0400 E5                 1433 	push	hl
                           1434 ;	genIpush
                           1435 ;	AOP_STK for _SceneInit_b2_sloc3_1_0
   0401 F8 08              1436 	lda	hl,8(sp)
   0403 7E                 1437 	ld	a,(hl)
   0404 F5                 1438 	push	af
   0405 33                 1439 	inc	sp
                           1440 ;	genCall
   0406 CD 00 00           1441 	call	_ReadBankedUBYTE
                           1442 ;	AOP_STK for _SceneInit_b2_sloc3_1_0
   0409 F8 09              1443 	lda	hl,9(sp)
   040B 73                 1444 	ld	(hl),e
   040C E8 03              1445 	lda	sp,3(sp)
   040E C1                 1446 	pop	bc
                           1447 ;	genRightShift
                           1448 ;	AOP_STK for _SceneInit_b2_sloc3_1_0
                           1449 ;	AOP_STK for _SceneInit_b2_sloc2_1_0
   040F F8 04              1450 	lda	hl,4(sp)
   0411 7E                 1451 	ld	a,(hl)
   0412 CB 3F              1452 	srl	a
   0414 23                 1453 	inc	hl
   0415 77                 1454 	ld	(hl),a
                           1455 ;	genAssign (pointer)
                           1456 ;	AOP_STK for _SceneInit_b2_sloc4_1_0
                           1457 ;	AOP_STK for _SceneInit_b2_sloc2_1_0
   0416 F8 02              1458 	lda	hl,2(sp)
   0418 5E                 1459 	ld	e,(hl)
   0419 23                 1460 	inc	hl
   041A 56                 1461 	ld	d,(hl)
   041B 23                 1462 	inc	hl
   041C 23                 1463 	inc	hl
   041D 7E                 1464 	ld	a,(hl)
   041E 12                 1465 	ld	(de),a
                           1466 ;	src/Scene_b.c 151
                           1467 ;	genPlus
                           1468 ;	AOP_STK for _SceneInit_b2_sloc4_1_0
                           1469 ;	genPlusIncr
                           1470 ;	Can't optimise plus by inc, falling back to the normal way
   041F 21 0D 00           1471 	ld	hl,#0x000D
   0422 09                 1472 	add	hl,bc
   0423 7D                 1473 	ld	a,l
   0424 54                 1474 	ld	d,h
   0425 F8 02              1475 	lda	hl,2(sp)
   0427 22                 1476 	ld	(hl+),a
   0428 72                 1477 	ld	(hl),d
                           1478 ;	genAssign (pointer)
                           1479 ;	AOP_STK for _SceneInit_b2_sloc4_1_0
   0429 2B                 1480 	dec	hl
   042A 5E                 1481 	ld	e,(hl)
   042B 23                 1482 	inc	hl
   042C 56                 1483 	ld	d,(hl)
   042D 3E 00              1484 	ld	a,#0x00
   042F 12                 1485 	ld	(de),a
                           1486 ;	src/Scene_b.c 152
                           1487 ;	genPlus
                           1488 ;	AOP_STK for _SceneInit_b2_sloc2_1_0
                           1489 ;	genPlusIncr
                           1490 ;	Can't optimise plus by inc, falling back to the normal way
   0430 21 0E 00           1491 	ld	hl,#0x000E
   0433 09                 1492 	add	hl,bc
   0434 7D                 1493 	ld	a,l
   0435 54                 1494 	ld	d,h
   0436 F8 05              1495 	lda	hl,5(sp)
   0438 22                 1496 	ld	(hl+),a
   0439 72                 1497 	ld	(hl),d
                           1498 ;	genAssign (pointer)
                           1499 ;	AOP_STK for _SceneInit_b2_sloc2_1_0
   043A 2B                 1500 	dec	hl
   043B 5E                 1501 	ld	e,(hl)
   043C 23                 1502 	inc	hl
   043D 56                 1503 	ld	d,(hl)
   043E 3E 00              1504 	ld	a,#0x00
   0440 12                 1505 	ld	(de),a
                           1506 ;	src/Scene_b.c 154
                           1507 ;	genPlus
                           1508 ;	AOP_STK for _SceneInit_b2_sloc1_1_0
                           1509 ;	genPlusIncr
                           1510 ;	Can't optimise plus by inc, falling back to the normal way
   0441 21 01 00           1511 	ld	hl,#0x0001
   0444 09                 1512 	add	hl,bc
   0445 7D                 1513 	ld	a,l
   0446 54                 1514 	ld	d,h
   0447 F8 07              1515 	lda	hl,7(sp)
   0449 22                 1516 	ld	(hl+),a
   044A 72                 1517 	ld	(hl),d
                           1518 ;	genPlus
                           1519 ;	AOP_STK for _SceneInit_b2_scene_load_ptr_1_1
                           1520 ;	AOP_STK for _SceneInit_b2_sloc0_1_0
                           1521 ;	genPlusIncr
                           1522 ;	Can't optimise plus by inc, falling back to the normal way
   044B F8 0B              1523 	lda	hl,11(sp)
   044D 5E                 1524 	ld	e,(hl)
   044E 23                 1525 	inc	hl
   044F 56                 1526 	ld	d,(hl)
   0450 21 04 00           1527 	ld	hl,#0x0004
   0453 19                 1528 	add	hl,de
   0454 7D                 1529 	ld	a,l
   0455 54                 1530 	ld	d,h
   0456 F8 09              1531 	lda	hl,9(sp)
   0458 22                 1532 	ld	(hl+),a
   0459 72                 1533 	ld	(hl),d
                           1534 ;	genCast
                           1535 ;	AOP_STK for _SceneInit_b2_sloc0_1_0
                           1536 ;	AOP_STK for _SceneInit_b2_sloc5_1_0
   045A 2B                 1537 	dec	hl
   045B 7E                 1538 	ld	a,(hl)
   045C F8 00              1539 	lda	hl,0(sp)
   045E 77                 1540 	ld	(hl),a
   045F F8 0A              1541 	lda	hl,10(sp)
   0461 7E                 1542 	ld	a,(hl)
   0462 F8 01              1543 	lda	hl,1(sp)
   0464 77                 1544 	ld	(hl),a
                           1545 ;	genPointerGet
                           1546 ;	AOP_STK for _SceneInit_b2_sloc3_1_0
   0465 11 0B 00           1547 	ld	de,#_bank_ptr
   0468 1A                 1548 	ld	a,(de)
   0469 F8 04              1549 	lda	hl,4(sp)
   046B 77                 1550 	ld	(hl),a
                           1551 ;	genIpush
                           1552 ; _saveRegsForCall: sendSetSize: 0 deInUse: 0 bcInUse: 1 deSending: 0
   046C C5                 1553 	push	bc
                           1554 ;	AOP_STK for _SceneInit_b2_sloc5_1_0
   046D F8 02              1555 	lda	hl,2(sp)
   046F 2A                 1556 	ld	a,(hl+)
   0470 66                 1557 	ld	h,(hl)
   0471 6F                 1558 	ld	l,a
   0472 E5                 1559 	push	hl
                           1560 ;	genIpush
                           1561 ;	AOP_STK for _SceneInit_b2_sloc3_1_0
   0473 F8 08              1562 	lda	hl,8(sp)
   0475 7E                 1563 	ld	a,(hl)
   0476 F5                 1564 	push	af
   0477 33                 1565 	inc	sp
                           1566 ;	genCall
   0478 CD 00 00           1567 	call	_ReadBankedUBYTE
                           1568 ;	AOP_STK for _SceneInit_b2_sloc5_1_0
   047B F8 05              1569 	lda	hl,5(sp)
   047D 73                 1570 	ld	(hl),e
   047E E8 03              1571 	lda	sp,3(sp)
   0480 C1                 1572 	pop	bc
                           1573 ;	genLeftShift
                           1574 ;	AOP_STK for _SceneInit_b2_sloc5_1_0
                           1575 ;	AOP_STK for _SceneInit_b2_sloc3_1_0
   0481 F8 00              1576 	lda	hl,0(sp)
   0483 7E                 1577 	ld	a,(hl)
   0484 CB 27              1578 	sla	a
   0486 CB 17              1579 	rl	a
   0488 CB 17              1580 	rl	a
   048A E6 F8              1581 	and	a,#0xF8
   048C F8 04              1582 	lda	hl,4(sp)
                           1583 ;	genPlus
                           1584 ;	AOP_STK for _SceneInit_b2_sloc3_1_0
                           1585 ;	genPlusIncr
                           1586 ;	Can't optimise plus by inc, falling back to the normal way
   048E 77                 1587 	ld      (hl),a
                           1588 ; Removed redundent load
   048F C6 08              1589 	add	a,#0x08
                           1590 ;	genAssign (pointer)
                           1591 ;	AOP_STK for _SceneInit_b2_sloc1_1_0
   0491 F8 07              1592 	lda	hl,7(sp)
   0493 5E                 1593 	ld	e,(hl)
   0494 23                 1594 	inc	hl
   0495 56                 1595 	ld	d,(hl)
   0496 12                 1596 	ld	(de),a
                           1597 ;	src/Scene_b.c 155
                           1598 ;	genPlus
                           1599 ;	AOP_STK for _SceneInit_b2_sloc5_1_0
                           1600 ;	genPlusIncr
                           1601 ;	Can't optimise plus by inc, falling back to the normal way
   0497 21 02 00           1602 	ld	hl,#0x0002
   049A 09                 1603 	add	hl,bc
   049B 7D                 1604 	ld	a,l
   049C 54                 1605 	ld	d,h
   049D F8 00              1606 	lda	hl,0(sp)
   049F 22                 1607 	ld	(hl+),a
   04A0 72                 1608 	ld	(hl),d
                           1609 ;	genPlus
                           1610 ;	AOP_STK for _SceneInit_b2_scene_load_ptr_1_1
                           1611 ;	AOP_STK for _SceneInit_b2_sloc1_1_0
                           1612 ;	genPlusIncr
                           1613 ;	Can't optimise plus by inc, falling back to the normal way
   04A1 F8 0B              1614 	lda	hl,11(sp)
   04A3 5E                 1615 	ld	e,(hl)
   04A4 23                 1616 	inc	hl
   04A5 56                 1617 	ld	d,(hl)
   04A6 21 05 00           1618 	ld	hl,#0x0005
   04A9 19                 1619 	add	hl,de
   04AA 7D                 1620 	ld	a,l
   04AB 54                 1621 	ld	d,h
   04AC F8 07              1622 	lda	hl,7(sp)
   04AE 22                 1623 	ld	(hl+),a
   04AF 72                 1624 	ld	(hl),d
                           1625 ;	genCast
                           1626 ;	AOP_STK for _SceneInit_b2_sloc1_1_0
                           1627 ;	AOP_STK for _SceneInit_b2_sloc0_1_0
   04B0 2B                 1628 	dec	hl
   04B1 2A                 1629 	ld	a,(hl+)
   04B2 23                 1630 	inc	hl
   04B3 32                 1631 	ld      (hl-),a
   04B4 2A                 1632 	ld	a,(hl+)
   04B5 23                 1633 	inc	hl
   04B6 77                 1634 	ld	(hl),a
                           1635 ;	genPointerGet
                           1636 ;	AOP_STK for _SceneInit_b2_sloc3_1_0
   04B7 11 0B 00           1637 	ld	de,#_bank_ptr
   04BA 1A                 1638 	ld	a,(de)
   04BB F8 04              1639 	lda	hl,4(sp)
   04BD 77                 1640 	ld	(hl),a
                           1641 ;	genIpush
                           1642 ; _saveRegsForCall: sendSetSize: 0 deInUse: 0 bcInUse: 1 deSending: 0
   04BE C5                 1643 	push	bc
                           1644 ;	AOP_STK for _SceneInit_b2_sloc0_1_0
   04BF F8 0B              1645 	lda	hl,11(sp)
   04C1 2A                 1646 	ld	a,(hl+)
   04C2 66                 1647 	ld	h,(hl)
   04C3 6F                 1648 	ld	l,a
   04C4 E5                 1649 	push	hl
                           1650 ;	genIpush
                           1651 ;	AOP_STK for _SceneInit_b2_sloc3_1_0
   04C5 F8 08              1652 	lda	hl,8(sp)
   04C7 7E                 1653 	ld	a,(hl)
   04C8 F5                 1654 	push	af
   04C9 33                 1655 	inc	sp
                           1656 ;	genCall
   04CA CD 00 00           1657 	call	_ReadBankedUBYTE
                           1658 ;	AOP_STK for _SceneInit_b2_sloc3_1_0
   04CD F8 09              1659 	lda	hl,9(sp)
   04CF 73                 1660 	ld	(hl),e
   04D0 E8 03              1661 	lda	sp,3(sp)
   04D2 C1                 1662 	pop	bc
                           1663 ;	genLeftShift
                           1664 ;	AOP_STK for _SceneInit_b2_sloc3_1_0
                           1665 ;	AOP_STK for _SceneInit_b2_sloc1_1_0
   04D3 F8 04              1666 	lda	hl,4(sp)
   04D5 7E                 1667 	ld	a,(hl)
   04D6 CB 27              1668 	sla	a
   04D8 CB 17              1669 	rl	a
   04DA CB 17              1670 	rl	a
   04DC E6 F8              1671 	and	a,#0xF8
   04DE F8 07              1672 	lda	hl,7(sp)
                           1673 ;	genPlus
                           1674 ;	AOP_STK for _SceneInit_b2_sloc1_1_0
                           1675 ;	genPlusIncr
                           1676 ;	Can't optimise plus by inc, falling back to the normal way
   04E0 77                 1677 	ld      (hl),a
                           1678 ; Removed redundent load
   04E1 C6 08              1679 	add	a,#0x08
                           1680 ;	genAssign (pointer)
                           1681 ;	AOP_STK for _SceneInit_b2_sloc5_1_0
   04E3 F8 00              1682 	lda	hl,0(sp)
   04E5 5E                 1683 	ld	e,(hl)
   04E6 23                 1684 	inc	hl
   04E7 56                 1685 	ld	d,(hl)
   04E8 12                 1686 	ld	(de),a
                           1687 ;	src/Scene_b.c 156
                           1688 ;	genPlus
                           1689 ;	AOP_STK for _SceneInit_b2_scene_load_ptr_1_1
                           1690 ;	AOP_STK for _SceneInit_b2_sloc5_1_0
                           1691 ;	genPlusIncr
                           1692 ;	Can't optimise plus by inc, falling back to the normal way
   04E9 F8 0B              1693 	lda	hl,11(sp)
   04EB 5E                 1694 	ld	e,(hl)
   04EC 23                 1695 	inc	hl
   04ED 56                 1696 	ld	d,(hl)
   04EE 21 06 00           1697 	ld	hl,#0x0006
   04F1 19                 1698 	add	hl,de
   04F2 7D                 1699 	ld	a,l
   04F3 54                 1700 	ld	d,h
   04F4 F8 00              1701 	lda	hl,0(sp)
   04F6 22                 1702 	ld	(hl+),a
   04F7 72                 1703 	ld	(hl),d
                           1704 ;	genCast
                           1705 ;	AOP_STK for _SceneInit_b2_sloc5_1_0
                           1706 ;	AOP_STK for _SceneInit_b2_sloc1_1_0
   04F8 2B                 1707 	dec	hl
   04F9 7E                 1708 	ld	a,(hl)
   04FA F8 07              1709 	lda	hl,7(sp)
   04FC 77                 1710 	ld	(hl),a
   04FD F8 01              1711 	lda	hl,1(sp)
   04FF 7E                 1712 	ld	a,(hl)
   0500 F8 08              1713 	lda	hl,8(sp)
   0502 77                 1714 	ld	(hl),a
                           1715 ;	genPointerGet
                           1716 ;	AOP_STK for _SceneInit_b2_sloc5_1_0
   0503 11 0B 00           1717 	ld	de,#_bank_ptr
   0506 1A                 1718 	ld	a,(de)
   0507 F8 00              1719 	lda	hl,0(sp)
   0509 77                 1720 	ld	(hl),a
                           1721 ;	genIpush
                           1722 ; _saveRegsForCall: sendSetSize: 0 deInUse: 0 bcInUse: 1 deSending: 0
   050A C5                 1723 	push	bc
                           1724 ;	AOP_STK for _SceneInit_b2_sloc1_1_0
   050B F8 09              1725 	lda	hl,9(sp)
   050D 2A                 1726 	ld	a,(hl+)
   050E 66                 1727 	ld	h,(hl)
   050F 6F                 1728 	ld	l,a
   0510 E5                 1729 	push	hl
                           1730 ;	genIpush
                           1731 ;	AOP_STK for _SceneInit_b2_sloc5_1_0
   0511 F8 04              1732 	lda	hl,4(sp)
   0513 7E                 1733 	ld	a,(hl)
   0514 F5                 1734 	push	af
   0515 33                 1735 	inc	sp
                           1736 ;	genCall
   0516 CD 00 00           1737 	call	_ReadBankedUBYTE
                           1738 ;	AOP_STK for _SceneInit_b2_j_1_1
   0519 F8 13              1739 	lda	hl,19(sp)
   051B 73                 1740 	ld	(hl),e
   051C E8 03              1741 	lda	sp,3(sp)
   051E C1                 1742 	pop	bc
                           1743 ;	genAssign
                           1744 ;	AOP_STK for _SceneInit_b2_j_1_1
                           1745 ;	(registers are the same)
                           1746 ;	src/Scene_b.c 157
                           1747 ;	genPlus
                           1748 ;	AOP_STK for _SceneInit_b2_sloc5_1_0
                           1749 ;	genPlusIncr
                           1750 ;	Can't optimise plus by inc, falling back to the normal way
   051F 21 03 00           1751 	ld	hl,#0x0003
   0522 09                 1752 	add	hl,bc
   0523 7D                 1753 	ld	a,l
   0524 54                 1754 	ld	d,h
   0525 F8 00              1755 	lda	hl,0(sp)
   0527 22                 1756 	ld	(hl+),a
   0528 72                 1757 	ld	(hl),d
                           1758 ;	genCmpEq
                           1759 ;	AOP_STK for _SceneInit_b2_j_1_1
                           1760 ; genCmpEq: left 1, right 1, result 0
   0529 F8 0E              1761 	lda	hl,14(sp)
   052B 7E                 1762 	ld	a,(hl)
   052C FE 02              1763 	cp	a,#0x02
   052E C2 3D 05           1764 	jp	nz,00115$
   0531 18 03              1765 	jr	00141$
   0533                    1766 00140$:
   0533 C3 3D 05           1767 	jp	00115$
   0536                    1768 00141$:
                           1769 ;	genAssign
                           1770 ;	AOP_STK for _SceneInit_b2_sloc3_1_0
   0536 F8 04              1771 	lda	hl,4(sp)
   0538 36 FF              1772 	ld	(hl),#0xFF
                           1773 ;	genGoto
   053A C3 5B 05           1774 	jp	00116$
                           1775 ;	genLabel
   053D                    1776 00115$:
                           1777 ;	genCmpEq
                           1778 ;	AOP_STK for _SceneInit_b2_j_1_1
                           1779 ; genCmpEq: left 1, right 1, result 0
   053D F8 0E              1780 	lda	hl,14(sp)
   053F 7E                 1781 	ld	a,(hl)
   0540 FE 04              1782 	cp	a,#0x04
   0542 C2 51 05           1783 	jp	nz,00117$
   0545 18 03              1784 	jr	00143$
   0547                    1785 00142$:
   0547 C3 51 05           1786 	jp	00117$
   054A                    1787 00143$:
                           1788 ;	genAssign
                           1789 ;	AOP_STK for _SceneInit_b2_sloc1_1_0
   054A F8 07              1790 	lda	hl,7(sp)
   054C 36 01              1791 	ld	(hl),#0x01
                           1792 ;	genGoto
   054E C3 55 05           1793 	jp	00118$
                           1794 ;	genLabel
   0551                    1795 00117$:
                           1796 ;	genAssign
                           1797 ;	AOP_STK for _SceneInit_b2_sloc1_1_0
   0551 F8 07              1798 	lda	hl,7(sp)
   0553 36 00              1799 	ld	(hl),#0x00
                           1800 ;	genLabel
   0555                    1801 00118$:
                           1802 ;	genAssign
                           1803 ;	AOP_STK for _SceneInit_b2_sloc1_1_0
                           1804 ;	AOP_STK for _SceneInit_b2_sloc3_1_0
   0555 F8 07              1805 	lda	hl,7(sp)
   0557 7E                 1806 	ld	a,(hl)
   0558 F8 04              1807 	lda	hl,4(sp)
   055A 77                 1808 	ld	(hl),a
                           1809 ;	genLabel
   055B                    1810 00116$:
                           1811 ;	genAssign (pointer)
                           1812 ;	AOP_STK for _SceneInit_b2_sloc5_1_0
                           1813 ;	AOP_STK for _SceneInit_b2_sloc3_1_0
   055B F8 00              1814 	lda	hl,0(sp)
   055D 5E                 1815 	ld	e,(hl)
   055E 23                 1816 	inc	hl
   055F 56                 1817 	ld	d,(hl)
   0560 F8 04              1818 	lda	hl,4(sp)
   0562 7E                 1819 	ld	a,(hl)
   0563 12                 1820 	ld	(de),a
                           1821 ;	src/Scene_b.c 158
                           1822 ;	genPlus
                           1823 ;	AOP_STK for _SceneInit_b2_sloc5_1_0
                           1824 ;	genPlusIncr
                           1825 ;	Can't optimise plus by inc, falling back to the normal way
   0564 21 04 00           1826 	ld	hl,#0x0004
   0567 09                 1827 	add	hl,bc
   0568 7D                 1828 	ld	a,l
   0569 54                 1829 	ld	d,h
   056A F8 00              1830 	lda	hl,0(sp)
   056C 22                 1831 	ld	(hl+),a
   056D 72                 1832 	ld	(hl),d
                           1833 ;	genCmpEq
                           1834 ;	AOP_STK for _SceneInit_b2_j_1_1
                           1835 ; genCmpEq: left 1, right 1, result 0
   056E F8 0E              1836 	lda	hl,14(sp)
   0570 7E                 1837 	ld	a,(hl)
   0571 FE 08              1838 	cp	a,#0x08
   0573 C2 82 05           1839 	jp	nz,00119$
   0576 18 03              1840 	jr	00145$
   0578                    1841 00144$:
   0578 C3 82 05           1842 	jp	00119$
   057B                    1843 00145$:
                           1844 ;	genAssign
                           1845 ;	AOP_STK for _SceneInit_b2_sloc3_1_0
   057B F8 04              1846 	lda	hl,4(sp)
   057D 36 FF              1847 	ld	(hl),#0xFF
                           1848 ;	genGoto
   057F C3 A0 05           1849 	jp	00120$
                           1850 ;	genLabel
   0582                    1851 00119$:
                           1852 ;	genCmpEq
                           1853 ;	AOP_STK for _SceneInit_b2_j_1_1
                           1854 ; genCmpEq: left 1, right 1, result 0
   0582 F8 0E              1855 	lda	hl,14(sp)
   0584 7E                 1856 	ld	a,(hl)
   0585 FE 01              1857 	cp	a,#0x01
   0587 C2 96 05           1858 	jp	nz,00121$
   058A 18 03              1859 	jr	00147$
   058C                    1860 00146$:
   058C C3 96 05           1861 	jp	00121$
   058F                    1862 00147$:
                           1863 ;	genAssign
                           1864 ;	AOP_STK for _SceneInit_b2_sloc1_1_0
   058F F8 07              1865 	lda	hl,7(sp)
   0591 36 01              1866 	ld	(hl),#0x01
                           1867 ;	genGoto
   0593 C3 9A 05           1868 	jp	00122$
                           1869 ;	genLabel
   0596                    1870 00121$:
                           1871 ;	genAssign
                           1872 ;	AOP_STK for _SceneInit_b2_sloc1_1_0
   0596 F8 07              1873 	lda	hl,7(sp)
   0598 36 00              1874 	ld	(hl),#0x00
                           1875 ;	genLabel
   059A                    1876 00122$:
                           1877 ;	genAssign
                           1878 ;	AOP_STK for _SceneInit_b2_sloc1_1_0
                           1879 ;	AOP_STK for _SceneInit_b2_sloc3_1_0
   059A F8 07              1880 	lda	hl,7(sp)
   059C 7E                 1881 	ld	a,(hl)
   059D F8 04              1882 	lda	hl,4(sp)
   059F 77                 1883 	ld	(hl),a
                           1884 ;	genLabel
   05A0                    1885 00120$:
                           1886 ;	genAssign (pointer)
                           1887 ;	AOP_STK for _SceneInit_b2_sloc5_1_0
                           1888 ;	AOP_STK for _SceneInit_b2_sloc3_1_0
   05A0 F8 00              1889 	lda	hl,0(sp)
   05A2 5E                 1890 	ld	e,(hl)
   05A3 23                 1891 	inc	hl
   05A4 56                 1892 	ld	d,(hl)
   05A5 F8 04              1893 	lda	hl,4(sp)
   05A7 7E                 1894 	ld	a,(hl)
   05A8 12                 1895 	ld	(de),a
                           1896 ;	src/Scene_b.c 160
                           1897 ;	genPlus
                           1898 ;	AOP_STK for _SceneInit_b2_sloc5_1_0
                           1899 ;	genPlusIncr
                           1900 ;	Can't optimise plus by inc, falling back to the normal way
   05A9 21 15 00           1901 	ld	hl,#0x0015
   05AC 09                 1902 	add	hl,bc
   05AD 7D                 1903 	ld	a,l
   05AE 54                 1904 	ld	d,h
   05AF F8 00              1905 	lda	hl,0(sp)
   05B1 22                 1906 	ld	(hl+),a
   05B2 72                 1907 	ld	(hl),d
                           1908 ;	genAssign (pointer)
                           1909 ;	AOP_STK for _SceneInit_b2_sloc5_1_0
   05B3 2B                 1910 	dec	hl
   05B4 5E                 1911 	ld	e,(hl)
   05B5 23                 1912 	inc	hl
   05B6 56                 1913 	ld	d,(hl)
   05B7 3E 00              1914 	ld	a,#0x00
   05B9 12                 1915 	ld	(de),a
                           1916 ;	src/Scene_b.c 161
                           1917 ;	genPlus
                           1918 ;	AOP_STK for _SceneInit_b2_scene_load_ptr_1_1
                           1919 ;	AOP_STK for _SceneInit_b2_sloc1_1_0
                           1920 ;	genPlusIncr
                           1921 ;	Can't optimise plus by inc, falling back to the normal way
   05BA F8 0B              1922 	lda	hl,11(sp)
   05BC 5E                 1923 	ld	e,(hl)
   05BD 23                 1924 	inc	hl
   05BE 56                 1925 	ld	d,(hl)
   05BF 21 07 00           1926 	ld	hl,#0x0007
   05C2 19                 1927 	add	hl,de
   05C3 7D                 1928 	ld	a,l
   05C4 54                 1929 	ld	d,h
   05C5 F8 07              1930 	lda	hl,7(sp)
   05C7 22                 1931 	ld	(hl+),a
   05C8 72                 1932 	ld	(hl),d
                           1933 ;	genCast
                           1934 ;	AOP_STK for _SceneInit_b2_sloc1_1_0
                           1935 ;	AOP_STK for _SceneInit_b2_sloc0_1_0
   05C9 2B                 1936 	dec	hl
   05CA 2A                 1937 	ld	a,(hl+)
   05CB 23                 1938 	inc	hl
   05CC 32                 1939 	ld      (hl-),a
   05CD 2A                 1940 	ld	a,(hl+)
   05CE 23                 1941 	inc	hl
   05CF 77                 1942 	ld	(hl),a
                           1943 ;	genPointerGet
                           1944 ;	AOP_STK for _SceneInit_b2_sloc3_1_0
   05D0 11 0B 00           1945 	ld	de,#_bank_ptr
   05D3 1A                 1946 	ld	a,(de)
   05D4 F8 04              1947 	lda	hl,4(sp)
   05D6 77                 1948 	ld	(hl),a
                           1949 ;	genIpush
                           1950 ; _saveRegsForCall: sendSetSize: 0 deInUse: 0 bcInUse: 1 deSending: 0
   05D7 C5                 1951 	push	bc
                           1952 ;	AOP_STK for _SceneInit_b2_sloc0_1_0
   05D8 F8 0B              1953 	lda	hl,11(sp)
   05DA 2A                 1954 	ld	a,(hl+)
   05DB 66                 1955 	ld	h,(hl)
   05DC 6F                 1956 	ld	l,a
   05DD E5                 1957 	push	hl
                           1958 ;	genIpush
                           1959 ;	AOP_STK for _SceneInit_b2_sloc3_1_0
   05DE F8 08              1960 	lda	hl,8(sp)
   05E0 7E                 1961 	ld	a,(hl)
   05E1 F5                 1962 	push	af
   05E2 33                 1963 	inc	sp
                           1964 ;	genCall
   05E3 CD 00 00           1965 	call	_ReadBankedUBYTE
                           1966 ;	AOP_STK for _SceneInit_b2_sloc3_1_0
   05E6 F8 09              1967 	lda	hl,9(sp)
   05E8 73                 1968 	ld	(hl),e
   05E9 E8 03              1969 	lda	sp,3(sp)
   05EB C1                 1970 	pop	bc
                           1971 ;	genAssign (pointer)
                           1972 ;	AOP_STK for _SceneInit_b2_sloc5_1_0
                           1973 ;	AOP_STK for _SceneInit_b2_sloc3_1_0
   05EC F8 00              1974 	lda	hl,0(sp)
   05EE 5E                 1975 	ld	e,(hl)
   05EF 23                 1976 	inc	hl
   05F0 56                 1977 	ld	d,(hl)
   05F1 F8 04              1978 	lda	hl,4(sp)
   05F3 7E                 1979 	ld	a,(hl)
   05F4 12                 1980 	ld	(de),a
                           1981 ;	src/Scene_b.c 163
                           1982 ;	genPlus
                           1983 ;	AOP_STK for _SceneInit_b2_scene_load_ptr_1_1
                           1984 ;	AOP_STK for _SceneInit_b2_sloc5_1_0
                           1985 ;	genPlusIncr
                           1986 ;	Can't optimise plus by inc, falling back to the normal way
   05F5 F8 0B              1987 	lda	hl,11(sp)
   05F7 5E                 1988 	ld	e,(hl)
   05F8 23                 1989 	inc	hl
   05F9 56                 1990 	ld	d,(hl)
   05FA 21 08 00           1991 	ld	hl,#0x0008
   05FD 19                 1992 	add	hl,de
   05FE 7D                 1993 	ld	a,l
   05FF 54                 1994 	ld	d,h
   0600 F8 00              1995 	lda	hl,0(sp)
   0602 22                 1996 	ld	(hl+),a
   0603 72                 1997 	ld	(hl),d
                           1998 ;	genCast
                           1999 ;	AOP_STK for _SceneInit_b2_sloc5_1_0
                           2000 ;	AOP_STK for _SceneInit_b2_sloc1_1_0
   0604 2B                 2001 	dec	hl
   0605 7E                 2002 	ld	a,(hl)
   0606 F8 07              2003 	lda	hl,7(sp)
   0608 77                 2004 	ld	(hl),a
   0609 F8 01              2005 	lda	hl,1(sp)
   060B 7E                 2006 	ld	a,(hl)
   060C F8 08              2007 	lda	hl,8(sp)
   060E 77                 2008 	ld	(hl),a
                           2009 ;	genPointerGet
                           2010 ;	AOP_STK for _SceneInit_b2_sloc5_1_0
   060F 11 0B 00           2011 	ld	de,#_bank_ptr
   0612 1A                 2012 	ld	a,(de)
   0613 F8 00              2013 	lda	hl,0(sp)
   0615 77                 2014 	ld	(hl),a
                           2015 ;	genIpush
                           2016 ; _saveRegsForCall: sendSetSize: 0 deInUse: 0 bcInUse: 1 deSending: 0
   0616 C5                 2017 	push	bc
                           2018 ;	AOP_STK for _SceneInit_b2_sloc1_1_0
   0617 F8 09              2019 	lda	hl,9(sp)
   0619 2A                 2020 	ld	a,(hl+)
   061A 66                 2021 	ld	h,(hl)
   061B 6F                 2022 	ld	l,a
   061C E5                 2023 	push	hl
                           2024 ;	genIpush
                           2025 ;	AOP_STK for _SceneInit_b2_sloc5_1_0
   061D F8 04              2026 	lda	hl,4(sp)
   061F 7E                 2027 	ld	a,(hl)
   0620 F5                 2028 	push	af
   0621 33                 2029 	inc	sp
                           2030 ;	genCall
   0622 CD 00 00           2031 	call	_ReadBankedUBYTE
                           2032 ;	AOP_STK for _SceneInit_b2_sloc5_1_0
   0625 F8 05              2033 	lda	hl,5(sp)
   0627 73                 2034 	ld	(hl),e
   0628 E8 03              2035 	lda	sp,3(sp)
   062A C1                 2036 	pop	bc
                           2037 ;	genAssign (pointer)
                           2038 ;	AOP_STK for _SceneInit_b2_sloc4_1_0
                           2039 ;	AOP_STK for _SceneInit_b2_sloc5_1_0
   062B F8 02              2040 	lda	hl,2(sp)
   062D 5E                 2041 	ld	e,(hl)
   062E 23                 2042 	inc	hl
   062F 56                 2043 	ld	d,(hl)
   0630 F8 00              2044 	lda	hl,0(sp)
   0632 7E                 2045 	ld	a,(hl)
   0633 12                 2046 	ld	(de),a
                           2047 ;	src/Scene_b.c 164
                           2048 ;	genPlus
                           2049 ;	AOP_STK for _SceneInit_b2_scene_load_ptr_1_1
                           2050 ;	AOP_STK for _SceneInit_b2_sloc5_1_0
                           2051 ;	genPlusIncr
                           2052 ;	Can't optimise plus by inc, falling back to the normal way
   0634 F8 0B              2053 	lda	hl,11(sp)
   0636 5E                 2054 	ld	e,(hl)
   0637 23                 2055 	inc	hl
   0638 56                 2056 	ld	d,(hl)
   0639 21 09 00           2057 	ld	hl,#0x0009
   063C 19                 2058 	add	hl,de
   063D 7D                 2059 	ld	a,l
   063E 54                 2060 	ld	d,h
   063F F8 00              2061 	lda	hl,0(sp)
   0641 22                 2062 	ld	(hl+),a
   0642 72                 2063 	ld	(hl),d
                           2064 ;	genCast
                           2065 ;	AOP_STK for _SceneInit_b2_sloc5_1_0
                           2066 ;	AOP_STK for _SceneInit_b2_sloc4_1_0
   0643 2B                 2067 	dec	hl
   0644 2A                 2068 	ld	a,(hl+)
   0645 23                 2069 	inc	hl
   0646 32                 2070 	ld      (hl-),a
   0647 2A                 2071 	ld	a,(hl+)
   0648 23                 2072 	inc	hl
   0649 77                 2073 	ld	(hl),a
                           2074 ;	genPointerGet
                           2075 ;	AOP_STK for _SceneInit_b2_sloc5_1_0
   064A 11 0B 00           2076 	ld	de,#_bank_ptr
   064D 1A                 2077 	ld	a,(de)
   064E F8 00              2078 	lda	hl,0(sp)
   0650 77                 2079 	ld	(hl),a
                           2080 ;	genIpush
                           2081 ; _saveRegsForCall: sendSetSize: 0 deInUse: 0 bcInUse: 1 deSending: 0
   0651 C5                 2082 	push	bc
                           2083 ;	AOP_STK for _SceneInit_b2_sloc4_1_0
   0652 23                 2084 	inc	hl
   0653 23                 2085 	inc	hl
   0654 2A                 2086 	ld	a,(hl+)
   0655 66                 2087 	ld	h,(hl)
   0656 6F                 2088 	ld	l,a
   0657 E5                 2089 	push	hl
                           2090 ;	genIpush
                           2091 ;	AOP_STK for _SceneInit_b2_sloc5_1_0
   0658 F8 04              2092 	lda	hl,4(sp)
   065A 7E                 2093 	ld	a,(hl)
   065B F5                 2094 	push	af
   065C 33                 2095 	inc	sp
                           2096 ;	genCall
   065D CD 00 00           2097 	call	_ReadBankedUBYTE
                           2098 ;	AOP_STK for _SceneInit_b2_sloc5_1_0
   0660 F8 05              2099 	lda	hl,5(sp)
   0662 73                 2100 	ld	(hl),e
   0663 E8 03              2101 	lda	sp,3(sp)
   0665 C1                 2102 	pop	bc
                           2103 ;	genAssign (pointer)
                           2104 ;	AOP_STK for _SceneInit_b2_sloc2_1_0
                           2105 ;	AOP_STK for _SceneInit_b2_sloc5_1_0
   0666 F8 05              2106 	lda	hl,5(sp)
   0668 5E                 2107 	ld	e,(hl)
   0669 23                 2108 	inc	hl
   066A 56                 2109 	ld	d,(hl)
   066B F8 00              2110 	lda	hl,0(sp)
   066D 7E                 2111 	ld	a,(hl)
   066E 12                 2112 	ld	(de),a
                           2113 ;	src/Scene_b.c 167
                           2114 ;	genPlus
                           2115 ;	AOP_STK for _SceneInit_b2_sloc5_1_0
                           2116 ;	genPlusIncr
                           2117 ;	Can't optimise plus by inc, falling back to the normal way
   066F 21 12 00           2118 	ld	hl,#0x0012
   0672 09                 2119 	add	hl,bc
   0673 7D                 2120 	ld	a,l
   0674 54                 2121 	ld	d,h
   0675 F8 00              2122 	lda	hl,0(sp)
   0677 22                 2123 	ld	(hl+),a
   0678 72                 2124 	ld	(hl),d
                           2125 ;	genPlus
                           2126 ;	AOP_STK for _SceneInit_b2_scene_load_ptr_1_1
                           2127 ;	AOP_STK for _SceneInit_b2_sloc4_1_0
                           2128 ;	genPlusIncr
                           2129 ;	Can't optimise plus by inc, falling back to the normal way
   0679 F8 0B              2130 	lda	hl,11(sp)
   067B 5E                 2131 	ld	e,(hl)
   067C 23                 2132 	inc	hl
   067D 56                 2133 	ld	d,(hl)
   067E 21 0A 00           2134 	ld	hl,#0x000A
   0681 19                 2135 	add	hl,de
   0682 7D                 2136 	ld	a,l
   0683 54                 2137 	ld	d,h
   0684 F8 02              2138 	lda	hl,2(sp)
   0686 22                 2139 	ld	(hl+),a
   0687 72                 2140 	ld	(hl),d
                           2141 ;	genCast
                           2142 ;	AOP_STK for _SceneInit_b2_sloc4_1_0
                           2143 ;	AOP_STK for _SceneInit_b2_sloc2_1_0
   0688 2B                 2144 	dec	hl
   0689 7E                 2145 	ld	a,(hl)
   068A F8 05              2146 	lda	hl,5(sp)
   068C 32                 2147 	ld      (hl-),a
   068D 2B                 2148 	dec	hl
   068E 7E                 2149 	ld	a,(hl)
   068F F8 06              2150 	lda	hl,6(sp)
   0691 77                 2151 	ld	(hl),a
                           2152 ;	genPointerGet
                           2153 ;	AOP_STK for _SceneInit_b2_sloc4_1_0
   0692 11 0B 00           2154 	ld	de,#_bank_ptr
   0695 1A                 2155 	ld	a,(de)
   0696 F8 02              2156 	lda	hl,2(sp)
   0698 77                 2157 	ld	(hl),a
                           2158 ;	genIpush
                           2159 ; _saveRegsForCall: sendSetSize: 0 deInUse: 0 bcInUse: 1 deSending: 0
   0699 C5                 2160 	push	bc
                           2161 ;	AOP_STK for _SceneInit_b2_sloc2_1_0
   069A F8 07              2162 	lda	hl,7(sp)
   069C 2A                 2163 	ld	a,(hl+)
   069D 66                 2164 	ld	h,(hl)
   069E 6F                 2165 	ld	l,a
   069F E5                 2166 	push	hl
                           2167 ;	genIpush
                           2168 ;	AOP_STK for _SceneInit_b2_sloc4_1_0
   06A0 F8 06              2169 	lda	hl,6(sp)
   06A2 7E                 2170 	ld	a,(hl)
   06A3 F5                 2171 	push	af
   06A4 33                 2172 	inc	sp
                           2173 ;	genCall
   06A5 CD 00 00           2174 	call	_ReadBankedUBYTE
                           2175 ;	AOP_STK for _SceneInit_b2_sloc4_1_0
   06A8 F8 07              2176 	lda	hl,7(sp)
   06AA 73                 2177 	ld	(hl),e
   06AB E8 03              2178 	lda	sp,3(sp)
   06AD C1                 2179 	pop	bc
                           2180 ;	genAssign (pointer)
                           2181 ;	AOP_STK for _SceneInit_b2_sloc5_1_0
                           2182 ;	AOP_STK for _SceneInit_b2_sloc4_1_0
   06AE F8 00              2183 	lda	hl,0(sp)
   06B0 5E                 2184 	ld	e,(hl)
   06B1 23                 2185 	inc	hl
   06B2 56                 2186 	ld	d,(hl)
   06B3 23                 2187 	inc	hl
   06B4 7E                 2188 	ld	a,(hl)
   06B5 12                 2189 	ld	(de),a
                           2190 ;	src/Scene_b.c 168
                           2191 ;	genPlus
                           2192 ;	genPlusIncr
                           2193 ;	Can't optimise plus by inc, falling back to the normal way
   06B6 79                 2194 	ld	a,c
   06B7 C6 13              2195 	add	a,#0x13
   06B9 4F                 2196 	ld	c,a
   06BA 78                 2197 	ld	a,b
   06BB CE 00              2198 	adc	a,#0x00
   06BD 47                 2199 	ld	b,a
                           2200 ;	genPlus
                           2201 ;	AOP_STK for _SceneInit_b2_scene_load_ptr_1_1
                           2202 ;	AOP_STK for _SceneInit_b2_sloc5_1_0
                           2203 ;	genPlusIncr
                           2204 ;	Can't optimise plus by inc, falling back to the normal way
   06BE F8 0B              2205 	lda	hl,11(sp)
   06C0 5E                 2206 	ld	e,(hl)
   06C1 23                 2207 	inc	hl
   06C2 56                 2208 	ld	d,(hl)
   06C3 21 0B 00           2209 	ld	hl,#0x000B
   06C6 19                 2210 	add	hl,de
   06C7 7D                 2211 	ld	a,l
   06C8 54                 2212 	ld	d,h
   06C9 F8 00              2213 	lda	hl,0(sp)
   06CB 22                 2214 	ld	(hl+),a
   06CC 72                 2215 	ld	(hl),d
                           2216 ;	genCast
                           2217 ;	AOP_STK for _SceneInit_b2_sloc5_1_0
                           2218 ;	AOP_STK for _SceneInit_b2_sloc4_1_0
   06CD 2B                 2219 	dec	hl
   06CE 2A                 2220 	ld	a,(hl+)
   06CF 23                 2221 	inc	hl
   06D0 32                 2222 	ld      (hl-),a
   06D1 2A                 2223 	ld	a,(hl+)
   06D2 23                 2224 	inc	hl
   06D3 77                 2225 	ld	(hl),a
                           2226 ;	genPointerGet
                           2227 ;	AOP_STK for _SceneInit_b2_sloc5_1_0
   06D4 11 0B 00           2228 	ld	de,#_bank_ptr
   06D7 1A                 2229 	ld	a,(de)
   06D8 F8 00              2230 	lda	hl,0(sp)
   06DA 77                 2231 	ld	(hl),a
                           2232 ;	genIpush
                           2233 ; _saveRegsForCall: sendSetSize: 0 deInUse: 0 bcInUse: 1 deSending: 0
   06DB C5                 2234 	push	bc
                           2235 ;	AOP_STK for _SceneInit_b2_sloc4_1_0
   06DC 23                 2236 	inc	hl
   06DD 23                 2237 	inc	hl
   06DE 2A                 2238 	ld	a,(hl+)
   06DF 66                 2239 	ld	h,(hl)
   06E0 6F                 2240 	ld	l,a
   06E1 E5                 2241 	push	hl
                           2242 ;	genIpush
                           2243 ;	AOP_STK for _SceneInit_b2_sloc5_1_0
   06E2 F8 04              2244 	lda	hl,4(sp)
   06E4 7E                 2245 	ld	a,(hl)
   06E5 F5                 2246 	push	af
   06E6 33                 2247 	inc	sp
                           2248 ;	genCall
   06E7 CD 00 00           2249 	call	_ReadBankedUBYTE
                           2250 ;	AOP_STK for _SceneInit_b2_sloc5_1_0
   06EA F8 05              2251 	lda	hl,5(sp)
   06EC 73                 2252 	ld	(hl),e
   06ED E8 03              2253 	lda	sp,3(sp)
   06EF C1                 2254 	pop	bc
                           2255 ;	genCast
                           2256 ;	AOP_STK for _SceneInit_b2_sloc5_1_0
                           2257 ;	AOP_STK for _SceneInit_b2_sloc4_1_0
   06F0 F8 00              2258 	lda	hl,0(sp)
   06F2 2A                 2259 	ld	a,(hl+)
   06F3 23                 2260 	inc	hl
   06F4 22                 2261 	ld	(hl+),a
   06F5 36 00              2262 	ld	(hl),#0x00
                           2263 ;	genLeftShift
                           2264 ;	AOP_STK for _SceneInit_b2_sloc4_1_0
                           2265 ;	AOP_STK for _SceneInit_b2_sloc5_1_0
   06F7 2B                 2266 	dec	hl
   06F8 7E                 2267 	ld	a,(hl)
   06F9 2B                 2268 	dec	hl
   06FA 32                 2269 	ld      (hl-),a
   06FB 36 00              2270 	ld	(hl),#0x00
                           2271 ;	genPlus
                           2272 ;	AOP_STK for _SceneInit_b2_scene_load_ptr_1_1
                           2273 ;	AOP_STK for _SceneInit_b2_sloc4_1_0
                           2274 ;	genPlusIncr
                           2275 ;	Can't optimise plus by inc, falling back to the normal way
   06FD F8 0B              2276 	lda	hl,11(sp)
   06FF 5E                 2277 	ld	e,(hl)
   0700 23                 2278 	inc	hl
   0701 56                 2279 	ld	d,(hl)
   0702 21 0C 00           2280 	ld	hl,#0x000C
   0705 19                 2281 	add	hl,de
   0706 7D                 2282 	ld	a,l
   0707 54                 2283 	ld	d,h
   0708 F8 02              2284 	lda	hl,2(sp)
   070A 22                 2285 	ld	(hl+),a
   070B 72                 2286 	ld	(hl),d
                           2287 ;	genCast
                           2288 ;	AOP_STK for _SceneInit_b2_sloc4_1_0
                           2289 ;	AOP_STK for _SceneInit_b2_sloc2_1_0
   070C 2B                 2290 	dec	hl
   070D 7E                 2291 	ld	a,(hl)
   070E F8 05              2292 	lda	hl,5(sp)
   0710 32                 2293 	ld      (hl-),a
   0711 2B                 2294 	dec	hl
   0712 7E                 2295 	ld	a,(hl)
   0713 F8 06              2296 	lda	hl,6(sp)
   0715 77                 2297 	ld	(hl),a
                           2298 ;	genPointerGet
                           2299 ;	AOP_STK for _SceneInit_b2_sloc4_1_0
   0716 11 0B 00           2300 	ld	de,#_bank_ptr
   0719 1A                 2301 	ld	a,(de)
   071A F8 02              2302 	lda	hl,2(sp)
   071C 77                 2303 	ld	(hl),a
                           2304 ;	genIpush
                           2305 ; _saveRegsForCall: sendSetSize: 0 deInUse: 0 bcInUse: 1 deSending: 0
   071D C5                 2306 	push	bc
                           2307 ;	AOP_STK for _SceneInit_b2_sloc2_1_0
   071E F8 07              2308 	lda	hl,7(sp)
   0720 2A                 2309 	ld	a,(hl+)
   0721 66                 2310 	ld	h,(hl)
   0722 6F                 2311 	ld	l,a
   0723 E5                 2312 	push	hl
                           2313 ;	genIpush
                           2314 ;	AOP_STK for _SceneInit_b2_sloc4_1_0
   0724 F8 06              2315 	lda	hl,6(sp)
   0726 7E                 2316 	ld	a,(hl)
   0727 F5                 2317 	push	af
   0728 33                 2318 	inc	sp
                           2319 ;	genCall
   0729 CD 00 00           2320 	call	_ReadBankedUBYTE
                           2321 ;	AOP_STK for _SceneInit_b2_sloc4_1_0
   072C F8 07              2322 	lda	hl,7(sp)
   072E 73                 2323 	ld	(hl),e
   072F E8 03              2324 	lda	sp,3(sp)
   0731 C1                 2325 	pop	bc
                           2326 ;	genCast
                           2327 ;	AOP_STK for _SceneInit_b2_sloc4_1_0
                           2328 ;	AOP_STK for _SceneInit_b2_sloc2_1_0
   0732 F8 02              2329 	lda	hl,2(sp)
   0734 7E                 2330 	ld	a,(hl)
   0735 F8 05              2331 	lda	hl,5(sp)
   0737 22                 2332 	ld	(hl+),a
   0738 36 00              2333 	ld	(hl),#0x00
                           2334 ;	genPlus
                           2335 ;	AOP_STK for _SceneInit_b2_sloc5_1_0
                           2336 ;	AOP_STK for _SceneInit_b2_sloc2_1_0
                           2337 ;	AOP_STK for _SceneInit_b2_sloc4_1_0
                           2338 ;	Can't optimise plus by inc, falling back to the normal way
   073A F8 00              2339 	lda	hl,0(sp)
   073C 5E                 2340 	ld	e,(hl)
   073D 23                 2341 	inc	hl
   073E 56                 2342 	ld	d,(hl)
   073F F8 05              2343 	lda	hl,5(sp)
   0741 2A                 2344 	ld	a,(hl+)
   0742 66                 2345 	ld	h,(hl)
   0743 6F                 2346 	ld	l,a
   0744 19                 2347 	add	hl,de
   0745 7D                 2348 	ld	a,l
   0746 54                 2349 	ld	d,h
   0747 F8 02              2350 	lda	hl,2(sp)
   0749 22                 2351 	ld	(hl+),a
   074A 72                 2352 	ld	(hl),d
                           2353 ;	genAssign (pointer)
                           2354 ;	AOP_STK for _SceneInit_b2_sloc4_1_0
   074B 59                 2355 	ld	e,c
   074C 50                 2356 	ld	d,b
   074D 2B                 2357 	dec	hl
   074E 7E                 2358 	ld	a,(hl)
   074F 12                 2359 	ld	(de),a
   0750 13                 2360 	inc	de
   0751 23                 2361 	inc	hl
   0752 7E                 2362 	ld	a,(hl)
   0753 12                 2363 	ld	(de),a
                           2364 ;	src/Scene_b.c 171
                           2365 ;	genPlus
                           2366 ;	AOP_STK for _SceneInit_b2_scene_load_ptr_1_1
                           2367 ;	genPlusIncr
                           2368 ;	Can't optimise plus by inc, falling back to the normal way
   0754 F8 0B              2369 	lda	hl,11(sp)
   0756 5E                 2370 	ld	e,(hl)
   0757 23                 2371 	inc	hl
   0758 56                 2372 	ld	d,(hl)
   0759 21 0D 00           2373 	ld	hl,#0x000D
   075C 19                 2374 	add	hl,de
   075D 7D                 2375 	ld	a,l
   075E 54                 2376 	ld	d,h
   075F F8 0B              2377 	lda	hl,11(sp)
   0761 22                 2378 	ld	(hl+),a
   0762 72                 2379 	ld	(hl),d
                           2380 ;	src/Scene_b.c 134
                           2381 ;	genPlus
                           2382 ;	AOP_STK for _SceneInit_b2_i_1_1
                           2383 ;	genPlusIncr
   0763 F8 0F              2384 	lda	hl,15(sp)
   0765 34                 2385 	inc	(hl)
                           2386 ;	genGoto
   0766 C3 9B 02           2387 	jp	00105$
                           2388 ;	genLabel
   0769                    2389 00108$:
                           2390 ;	src/Scene_b.c 175
                           2391 ;	genCast
                           2392 ;	AOP_STK for _SceneInit_b2_scene_load_ptr_1_1
   0769 F8 0B              2393 	lda	hl,11(sp)
   076B 4E                 2394 	ld	c,(hl)
   076C 23                 2395 	inc	hl
   076D 46                 2396 	ld	b,(hl)
                           2397 ;	genPointerGet
                           2398 ;	AOP_STK for _SceneInit_b2_sloc5_1_0
   076E 11 0B 00           2399 	ld	de,#_bank_ptr
   0771 1A                 2400 	ld	a,(de)
   0772 F8 00              2401 	lda	hl,0(sp)
   0774 77                 2402 	ld	(hl),a
                           2403 ;	genIpush
                           2404 ; _saveRegsForCall: sendSetSize: 0 deInUse: 0 bcInUse: 0 deSending: 0
   0775 C5                 2405 	push	bc
                           2406 ;	genIpush
                           2407 ;	AOP_STK for _SceneInit_b2_sloc5_1_0
   0776 7E                 2408 	ld	a,(hl)
   0777 F5                 2409 	push	af
   0778 33                 2410 	inc	sp
                           2411 ;	genCall
   0779 CD 00 00           2412 	call	_ReadBankedUBYTE
                           2413 ;	AOP_HL for _scene_num_triggers
   077C 21 12 00           2414 	ld	hl,#_scene_num_triggers
   077F 73                 2415 	ld	(hl),e
   0780 E8 03              2416 	lda	sp,3(sp)
                           2417 ;	src/Scene_b.c 176
                           2418 ;	genPlus
                           2419 ;	AOP_STK for _SceneInit_b2_scene_load_ptr_1_1
                           2420 ;	genPlusIncr
   0782 F8 0B              2421 	lda	hl,11(sp)
   0784 34                 2422 	inc	(hl)
   0785 20 02              2423 	jr	nz,00148$
   0787 23                 2424 	inc	hl
   0788 34                 2425 	inc	(hl)
   0789                    2426 00148$:
                           2427 ;	src/Scene_b.c 178
                           2428 ;	genAssign
                           2429 ;	AOP_STK for _SceneInit_b2_i_1_1
   0789 F8 0F              2430 	lda	hl,15(sp)
   078B 36 00              2431 	ld	(hl),#0x00
                           2432 ;	genLabel
   078D                    2433 00109$:
                           2434 ;	genCmpEq
                           2435 ;	AOP_STK for _SceneInit_b2_i_1_1
                           2436 ;	AOP_HL for _scene_num_triggers
                           2437 ; genCmpEq: left 1, right 1, result 0
   078D 21 12 00           2438 	ld	hl,#_scene_num_triggers
   0790 7E                 2439 	ld	a,(hl)
   0791 F8 0F              2440 	lda	hl,15(sp)
   0793 BE                 2441 	cp	(hl)
   0794 20 03              2442 	jr	nz,00149$
   0796 C3 B4 09           2443 	jp	00112$
   0799                    2444 00149$:
                           2445 ;	src/Scene_b.c 180
                           2446 ;	genMult
                           2447 ;	AOP_STK for _SceneInit_b2_i_1_1
   0799 F8 0F              2448 	lda	hl,15(sp)
   079B 5E                 2449 	ld	e,(hl)
   079C 16 00              2450 	ld	d,#0x00
   079E 6B                 2451 	ld	l,e
   079F 62                 2452 	ld	h,d
   07A0 29                 2453 	add	hl,hl
   07A1 29                 2454 	add	hl,hl
   07A2 29                 2455 	add	hl,hl
   07A3 19                 2456 	add	hl,de
   07A4 4D                 2457 	ld	c,l
   07A5 44                 2458 	ld	b,h
                           2459 ;	genPlus
                           2460 ;	Can't optimise plus by inc, falling back to the normal way
   07A6 21 00 00           2461 	ld	hl,#_triggers
   07A9 09                 2462 	add	hl,bc
   07AA 4D                 2463 	ld	c,l
   07AB 44                 2464 	ld	b,h
                           2465 ;	genCast
                           2466 ;	AOP_STK for _SceneInit_b2_scene_load_ptr_1_1
                           2467 ;	AOP_STK for _SceneInit_b2_sloc5_1_0
   07AC F8 0B              2468 	lda	hl,11(sp)
   07AE 7E                 2469 	ld	a,(hl)
   07AF F8 00              2470 	lda	hl,0(sp)
   07B1 77                 2471 	ld	(hl),a
   07B2 F8 0C              2472 	lda	hl,12(sp)
   07B4 7E                 2473 	ld	a,(hl)
   07B5 F8 01              2474 	lda	hl,1(sp)
   07B7 77                 2475 	ld	(hl),a
                           2476 ;	genPointerGet
                           2477 ;	AOP_STK for _SceneInit_b2_sloc4_1_0
   07B8 11 0B 00           2478 	ld	de,#_bank_ptr
   07BB 1A                 2479 	ld	a,(de)
   07BC 23                 2480 	inc	hl
   07BD 77                 2481 	ld	(hl),a
                           2482 ;	genIpush
                           2483 ; _saveRegsForCall: sendSetSize: 0 deInUse: 0 bcInUse: 1 deSending: 0
   07BE C5                 2484 	push	bc
                           2485 ;	AOP_STK for _SceneInit_b2_sloc5_1_0
   07BF 2B                 2486 	dec	hl
   07C0 2B                 2487 	dec	hl
   07C1 2A                 2488 	ld	a,(hl+)
   07C2 66                 2489 	ld	h,(hl)
   07C3 6F                 2490 	ld	l,a
   07C4 E5                 2491 	push	hl
                           2492 ;	genIpush
                           2493 ;	AOP_STK for _SceneInit_b2_sloc4_1_0
   07C5 F8 06              2494 	lda	hl,6(sp)
   07C7 7E                 2495 	ld	a,(hl)
   07C8 F5                 2496 	push	af
   07C9 33                 2497 	inc	sp
                           2498 ;	genCall
   07CA CD 00 00           2499 	call	_ReadBankedUBYTE
                           2500 ;	AOP_STK for _SceneInit_b2_sloc5_1_0
   07CD F8 05              2501 	lda	hl,5(sp)
   07CF 73                 2502 	ld	(hl),e
   07D0 E8 03              2503 	lda	sp,3(sp)
   07D2 C1                 2504 	pop	bc
                           2505 ;	genAssign (pointer)
                           2506 ;	AOP_STK for _SceneInit_b2_sloc5_1_0
   07D3 F8 00              2507 	lda	hl,0(sp)
   07D5 7E                 2508 	ld	a,(hl)
   07D6 02                 2509 	ld	(bc),a
                           2510 ;	src/Scene_b.c 181
                           2511 ;	genPlus
                           2512 ;	AOP_STK for _SceneInit_b2_sloc5_1_0
                           2513 ;	genPlusIncr
                           2514 ;	Can't optimise plus by inc, falling back to the normal way
   07D7 21 01 00           2515 	ld	hl,#0x0001
   07DA 09                 2516 	add	hl,bc
   07DB 7D                 2517 	ld	a,l
   07DC 54                 2518 	ld	d,h
   07DD F8 00              2519 	lda	hl,0(sp)
   07DF 22                 2520 	ld	(hl+),a
   07E0 72                 2521 	ld	(hl),d
                           2522 ;	genPlus
                           2523 ;	AOP_STK for _SceneInit_b2_scene_load_ptr_1_1
                           2524 ;	AOP_STK for _SceneInit_b2_sloc4_1_0
                           2525 ;	genPlusIncr
                           2526 ;	Can't optimise plus by inc, falling back to the normal way
   07E1 F8 0B              2527 	lda	hl,11(sp)
   07E3 5E                 2528 	ld	e,(hl)
   07E4 23                 2529 	inc	hl
   07E5 56                 2530 	ld	d,(hl)
   07E6 21 01 00           2531 	ld	hl,#0x0001
   07E9 19                 2532 	add	hl,de
   07EA 7D                 2533 	ld	a,l
   07EB 54                 2534 	ld	d,h
   07EC F8 02              2535 	lda	hl,2(sp)
   07EE 22                 2536 	ld	(hl+),a
   07EF 72                 2537 	ld	(hl),d
                           2538 ;	genCast
                           2539 ;	AOP_STK for _SceneInit_b2_sloc4_1_0
                           2540 ;	AOP_STK for _SceneInit_b2_sloc2_1_0
   07F0 2B                 2541 	dec	hl
   07F1 7E                 2542 	ld	a,(hl)
   07F2 F8 05              2543 	lda	hl,5(sp)
   07F4 32                 2544 	ld      (hl-),a
   07F5 2B                 2545 	dec	hl
   07F6 7E                 2546 	ld	a,(hl)
   07F7 F8 06              2547 	lda	hl,6(sp)
   07F9 77                 2548 	ld	(hl),a
                           2549 ;	genPointerGet
                           2550 ;	AOP_STK for _SceneInit_b2_sloc4_1_0
   07FA 11 0B 00           2551 	ld	de,#_bank_ptr
   07FD 1A                 2552 	ld	a,(de)
   07FE F8 02              2553 	lda	hl,2(sp)
   0800 77                 2554 	ld	(hl),a
                           2555 ;	genIpush
                           2556 ; _saveRegsForCall: sendSetSize: 0 deInUse: 0 bcInUse: 1 deSending: 0
   0801 C5                 2557 	push	bc
                           2558 ;	AOP_STK for _SceneInit_b2_sloc2_1_0
   0802 F8 07              2559 	lda	hl,7(sp)
   0804 2A                 2560 	ld	a,(hl+)
   0805 66                 2561 	ld	h,(hl)
   0806 6F                 2562 	ld	l,a
   0807 E5                 2563 	push	hl
                           2564 ;	genIpush
                           2565 ;	AOP_STK for _SceneInit_b2_sloc4_1_0
   0808 F8 06              2566 	lda	hl,6(sp)
   080A 7E                 2567 	ld	a,(hl)
   080B F5                 2568 	push	af
   080C 33                 2569 	inc	sp
                           2570 ;	genCall
   080D CD 00 00           2571 	call	_ReadBankedUBYTE
                           2572 ;	AOP_STK for _SceneInit_b2_sloc4_1_0
   0810 F8 07              2573 	lda	hl,7(sp)
   0812 73                 2574 	ld	(hl),e
   0813 E8 03              2575 	lda	sp,3(sp)
   0815 C1                 2576 	pop	bc
                           2577 ;	genAssign (pointer)
                           2578 ;	AOP_STK for _SceneInit_b2_sloc5_1_0
                           2579 ;	AOP_STK for _SceneInit_b2_sloc4_1_0
   0816 F8 00              2580 	lda	hl,0(sp)
   0818 5E                 2581 	ld	e,(hl)
   0819 23                 2582 	inc	hl
   081A 56                 2583 	ld	d,(hl)
   081B 23                 2584 	inc	hl
   081C 7E                 2585 	ld	a,(hl)
   081D 12                 2586 	ld	(de),a
                           2587 ;	src/Scene_b.c 182
                           2588 ;	genPlus
                           2589 ;	AOP_STK for _SceneInit_b2_sloc5_1_0
                           2590 ;	genPlusIncr
                           2591 ;	Can't optimise plus by inc, falling back to the normal way
   081E 21 02 00           2592 	ld	hl,#0x0002
   0821 09                 2593 	add	hl,bc
   0822 7D                 2594 	ld	a,l
   0823 54                 2595 	ld	d,h
   0824 F8 00              2596 	lda	hl,0(sp)
   0826 22                 2597 	ld	(hl+),a
   0827 72                 2598 	ld	(hl),d
                           2599 ;	genAssign (pointer)
                           2600 ;	AOP_STK for _SceneInit_b2_sloc5_1_0
   0828 2B                 2601 	dec	hl
   0829 5E                 2602 	ld	e,(hl)
   082A 23                 2603 	inc	hl
   082B 56                 2604 	ld	d,(hl)
   082C 3E 00              2605 	ld	a,#0x00
   082E 12                 2606 	ld	(de),a
                           2607 ;	src/Scene_b.c 183
                           2608 ;	genPlus
                           2609 ;	AOP_STK for _SceneInit_b2_scene_load_ptr_1_1
                           2610 ;	AOP_STK for _SceneInit_b2_sloc4_1_0
                           2611 ;	genPlusIncr
                           2612 ;	Can't optimise plus by inc, falling back to the normal way
   082F F8 0B              2613 	lda	hl,11(sp)
   0831 5E                 2614 	ld	e,(hl)
   0832 23                 2615 	inc	hl
   0833 56                 2616 	ld	d,(hl)
   0834 21 02 00           2617 	ld	hl,#0x0002
   0837 19                 2618 	add	hl,de
   0838 7D                 2619 	ld	a,l
   0839 54                 2620 	ld	d,h
   083A F8 02              2621 	lda	hl,2(sp)
   083C 22                 2622 	ld	(hl+),a
   083D 72                 2623 	ld	(hl),d
                           2624 ;	genCast
                           2625 ;	AOP_STK for _SceneInit_b2_sloc4_1_0
                           2626 ;	AOP_STK for _SceneInit_b2_sloc2_1_0
   083E 2B                 2627 	dec	hl
   083F 7E                 2628 	ld	a,(hl)
   0840 F8 05              2629 	lda	hl,5(sp)
   0842 32                 2630 	ld      (hl-),a
   0843 2B                 2631 	dec	hl
   0844 7E                 2632 	ld	a,(hl)
   0845 F8 06              2633 	lda	hl,6(sp)
   0847 77                 2634 	ld	(hl),a
                           2635 ;	genPointerGet
                           2636 ;	AOP_STK for _SceneInit_b2_sloc4_1_0
   0848 11 0B 00           2637 	ld	de,#_bank_ptr
   084B 1A                 2638 	ld	a,(de)
   084C F8 02              2639 	lda	hl,2(sp)
   084E 77                 2640 	ld	(hl),a
                           2641 ;	genIpush
                           2642 ; _saveRegsForCall: sendSetSize: 0 deInUse: 0 bcInUse: 1 deSending: 0
   084F C5                 2643 	push	bc
                           2644 ;	AOP_STK for _SceneInit_b2_sloc2_1_0
   0850 F8 07              2645 	lda	hl,7(sp)
   0852 2A                 2646 	ld	a,(hl+)
   0853 66                 2647 	ld	h,(hl)
   0854 6F                 2648 	ld	l,a
   0855 E5                 2649 	push	hl
                           2650 ;	genIpush
                           2651 ;	AOP_STK for _SceneInit_b2_sloc4_1_0
   0856 F8 06              2652 	lda	hl,6(sp)
   0858 7E                 2653 	ld	a,(hl)
   0859 F5                 2654 	push	af
   085A 33                 2655 	inc	sp
                           2656 ;	genCall
   085B CD 00 00           2657 	call	_ReadBankedUBYTE
                           2658 ;	AOP_STK for _SceneInit_b2_sloc4_1_0
   085E F8 07              2659 	lda	hl,7(sp)
   0860 73                 2660 	ld	(hl),e
   0861 E8 03              2661 	lda	sp,3(sp)
   0863 C1                 2662 	pop	bc
                           2663 ;	genAssign (pointer)
                           2664 ;	AOP_STK for _SceneInit_b2_sloc5_1_0
                           2665 ;	AOP_STK for _SceneInit_b2_sloc4_1_0
   0864 F8 00              2666 	lda	hl,0(sp)
   0866 5E                 2667 	ld	e,(hl)
   0867 23                 2668 	inc	hl
   0868 56                 2669 	ld	d,(hl)
   0869 23                 2670 	inc	hl
   086A 7E                 2671 	ld	a,(hl)
   086B 12                 2672 	ld	(de),a
                           2673 ;	src/Scene_b.c 184
                           2674 ;	genPlus
                           2675 ;	AOP_STK for _SceneInit_b2_sloc5_1_0
                           2676 ;	genPlusIncr
                           2677 ;	Can't optimise plus by inc, falling back to the normal way
   086C 21 03 00           2678 	ld	hl,#0x0003
   086F 09                 2679 	add	hl,bc
   0870 7D                 2680 	ld	a,l
   0871 54                 2681 	ld	d,h
   0872 F8 00              2682 	lda	hl,0(sp)
   0874 22                 2683 	ld	(hl+),a
   0875 72                 2684 	ld	(hl),d
                           2685 ;	genAssign (pointer)
                           2686 ;	AOP_STK for _SceneInit_b2_sloc5_1_0
   0876 2B                 2687 	dec	hl
   0877 5E                 2688 	ld	e,(hl)
   0878 23                 2689 	inc	hl
   0879 56                 2690 	ld	d,(hl)
   087A 3E 00              2691 	ld	a,#0x00
   087C 12                 2692 	ld	(de),a
                           2693 ;	src/Scene_b.c 185
                           2694 ;	genPlus
                           2695 ;	AOP_STK for _SceneInit_b2_scene_load_ptr_1_1
                           2696 ;	AOP_STK for _SceneInit_b2_sloc4_1_0
                           2697 ;	genPlusIncr
                           2698 ;	Can't optimise plus by inc, falling back to the normal way
   087D F8 0B              2699 	lda	hl,11(sp)
   087F 5E                 2700 	ld	e,(hl)
   0880 23                 2701 	inc	hl
   0881 56                 2702 	ld	d,(hl)
   0882 21 03 00           2703 	ld	hl,#0x0003
   0885 19                 2704 	add	hl,de
   0886 7D                 2705 	ld	a,l
   0887 54                 2706 	ld	d,h
   0888 F8 02              2707 	lda	hl,2(sp)
   088A 22                 2708 	ld	(hl+),a
   088B 72                 2709 	ld	(hl),d
                           2710 ;	genCast
                           2711 ;	AOP_STK for _SceneInit_b2_sloc4_1_0
                           2712 ;	AOP_STK for _SceneInit_b2_sloc2_1_0
   088C 2B                 2713 	dec	hl
   088D 7E                 2714 	ld	a,(hl)
   088E F8 05              2715 	lda	hl,5(sp)
   0890 32                 2716 	ld      (hl-),a
   0891 2B                 2717 	dec	hl
   0892 7E                 2718 	ld	a,(hl)
   0893 F8 06              2719 	lda	hl,6(sp)
   0895 77                 2720 	ld	(hl),a
                           2721 ;	genPointerGet
                           2722 ;	AOP_STK for _SceneInit_b2_sloc4_1_0
   0896 11 0B 00           2723 	ld	de,#_bank_ptr
   0899 1A                 2724 	ld	a,(de)
   089A F8 02              2725 	lda	hl,2(sp)
   089C 77                 2726 	ld	(hl),a
                           2727 ;	genIpush
                           2728 ; _saveRegsForCall: sendSetSize: 0 deInUse: 0 bcInUse: 1 deSending: 0
   089D C5                 2729 	push	bc
                           2730 ;	AOP_STK for _SceneInit_b2_sloc2_1_0
   089E F8 07              2731 	lda	hl,7(sp)
   08A0 2A                 2732 	ld	a,(hl+)
   08A1 66                 2733 	ld	h,(hl)
   08A2 6F                 2734 	ld	l,a
   08A3 E5                 2735 	push	hl
                           2736 ;	genIpush
                           2737 ;	AOP_STK for _SceneInit_b2_sloc4_1_0
   08A4 F8 06              2738 	lda	hl,6(sp)
   08A6 7E                 2739 	ld	a,(hl)
   08A7 F5                 2740 	push	af
   08A8 33                 2741 	inc	sp
                           2742 ;	genCall
   08A9 CD 00 00           2743 	call	_ReadBankedUBYTE
                           2744 ;	AOP_STK for _SceneInit_b2_sloc4_1_0
   08AC F8 07              2745 	lda	hl,7(sp)
   08AE 73                 2746 	ld	(hl),e
   08AF E8 03              2747 	lda	sp,3(sp)
   08B1 C1                 2748 	pop	bc
                           2749 ;	genAssign (pointer)
                           2750 ;	AOP_STK for _SceneInit_b2_sloc5_1_0
                           2751 ;	AOP_STK for _SceneInit_b2_sloc4_1_0
   08B2 F8 00              2752 	lda	hl,0(sp)
   08B4 5E                 2753 	ld	e,(hl)
   08B5 23                 2754 	inc	hl
   08B6 56                 2755 	ld	d,(hl)
   08B7 23                 2756 	inc	hl
   08B8 7E                 2757 	ld	a,(hl)
   08B9 12                 2758 	ld	(de),a
                           2759 ;	src/Scene_b.c 187
                           2760 ;	genPlus
                           2761 ;	AOP_STK for _SceneInit_b2_sloc5_1_0
                           2762 ;	genPlusIncr
                           2763 ;	Can't optimise plus by inc, falling back to the normal way
   08BA 21 06 00           2764 	ld	hl,#0x0006
   08BD 09                 2765 	add	hl,bc
   08BE 7D                 2766 	ld	a,l
   08BF 54                 2767 	ld	d,h
   08C0 F8 00              2768 	lda	hl,0(sp)
   08C2 22                 2769 	ld	(hl+),a
   08C3 72                 2770 	ld	(hl),d
                           2771 ;	genPlus
                           2772 ;	AOP_STK for _SceneInit_b2_scene_load_ptr_1_1
                           2773 ;	AOP_STK for _SceneInit_b2_sloc4_1_0
                           2774 ;	genPlusIncr
                           2775 ;	Can't optimise plus by inc, falling back to the normal way
   08C4 F8 0B              2776 	lda	hl,11(sp)
   08C6 5E                 2777 	ld	e,(hl)
   08C7 23                 2778 	inc	hl
   08C8 56                 2779 	ld	d,(hl)
   08C9 21 05 00           2780 	ld	hl,#0x0005
   08CC 19                 2781 	add	hl,de
   08CD 7D                 2782 	ld	a,l
   08CE 54                 2783 	ld	d,h
   08CF F8 02              2784 	lda	hl,2(sp)
   08D1 22                 2785 	ld	(hl+),a
   08D2 72                 2786 	ld	(hl),d
                           2787 ;	genCast
                           2788 ;	AOP_STK for _SceneInit_b2_sloc4_1_0
                           2789 ;	AOP_STK for _SceneInit_b2_sloc2_1_0
   08D3 2B                 2790 	dec	hl
   08D4 7E                 2791 	ld	a,(hl)
   08D5 F8 05              2792 	lda	hl,5(sp)
   08D7 32                 2793 	ld      (hl-),a
   08D8 2B                 2794 	dec	hl
   08D9 7E                 2795 	ld	a,(hl)
   08DA F8 06              2796 	lda	hl,6(sp)
   08DC 77                 2797 	ld	(hl),a
                           2798 ;	genPointerGet
                           2799 ;	AOP_STK for _SceneInit_b2_sloc4_1_0
   08DD 11 0B 00           2800 	ld	de,#_bank_ptr
   08E0 1A                 2801 	ld	a,(de)
   08E1 F8 02              2802 	lda	hl,2(sp)
   08E3 77                 2803 	ld	(hl),a
                           2804 ;	genIpush
                           2805 ; _saveRegsForCall: sendSetSize: 0 deInUse: 0 bcInUse: 1 deSending: 0
   08E4 C5                 2806 	push	bc
                           2807 ;	AOP_STK for _SceneInit_b2_sloc2_1_0
   08E5 F8 07              2808 	lda	hl,7(sp)
   08E7 2A                 2809 	ld	a,(hl+)
   08E8 66                 2810 	ld	h,(hl)
   08E9 6F                 2811 	ld	l,a
   08EA E5                 2812 	push	hl
                           2813 ;	genIpush
                           2814 ;	AOP_STK for _SceneInit_b2_sloc4_1_0
   08EB F8 06              2815 	lda	hl,6(sp)
   08ED 7E                 2816 	ld	a,(hl)
   08EE F5                 2817 	push	af
   08EF 33                 2818 	inc	sp
                           2819 ;	genCall
   08F0 CD 00 00           2820 	call	_ReadBankedUBYTE
                           2821 ;	AOP_STK for _SceneInit_b2_sloc4_1_0
   08F3 F8 07              2822 	lda	hl,7(sp)
   08F5 73                 2823 	ld	(hl),e
   08F6 E8 03              2824 	lda	sp,3(sp)
   08F8 C1                 2825 	pop	bc
                           2826 ;	genAssign (pointer)
                           2827 ;	AOP_STK for _SceneInit_b2_sloc5_1_0
                           2828 ;	AOP_STK for _SceneInit_b2_sloc4_1_0
   08F9 F8 00              2829 	lda	hl,0(sp)
   08FB 5E                 2830 	ld	e,(hl)
   08FC 23                 2831 	inc	hl
   08FD 56                 2832 	ld	d,(hl)
   08FE 23                 2833 	inc	hl
   08FF 7E                 2834 	ld	a,(hl)
   0900 12                 2835 	ld	(de),a
                           2836 ;	src/Scene_b.c 188
                           2837 ;	genPlus
                           2838 ;	genPlusIncr
                           2839 ;	Can't optimise plus by inc, falling back to the normal way
   0901 79                 2840 	ld	a,c
   0902 C6 07              2841 	add	a,#0x07
   0904 4F                 2842 	ld	c,a
   0905 78                 2843 	ld	a,b
   0906 CE 00              2844 	adc	a,#0x00
   0908 47                 2845 	ld	b,a
                           2846 ;	genPlus
                           2847 ;	AOP_STK for _SceneInit_b2_scene_load_ptr_1_1
                           2848 ;	AOP_STK for _SceneInit_b2_sloc5_1_0
                           2849 ;	genPlusIncr
                           2850 ;	Can't optimise plus by inc, falling back to the normal way
   0909 F8 0B              2851 	lda	hl,11(sp)
   090B 5E                 2852 	ld	e,(hl)
   090C 23                 2853 	inc	hl
   090D 56                 2854 	ld	d,(hl)
   090E 21 06 00           2855 	ld	hl,#0x0006
   0911 19                 2856 	add	hl,de
   0912 7D                 2857 	ld	a,l
   0913 54                 2858 	ld	d,h
   0914 F8 00              2859 	lda	hl,0(sp)
   0916 22                 2860 	ld	(hl+),a
   0917 72                 2861 	ld	(hl),d
                           2862 ;	genCast
                           2863 ;	AOP_STK for _SceneInit_b2_sloc5_1_0
                           2864 ;	AOP_STK for _SceneInit_b2_sloc4_1_0
   0918 2B                 2865 	dec	hl
   0919 2A                 2866 	ld	a,(hl+)
   091A 23                 2867 	inc	hl
   091B 32                 2868 	ld      (hl-),a
   091C 2A                 2869 	ld	a,(hl+)
   091D 23                 2870 	inc	hl
   091E 77                 2871 	ld	(hl),a
                           2872 ;	genPointerGet
                           2873 ;	AOP_STK for _SceneInit_b2_sloc5_1_0
   091F 11 0B 00           2874 	ld	de,#_bank_ptr
   0922 1A                 2875 	ld	a,(de)
   0923 F8 00              2876 	lda	hl,0(sp)
   0925 77                 2877 	ld	(hl),a
                           2878 ;	genIpush
                           2879 ; _saveRegsForCall: sendSetSize: 0 deInUse: 0 bcInUse: 1 deSending: 0
   0926 C5                 2880 	push	bc
                           2881 ;	AOP_STK for _SceneInit_b2_sloc4_1_0
   0927 23                 2882 	inc	hl
   0928 23                 2883 	inc	hl
   0929 2A                 2884 	ld	a,(hl+)
   092A 66                 2885 	ld	h,(hl)
   092B 6F                 2886 	ld	l,a
   092C E5                 2887 	push	hl
                           2888 ;	genIpush
                           2889 ;	AOP_STK for _SceneInit_b2_sloc5_1_0
   092D F8 04              2890 	lda	hl,4(sp)
   092F 7E                 2891 	ld	a,(hl)
   0930 F5                 2892 	push	af
   0931 33                 2893 	inc	sp
                           2894 ;	genCall
   0932 CD 00 00           2895 	call	_ReadBankedUBYTE
                           2896 ;	AOP_STK for _SceneInit_b2_sloc5_1_0
   0935 F8 05              2897 	lda	hl,5(sp)
   0937 73                 2898 	ld	(hl),e
   0938 E8 03              2899 	lda	sp,3(sp)
   093A C1                 2900 	pop	bc
                           2901 ;	genCast
                           2902 ;	AOP_STK for _SceneInit_b2_sloc5_1_0
                           2903 ;	AOP_STK for _SceneInit_b2_sloc4_1_0
   093B F8 00              2904 	lda	hl,0(sp)
   093D 2A                 2905 	ld	a,(hl+)
   093E 23                 2906 	inc	hl
   093F 22                 2907 	ld	(hl+),a
   0940 36 00              2908 	ld	(hl),#0x00
                           2909 ;	genLeftShift
                           2910 ;	AOP_STK for _SceneInit_b2_sloc4_1_0
                           2911 ;	AOP_STK for _SceneInit_b2_sloc5_1_0
   0942 2B                 2912 	dec	hl
   0943 7E                 2913 	ld	a,(hl)
   0944 2B                 2914 	dec	hl
   0945 32                 2915 	ld      (hl-),a
   0946 36 00              2916 	ld	(hl),#0x00
                           2917 ;	genPlus
                           2918 ;	AOP_STK for _SceneInit_b2_scene_load_ptr_1_1
                           2919 ;	AOP_STK for _SceneInit_b2_sloc4_1_0
                           2920 ;	genPlusIncr
                           2921 ;	Can't optimise plus by inc, falling back to the normal way
   0948 F8 0B              2922 	lda	hl,11(sp)
   094A 5E                 2923 	ld	e,(hl)
   094B 23                 2924 	inc	hl
   094C 56                 2925 	ld	d,(hl)
   094D 21 07 00           2926 	ld	hl,#0x0007
   0950 19                 2927 	add	hl,de
   0951 7D                 2928 	ld	a,l
   0952 54                 2929 	ld	d,h
   0953 F8 02              2930 	lda	hl,2(sp)
   0955 22                 2931 	ld	(hl+),a
   0956 72                 2932 	ld	(hl),d
                           2933 ;	genCast
                           2934 ;	AOP_STK for _SceneInit_b2_sloc4_1_0
                           2935 ;	AOP_STK for _SceneInit_b2_sloc2_1_0
   0957 2B                 2936 	dec	hl
   0958 7E                 2937 	ld	a,(hl)
   0959 F8 05              2938 	lda	hl,5(sp)
   095B 32                 2939 	ld      (hl-),a
   095C 2B                 2940 	dec	hl
   095D 7E                 2941 	ld	a,(hl)
   095E F8 06              2942 	lda	hl,6(sp)
   0960 77                 2943 	ld	(hl),a
                           2944 ;	genPointerGet
                           2945 ;	AOP_STK for _SceneInit_b2_sloc4_1_0
   0961 11 0B 00           2946 	ld	de,#_bank_ptr
   0964 1A                 2947 	ld	a,(de)
   0965 F8 02              2948 	lda	hl,2(sp)
   0967 77                 2949 	ld	(hl),a
                           2950 ;	genIpush
                           2951 ; _saveRegsForCall: sendSetSize: 0 deInUse: 0 bcInUse: 1 deSending: 0
   0968 C5                 2952 	push	bc
                           2953 ;	AOP_STK for _SceneInit_b2_sloc2_1_0
   0969 F8 07              2954 	lda	hl,7(sp)
   096B 2A                 2955 	ld	a,(hl+)
   096C 66                 2956 	ld	h,(hl)
   096D 6F                 2957 	ld	l,a
   096E E5                 2958 	push	hl
                           2959 ;	genIpush
                           2960 ;	AOP_STK for _SceneInit_b2_sloc4_1_0
   096F F8 06              2961 	lda	hl,6(sp)
   0971 7E                 2962 	ld	a,(hl)
   0972 F5                 2963 	push	af
   0973 33                 2964 	inc	sp
                           2965 ;	genCall
   0974 CD 00 00           2966 	call	_ReadBankedUBYTE
                           2967 ;	AOP_STK for _SceneInit_b2_sloc4_1_0
   0977 F8 07              2968 	lda	hl,7(sp)
   0979 73                 2969 	ld	(hl),e
   097A E8 03              2970 	lda	sp,3(sp)
   097C C1                 2971 	pop	bc
                           2972 ;	genCast
                           2973 ;	AOP_STK for _SceneInit_b2_sloc4_1_0
                           2974 ;	AOP_STK for _SceneInit_b2_sloc2_1_0
   097D F8 02              2975 	lda	hl,2(sp)
   097F 7E                 2976 	ld	a,(hl)
   0980 F8 05              2977 	lda	hl,5(sp)
   0982 22                 2978 	ld	(hl+),a
   0983 36 00              2979 	ld	(hl),#0x00
                           2980 ;	genPlus
                           2981 ;	AOP_STK for _SceneInit_b2_sloc5_1_0
                           2982 ;	AOP_STK for _SceneInit_b2_sloc2_1_0
                           2983 ;	AOP_STK for _SceneInit_b2_sloc4_1_0
                           2984 ;	Can't optimise plus by inc, falling back to the normal way
   0985 F8 00              2985 	lda	hl,0(sp)
   0987 5E                 2986 	ld	e,(hl)
   0988 23                 2987 	inc	hl
   0989 56                 2988 	ld	d,(hl)
   098A F8 05              2989 	lda	hl,5(sp)
   098C 2A                 2990 	ld	a,(hl+)
   098D 66                 2991 	ld	h,(hl)
   098E 6F                 2992 	ld	l,a
   098F 19                 2993 	add	hl,de
   0990 7D                 2994 	ld	a,l
   0991 54                 2995 	ld	d,h
   0992 F8 02              2996 	lda	hl,2(sp)
   0994 22                 2997 	ld	(hl+),a
   0995 72                 2998 	ld	(hl),d
                           2999 ;	genAssign (pointer)
                           3000 ;	AOP_STK for _SceneInit_b2_sloc4_1_0
   0996 59                 3001 	ld	e,c
   0997 50                 3002 	ld	d,b
   0998 2B                 3003 	dec	hl
   0999 7E                 3004 	ld	a,(hl)
   099A 12                 3005 	ld	(de),a
   099B 13                 3006 	inc	de
   099C 23                 3007 	inc	hl
   099D 7E                 3008 	ld	a,(hl)
   099E 12                 3009 	ld	(de),a
                           3010 ;	src/Scene_b.c 189
                           3011 ;	genPlus
                           3012 ;	AOP_STK for _SceneInit_b2_scene_load_ptr_1_1
                           3013 ;	genPlusIncr
                           3014 ;	Can't optimise plus by inc, falling back to the normal way
   099F F8 0B              3015 	lda	hl,11(sp)
   09A1 5E                 3016 	ld	e,(hl)
   09A2 23                 3017 	inc	hl
   09A3 56                 3018 	ld	d,(hl)
   09A4 21 08 00           3019 	ld	hl,#0x0008
   09A7 19                 3020 	add	hl,de
   09A8 7D                 3021 	ld	a,l
   09A9 54                 3022 	ld	d,h
   09AA F8 0B              3023 	lda	hl,11(sp)
   09AC 22                 3024 	ld	(hl+),a
   09AD 72                 3025 	ld	(hl),d
                           3026 ;	src/Scene_b.c 178
                           3027 ;	genPlus
                           3028 ;	AOP_STK for _SceneInit_b2_i_1_1
                           3029 ;	genPlusIncr
   09AE F8 0F              3030 	lda	hl,15(sp)
   09B0 34                 3031 	inc	(hl)
                           3032 ;	genGoto
   09B1 C3 8D 07           3033 	jp	00109$
                           3034 ;	genLabel
   09B4                    3035 00112$:
                           3036 ;	src/Scene_b.c 193
                           3037 ;	genCast
                           3038 ;	AOP_STK for _SceneInit_b2_scene_load_ptr_1_1
   09B4 F8 0B              3039 	lda	hl,11(sp)
   09B6 4E                 3040 	ld	c,(hl)
   09B7 23                 3041 	inc	hl
   09B8 46                 3042 	ld	b,(hl)
                           3043 ;	genPointerGet
                           3044 ;	AOP_STK for _SceneInit_b2_sloc5_1_0
   09B9 11 0B 00           3045 	ld	de,#_bank_ptr
   09BC 1A                 3046 	ld	a,(de)
   09BD F8 00              3047 	lda	hl,0(sp)
   09BF 77                 3048 	ld	(hl),a
                           3049 ;	genIpush
                           3050 ; _saveRegsForCall: sendSetSize: 0 deInUse: 0 bcInUse: 0 deSending: 0
   09C0 C5                 3051 	push	bc
                           3052 ;	genIpush
                           3053 ;	AOP_STK for _SceneInit_b2_sloc5_1_0
   09C1 7E                 3054 	ld	a,(hl)
   09C2 F5                 3055 	push	af
   09C3 33                 3056 	inc	sp
                           3057 ;	genCall
   09C4 CD 00 00           3058 	call	_ReadBankedUBYTE
                           3059 ;	AOP_HL for _collision_tiles_len
   09C7 21 06 00           3060 	ld	hl,#_collision_tiles_len
   09CA 73                 3061 	ld	(hl),e
   09CB E8 03              3062 	lda	sp,3(sp)
                           3063 ;	src/Scene_b.c 194
                           3064 ;	genPlus
                           3065 ;	AOP_STK for _SceneInit_b2_scene_load_ptr_1_1
                           3066 ;	AOP_HL for _scene_load_col_ptr
                           3067 ;	genPlusIncr
                           3068 ;	Can't optimise plus by inc, falling back to the normal way
   09CD F8 0B              3069 	lda	hl,11(sp)
   09CF 5E                 3070 	ld	e,(hl)
   09D0 23                 3071 	inc	hl
   09D1 56                 3072 	ld	d,(hl)
   09D2 21 01 00           3073 	ld	hl,#0x0001
   09D5 19                 3074 	add	hl,de
   09D6 7D                 3075 	ld	a,l
   09D7 54                 3076 	ld	d,h
   09D8 21 04 00           3077 	ld	hl,#_scene_load_col_ptr
   09DB 22                 3078 	ld	(hl+),a
   09DC 72                 3079 	ld	(hl),d
                           3080 ;	src/Scene_b.c 195
                           3081 ;	genPointerGet
                           3082 ;	AOP_HL for _col_bank
   09DD 11 0B 00           3083 	ld	de,#_bank_ptr
   09E0 1A                 3084 	ld	a,(de)
   09E1 21 07 00           3085 	ld	hl,#_col_bank
   09E4 77                 3086 	ld	(hl),a
                           3087 ;	genLabel
   09E5                    3088 00113$:
                           3089 ;	genEndFunction
   09E5 E8 17              3090 	lda	sp,23(sp)
   09E7 C9                 3091 	ret
   09E8                    3092 ___SceneInit_b2_end:
                           3093 ;	src/Scene_b.c 198
                           3094 ;	genLabel
                           3095 ;	genFunction
                           3096 ;	---------------------------------
                           3097 ; Function SceneInit_b3
                           3098 ; ---------------------------------
   09E8                    3099 ___SceneInit_b3_start:
   09E8                    3100 _SceneInit_b3:
   09E8 E8 FE              3101 	lda	sp,-2(sp)
                           3102 ;	src/Scene_b.c 201
                           3103 ;	genPlus
                           3104 ;	genPlusIncr
   09EA 21 09 00           3105 	ld	hl,#_actors + 9
                           3106 ;	genAssign (pointer)
   09ED 36 01              3107 	ld	(hl),#0x01
                           3108 ;	src/Scene_b.c 202
                           3109 ;	genPlus
                           3110 ;	genPlusIncr
   09EF 21 0C 00           3111 	ld	hl,#_actors + 12
                           3112 ;	genAssign (pointer)
   09F2 36 00              3113 	ld	(hl),#0x00
                           3114 ;	src/Scene_b.c 203
                           3115 ;	genPlus
                           3116 ;	genPlusIncr
   09F4 01 01 00           3117 	ld	bc,#_actors + 1
                           3118 ;	genPointerGet
   09F7 11 00 00           3119 	ld	de,#_map_next_pos
   09FA 1A                 3120 	ld	a,(de)
                           3121 ;	genAssign (pointer)
   09FB 02                 3122 	ld	(bc),a
                           3123 ;	src/Scene_b.c 204
                           3124 ;	genPlus
                           3125 ;	genPlusIncr
   09FC 01 02 00           3126 	ld	bc,#_actors + 2
                           3127 ;	genPlus
                           3128 ;	AOP_STK for _SceneInit_b3_sloc0_1_0
                           3129 ;	genPlusIncr
                           3130 ;	Can't optimise plus by inc, falling back to the normal way
   09FF 11 00 00           3131 	ld	de,#_map_next_pos
   0A02 21 01 00           3132 	ld	hl,#0x0001
   0A05 19                 3133 	add	hl,de
   0A06 7D                 3134 	ld	a,l
   0A07 54                 3135 	ld	d,h
   0A08 F8 00              3136 	lda	hl,0(sp)
                           3137 ;	genPointerGet
                           3138 ;	AOP_STK for _SceneInit_b3_sloc0_1_0
   0A0A 22                 3139 	ld	(hl+),a
   0A0B 72                 3140 	ld	(hl),d
   0A0C 5F                 3141 	ld	e,a
   0A0D 1A                 3142 	ld	a,(de)
                           3143 ;	genAssign (pointer)
   0A0E 02                 3144 	ld	(bc),a
                           3145 ;	src/Scene_b.c 205
                           3146 ;	genPlus
                           3147 ;	genPlusIncr
   0A0F 01 03 00           3148 	ld	bc,#_actors + 3
                           3149 ;	genPointerGet
   0A12 11 00 00           3150 	ld	de,#_map_next_dir
   0A15 1A                 3151 	ld	a,(de)
                           3152 ;	genAssign (pointer)
   0A16 02                 3153 	ld	(bc),a
                           3154 ;	src/Scene_b.c 206
                           3155 ;	genPlus
                           3156 ;	genPlusIncr
   0A17 01 04 00           3157 	ld	bc,#_actors + 4
                           3158 ;	genPlus
                           3159 ;	AOP_STK for _SceneInit_b3_sloc0_1_0
                           3160 ;	genPlusIncr
                           3161 ;	Can't optimise plus by inc, falling back to the normal way
   0A1A 11 00 00           3162 	ld	de,#_map_next_dir
   0A1D 21 01 00           3163 	ld	hl,#0x0001
   0A20 19                 3164 	add	hl,de
   0A21 7D                 3165 	ld	a,l
   0A22 54                 3166 	ld	d,h
   0A23 F8 00              3167 	lda	hl,0(sp)
                           3168 ;	genPointerGet
                           3169 ;	AOP_STK for _SceneInit_b3_sloc0_1_0
   0A25 22                 3170 	ld	(hl+),a
   0A26 72                 3171 	ld	(hl),d
   0A27 5F                 3172 	ld	e,a
   0A28 1A                 3173 	ld	a,(de)
                           3174 ;	genAssign (pointer)
   0A29 02                 3175 	ld	(bc),a
                           3176 ;	genLabel
   0A2A                    3177 00101$:
                           3178 ;	genEndFunction
   0A2A E8 02              3179 	lda	sp,2(sp)
   0A2C C9                 3180 	ret
   0A2D                    3181 ___SceneInit_b3_end:
                           3182 ;	src/Scene_b.c 209
                           3183 ;	genLabel
                           3184 ;	genFunction
                           3185 ;	---------------------------------
                           3186 ; Function SceneInit_b4
                           3187 ; ---------------------------------
   0A2D                    3188 ___SceneInit_b4_start:
   0A2D                    3189 _SceneInit_b4:
                           3190 	
                           3191 ;	src/Scene_b.c 212
                           3192 ;	genAssign
   0A2D 0E 01              3193 	ld	c,#0x01
                           3194 ;	genLabel
   0A2F                    3195 00101$:
                           3196 ;	genCmpEq
                           3197 ;	AOP_HL for _scene_num_actors
                           3198 ; genCmpEq: left 1, right 1, result 0
   0A2F 21 11 00           3199 	ld	hl,#_scene_num_actors
   0A32 7E                 3200 	ld	a,(hl)
   0A33 B9                 3201 	cp	c
   0A34 20 03              3202 	jr	nz,00109$
   0A36 C3 48 0A           3203 	jp	00105$
   0A39                    3204 00109$:
                           3205 ;	src/Scene_b.c 214
                           3206 ;	genIpush
                           3207 ; _saveRegsForCall: sendSetSize: 0 deInUse: 0 bcInUse: 1 deSending: 0
   0A39 C5                 3208 	push	bc
   0A3A 79                 3209 	ld	a,c
   0A3B F5                 3210 	push	af
   0A3C 33                 3211 	inc	sp
                           3212 ;	genCall
   0A3D CD 6F 24           3213 	call	_SceneRenderActor_b
   0A40 E8 01              3214 	lda	sp,1(sp)
   0A42 E1                 3215 	pop	hl
   0A43 4D                 3216 	ld	c,l
                           3217 ;	src/Scene_b.c 212
                           3218 ;	genPlus
                           3219 ;	genPlusIncr
                           3220 ; Removed redundent load
   0A44 0C                 3221 	inc	c
                           3222 ;	genGoto
   0A45 C3 2F 0A           3223 	jp	00101$
                           3224 ;	genLabel
   0A48                    3225 00105$:
                           3226 ;	genEndFunction
                           3227 	
   0A48 C9                 3228 	ret
   0A49                    3229 ___SceneInit_b4_end:
                           3230 ;	src/Scene_b.c 218
                           3231 ;	genLabel
                           3232 ;	genFunction
                           3233 ;	---------------------------------
                           3234 ; Function SceneInit_b5
                           3235 ; ---------------------------------
   0A49                    3236 ___SceneInit_b5_start:
   0A49                    3237 _SceneInit_b5:
   0A49 E8 F0              3238 	lda	sp,-16(sp)
                           3239 ;	src/Scene_b.c 225
                           3240 ;	genMult
                           3241 ;	AOP_HL for _map_next_sprite
   0A4B 21 00 00           3242 	ld	hl,#_map_next_sprite
   0A4E 5E                 3243 	ld	e,(hl)
   0A4F 16 00              3244 	ld	d,#0x00
   0A51 6B                 3245 	ld	l,e
   0A52 62                 3246 	ld	h,d
   0A53 29                 3247 	add	hl,hl
   0A54 19                 3248 	add	hl,de
   0A55 4D                 3249 	ld	c,l
   0A56 44                 3250 	ld	b,h
                           3251 ;	genPlus
                           3252 ;	Can't optimise plus by inc, falling back to the normal way
   0A57 21 00 00           3253 	ld	hl,#_sprite_bank_ptrs
   0A5A 09                 3254 	add	hl,bc
   0A5B 4D                 3255 	ld	c,l
   0A5C 44                 3256 	ld	b,h
                           3257 ;	genAddrOf
                           3258 ;	AOP_STK for _SceneInit_b5_sloc0_1_0
   0A5D F8 0D              3259 	lda	hl,13(sp)
   0A5F 7D                 3260 	ld	a,l
   0A60 54                 3261 	ld	d,h
   0A61 F8 07              3262 	lda	hl,7(sp)
   0A63 22                 3263 	ld	(hl+),a
   0A64 72                 3264 	ld	(hl),d
                           3265 ;	genIpush
                           3266 ; _saveRegsForCall: sendSetSize: 0 deInUse: 0 bcInUse: 0 deSending: 0
   0A65 C5                 3267 	push	bc
                           3268 ;	genIpush
                           3269 ;	AOP_STK for _SceneInit_b5_sloc0_1_0
   0A66 2B                 3270 	dec	hl
   0A67 2A                 3271 	ld	a,(hl+)
   0A68 66                 3272 	ld	h,(hl)
   0A69 6F                 3273 	ld	l,a
   0A6A E5                 3274 	push	hl
                           3275 ;	genIpush
   0A6B 3E 05              3276 	ld	a,#0x05
   0A6D F5                 3277 	push	af
   0A6E 33                 3278 	inc	sp
                           3279 ;	genCall
   0A6F CD 00 00           3280 	call	_ReadBankedBankPtr
   0A72 E8 05              3281 	lda	sp,5(sp)
                           3282 ;	src/Scene_b.c 226
                           3283 ;	genPointerGet
                           3284 ;	AOP_STK for _SceneInit_b5_sloc0_1_0
                           3285 ;	AOP_STK for _SceneInit_b5_sloc4_1_0
   0A74 F8 07              3286 	lda	hl,7(sp)
   0A76 5E                 3287 	ld	e,(hl)
   0A77 23                 3288 	inc	hl
   0A78 56                 3289 	ld	d,(hl)
   0A79 1A                 3290 	ld	a,(de)
   0A7A F8 00              3291 	lda	hl,0(sp)
                           3292 ;	genCast
                           3293 ;	AOP_STK for _SceneInit_b5_sloc4_1_0
                           3294 ;	AOP_STK for _SceneInit_b5_sloc1_1_0
   0A7C 77                 3295 	ld      (hl),a
                           3296 ; Removed redundent load
   0A7D F8 05              3297 	lda	hl,5(sp)
   0A7F 22                 3298 	ld	(hl+),a
   0A80 36 00              3299 	ld	(hl),#0x00
                           3300 ;	genLeftShift
                           3301 ;	AOP_STK for _SceneInit_b5_sloc1_1_0
                           3302 ;	AOP_STK for _SceneInit_b5_sloc2_1_0
   0A82 2B                 3303 	dec	hl
   0A83 7E                 3304 	ld	a,(hl)
   0A84 2B                 3305 	dec	hl
   0A85 2B                 3306 	dec	hl
   0A86 77                 3307 	ld	(hl),a
   0A87 F8 06              3308 	lda	hl,6(sp)
   0A89 7E                 3309 	ld	a,(hl)
   0A8A 2B                 3310 	dec	hl
   0A8B 2B                 3311 	dec	hl
   0A8C 32                 3312 	ld      (hl-),a
   0A8D CB 26              3313 	sla	(hl)
   0A8F 23                 3314 	inc	hl
   0A90 CB 16              3315 	rl	(hl)
                           3316 ;	genPlus
                           3317 ;	AOP_STK for _SceneInit_b5_sloc2_1_0
                           3318 ;	AOP_STK for _SceneInit_b5_sloc1_1_0
                           3319 ;	Can't optimise plus by inc, falling back to the normal way
   0A92 11 00 00           3320 	ld	de,#_bank_data_ptrs
   0A95 2B                 3321 	dec	hl
   0A96 2A                 3322 	ld	a,(hl+)
   0A97 66                 3323 	ld	h,(hl)
   0A98 6F                 3324 	ld	l,a
   0A99 19                 3325 	add	hl,de
   0A9A 7D                 3326 	ld	a,l
   0A9B 54                 3327 	ld	d,h
   0A9C F8 05              3328 	lda	hl,5(sp)
                           3329 ;	genPointerGet
                           3330 ;	AOP_STK for _SceneInit_b5_sloc1_1_0
                           3331 ;	AOP_STK for _SceneInit_b5_sloc2_1_0
   0A9E 22                 3332 	ld	(hl+),a
   0A9F 72                 3333 	ld	(hl),d
   0AA0 5F                 3334 	ld	e,a
   0AA1 1A                 3335 	ld	a,(de)
   0AA2 F8 03              3336 	lda	hl,3(sp)
   0AA4 77                 3337 	ld	(hl),a
   0AA5 13                 3338 	inc	de
   0AA6 1A                 3339 	ld	a,(de)
   0AA7 23                 3340 	inc	hl
                           3341 ;	genCast
                           3342 ;	AOP_STK for _SceneInit_b5_sloc2_1_0
                           3343 ;	AOP_STK for _SceneInit_b5_sloc1_1_0
   0AA8 32                 3344 	ld      (hl-),a
   0AA9 2A                 3345 	ld	a,(hl+)
   0AAA 23                 3346 	inc	hl
   0AAB 32                 3347 	ld      (hl-),a
   0AAC 2A                 3348 	ld	a,(hl+)
   0AAD 23                 3349 	inc	hl
                           3350 ;	genPlus
                           3351 ;	AOP_STK for _SceneInit_b5_sloc0_1_0
                           3352 ;	AOP_STK for _SceneInit_b5_sloc2_1_0
                           3353 ;	genPlusIncr
                           3354 ;	Can't optimise plus by inc, falling back to the normal way
   0AAE 22                 3355 	ld	(hl+),a
   0AAF 5E                 3356 	ld	e,(hl)
   0AB0 23                 3357 	inc	hl
   0AB1 56                 3358 	ld	d,(hl)
   0AB2 21 01 00           3359 	ld	hl,#0x0001
   0AB5 19                 3360 	add	hl,de
   0AB6 7D                 3361 	ld	a,l
   0AB7 54                 3362 	ld	d,h
   0AB8 F8 03              3363 	lda	hl,3(sp)
                           3364 ;	genPointerGet
                           3365 ;	AOP_STK for _SceneInit_b5_sloc2_1_0
                           3366 ;	AOP_STK for _SceneInit_b5_sloc3_1_0
   0ABA 22                 3367 	ld	(hl+),a
   0ABB 72                 3368 	ld	(hl),d
   0ABC 5F                 3369 	ld	e,a
   0ABD 1A                 3370 	ld	a,(de)
   0ABE F8 01              3371 	lda	hl,1(sp)
   0AC0 77                 3372 	ld	(hl),a
   0AC1 13                 3373 	inc	de
   0AC2 1A                 3374 	ld	a,(de)
   0AC3 23                 3375 	inc	hl
   0AC4 77                 3376 	ld	(hl),a
                           3377 ;	genPlus
                           3378 ;	AOP_STK for _SceneInit_b5_sloc1_1_0
                           3379 ;	AOP_STK for _SceneInit_b5_sloc3_1_0
                           3380 ;	AOP_STK for _SceneInit_b5_sprite_ptr_1_1
                           3381 ;	Can't optimise plus by inc, falling back to the normal way
   0AC5 F8 05              3382 	lda	hl,5(sp)
   0AC7 5E                 3383 	ld	e,(hl)
   0AC8 23                 3384 	inc	hl
   0AC9 56                 3385 	ld	d,(hl)
   0ACA F8 01              3386 	lda	hl,1(sp)
   0ACC 2A                 3387 	ld	a,(hl+)
   0ACD 66                 3388 	ld	h,(hl)
   0ACE 6F                 3389 	ld	l,a
   0ACF 19                 3390 	add	hl,de
   0AD0 7D                 3391 	ld	a,l
   0AD1 54                 3392 	ld	d,h
   0AD2 F8 0B              3393 	lda	hl,11(sp)
   0AD4 22                 3394 	ld	(hl+),a
   0AD5 72                 3395 	ld	(hl),d
                           3396 ;	genAssign
                           3397 ;	AOP_STK for _SceneInit_b5_sprite_ptr_1_1
                           3398 ;	(registers are the same)
                           3399 ;	src/Scene_b.c 227
                           3400 ;	genCast
                           3401 ;	AOP_STK for _SceneInit_b5_sprite_ptr_1_1
                           3402 ;	AOP_STK for _SceneInit_b5_sloc3_1_0
   0AD6 2B                 3403 	dec	hl
   0AD7 7E                 3404 	ld	a,(hl)
   0AD8 F8 01              3405 	lda	hl,1(sp)
   0ADA 77                 3406 	ld	(hl),a
   0ADB F8 0C              3407 	lda	hl,12(sp)
   0ADD 7E                 3408 	ld	a,(hl)
   0ADE F8 02              3409 	lda	hl,2(sp)
                           3410 ;	genIpush
                           3411 ; _saveRegsForCall: sendSetSize: 0 deInUse: 0 bcInUse: 0 deSending: 0
                           3412 ;	AOP_STK for _SceneInit_b5_sloc3_1_0
   0AE0 32                 3413 	ld      (hl-),a
   0AE1 2A                 3414 	ld	a,(hl+)
   0AE2 66                 3415 	ld	h,(hl)
   0AE3 6F                 3416 	ld	l,a
   0AE4 E5                 3417 	push	hl
                           3418 ;	genIpush
                           3419 ;	AOP_STK for _SceneInit_b5_sloc4_1_0
   0AE5 F8 02              3420 	lda	hl,2(sp)
   0AE7 7E                 3421 	ld	a,(hl)
   0AE8 F5                 3422 	push	af
   0AE9 33                 3423 	inc	sp
                           3424 ;	genCall
   0AEA CD 00 00           3425 	call	_ReadBankedUBYTE
                           3426 ;	AOP_STK for _SceneInit_b5_sprite_frames_1_1
   0AED F8 0D              3427 	lda	hl,13(sp)
   0AEF 73                 3428 	ld	(hl),e
   0AF0 E8 03              3429 	lda	sp,3(sp)
                           3430 ;	genAssign
                           3431 ;	AOP_STK for _SceneInit_b5_sprite_frames_1_1
                           3432 ;	(registers are the same)
                           3433 ;	src/Scene_b.c 228
                           3434 ;	genLeftShift
                           3435 ;	AOP_STK for _SceneInit_b5_sprite_frames_1_1
                           3436 ;	AOP_STK for _SceneInit_b5_sprite_len_1_1
   0AF2 F8 0A              3437 	lda	hl,10(sp)
   0AF4 7E                 3438 	ld	a,(hl)
   0AF5 87                 3439 	add	a,a
   0AF6 87                 3440 	add	a,a
   0AF7 2B                 3441 	dec	hl
                           3442 ;	src/Scene_b.c 229
                           3443 ;	genPlus
                           3444 ;	AOP_STK for _SceneInit_b5_sprite_ptr_1_1
                           3445 ;	genPlusIncr
                           3446 ;	Can't optimise plus by inc, falling back to the normal way
   0AF8 22                 3447 	ld	(hl+),a
   0AF9 23                 3448 	inc	hl
   0AFA 5E                 3449 	ld	e,(hl)
   0AFB 23                 3450 	inc	hl
   0AFC 56                 3451 	ld	d,(hl)
   0AFD 21 01 00           3452 	ld	hl,#0x0001
   0B00 19                 3453 	add	hl,de
   0B01 45                 3454 	ld	b,l
   0B02 4C                 3455 	ld	c,h
                           3456 ;	genCast
                           3457 ;	genPointerGet
                           3458 ;	AOP_STK for _SceneInit_b5_sloc0_1_0
                           3459 ;	AOP_STK for _SceneInit_b5_sloc4_1_0
   0B03 F8 07              3460 	lda	hl,7(sp)
   0B05 5E                 3461 	ld	e,(hl)
   0B06 23                 3462 	inc	hl
   0B07 56                 3463 	ld	d,(hl)
   0B08 1A                 3464 	ld	a,(de)
   0B09 F8 00              3465 	lda	hl,0(sp)
   0B0B 77                 3466 	ld	(hl),a
                           3467 ;	genIpush
                           3468 ; _saveRegsForCall: sendSetSize: 0 deInUse: 0 bcInUse: 0 deSending: 0
   0B0C 68                 3469 	ld	l,b
   0B0D 61                 3470 	ld	h,c
   0B0E E5                 3471 	push	hl
                           3472 ;	genIpush
                           3473 ;	AOP_STK for _SceneInit_b5_sprite_len_1_1
   0B0F F8 0B              3474 	lda	hl,11(sp)
   0B11 7E                 3475 	ld	a,(hl)
   0B12 F5                 3476 	push	af
   0B13 33                 3477 	inc	sp
                           3478 ;	genIpush
   0B14 3E 00              3479 	ld	a,#0x00
   0B16 F5                 3480 	push	af
   0B17 33                 3481 	inc	sp
                           3482 ;	genIpush
                           3483 ;	AOP_STK for _SceneInit_b5_sloc4_1_0
   0B18 F8 04              3484 	lda	hl,4(sp)
   0B1A 7E                 3485 	ld	a,(hl)
   0B1B F5                 3486 	push	af
   0B1C 33                 3487 	inc	sp
                           3488 ;	genCall
   0B1D CD 00 00           3489 	call	_SetBankedSpriteData
   0B20 E8 05              3490 	lda	sp,5(sp)
                           3491 ;	src/Scene_b.c 230
                           3492 ;	genAssign (pointer)
   0B22 11 00 00           3493 	ld	de,#_actors
   0B25 3E 00              3494 	ld	a,#0x00
   0B27 12                 3495 	ld	(de),a
                           3496 ;	src/Scene_b.c 231
                           3497 ;	genPlus
                           3498 ;	genPlusIncr
   0B28 21 06 00           3499 	ld	hl,#_actors + 6
                           3500 ;	genAssign (pointer)
   0B2B 36 00              3501 	ld	(hl),#0x00
                           3502 ;	src/Scene_b.c 232
                           3503 ;	genPlus
                           3504 ;	genPlusIncr
   0B2D 23                 3505 	inc	hl
   0B2E 23                 3506 	inc	hl
                           3507 ;	genAssign (pointer)
   0B2F 36 00              3508 	ld	(hl),#0x00
                           3509 ;	src/Scene_b.c 233
                           3510 ;	genPlus
                           3511 ;	genPlusIncr
   0B31 01 0F 00           3512 	ld	bc,#_actors + 15
                           3513 ;	genCmpEq
                           3514 ;	AOP_STK for _SceneInit_b5_sprite_frames_1_1
                           3515 ;	AOP_STK for _SceneInit_b5_sloc4_1_0
                           3516 ; genCmpEq: left 1, right 1, result 1
   0B34 F8 0A              3517 	lda	hl,10(sp)
   0B36 7E                 3518 	ld	a,(hl)
   0B37 FE 06              3519 	cp	a,#0x06
   0B39 C2 40 0B           3520 	jp	nz,00117$
   0B3C 3E 01              3521 	ld	a,#0x01
   0B3E 18 01              3522 	jr	00118$
   0B40                    3523 00117$:
   0B40 AF                 3524 	xor	a,a
   0B41                    3525 00118$:
   0B41 F8 00              3526 	lda	hl,0(sp)
   0B43 77                 3527 	ld	(hl),a
                           3528 ;	genIfx
                           3529 ;	AOP_STK for _SceneInit_b5_sloc4_1_0
   0B44 AF                 3530 	xor	a,a
   0B45 B6                 3531 	or	a,(hl)
   0B46 CA 4F 0B           3532 	jp	z,00103$
                           3533 ;	genAssign
                           3534 ;	AOP_STK for _SceneInit_b5_sloc3_1_0
   0B49 23                 3535 	inc	hl
   0B4A 36 02              3536 	ld	(hl),#0x02
                           3537 ;	genGoto
   0B4C C3 6D 0B           3538 	jp	00104$
                           3539 ;	genLabel
   0B4F                    3540 00103$:
                           3541 ;	genCmpEq
                           3542 ;	AOP_STK for _SceneInit_b5_sprite_frames_1_1
                           3543 ; genCmpEq: left 1, right 1, result 0
   0B4F F8 0A              3544 	lda	hl,10(sp)
   0B51 7E                 3545 	ld	a,(hl)
   0B52 FE 03              3546 	cp	a,#0x03
   0B54 C2 63 0B           3547 	jp	nz,00105$
   0B57 18 03              3548 	jr	00120$
   0B59                    3549 00119$:
   0B59 C3 63 0B           3550 	jp	00105$
   0B5C                    3551 00120$:
                           3552 ;	genAssign
                           3553 ;	AOP_STK for _SceneInit_b5_sloc2_1_0
   0B5C F8 03              3554 	lda	hl,3(sp)
   0B5E 36 01              3555 	ld	(hl),#0x01
                           3556 ;	genGoto
   0B60 C3 67 0B           3557 	jp	00106$
                           3558 ;	genLabel
   0B63                    3559 00105$:
                           3560 ;	genAssign
                           3561 ;	AOP_STK for _SceneInit_b5_sloc2_1_0
   0B63 F8 03              3562 	lda	hl,3(sp)
   0B65 36 00              3563 	ld	(hl),#0x00
                           3564 ;	genLabel
   0B67                    3565 00106$:
                           3566 ;	genAssign
                           3567 ;	AOP_STK for _SceneInit_b5_sloc2_1_0
                           3568 ;	AOP_STK for _SceneInit_b5_sloc3_1_0
   0B67 F8 03              3569 	lda	hl,3(sp)
   0B69 7E                 3570 	ld	a,(hl)
   0B6A 2B                 3571 	dec	hl
   0B6B 2B                 3572 	dec	hl
   0B6C 77                 3573 	ld	(hl),a
                           3574 ;	genLabel
   0B6D                    3575 00104$:
                           3576 ;	genAssign (pointer)
                           3577 ;	AOP_STK for _SceneInit_b5_sloc3_1_0
   0B6D F8 01              3578 	lda	hl,1(sp)
   0B6F 7E                 3579 	ld	a,(hl)
   0B70 02                 3580 	ld	(bc),a
                           3581 ;	src/Scene_b.c 234
                           3582 ;	genPlus
                           3583 ;	genPlusIncr
   0B71 01 07 00           3584 	ld	bc,#_actors + 7
                           3585 ;	genIfx
                           3586 ;	AOP_STK for _SceneInit_b5_sloc4_1_0
   0B74 AF                 3587 	xor	a,a
   0B75 2B                 3588 	dec	hl
   0B76 B6                 3589 	or	a,(hl)
   0B77 CA 7F 0B           3590 	jp	z,00107$
                           3591 ;	genAssign
                           3592 ;	AOP_STK for _SceneInit_b5_sloc4_1_0
   0B7A 36 02              3593 	ld	(hl),#0x02
                           3594 ;	genGoto
   0B7C C3 9E 0B           3595 	jp	00108$
                           3596 ;	genLabel
   0B7F                    3597 00107$:
                           3598 ;	genCmpEq
                           3599 ;	AOP_STK for _SceneInit_b5_sprite_frames_1_1
                           3600 ; genCmpEq: left 1, right 1, result 0
   0B7F F8 0A              3601 	lda	hl,10(sp)
   0B81 7E                 3602 	ld	a,(hl)
   0B82 FE 03              3603 	cp	a,#0x03
   0B84 C2 93 0B           3604 	jp	nz,00109$
   0B87 18 03              3605 	jr	00122$
   0B89                    3606 00121$:
   0B89 C3 93 0B           3607 	jp	00109$
   0B8C                    3608 00122$:
                           3609 ;	genAssign
                           3610 ;	AOP_STK for _SceneInit_b5_sloc3_1_0
   0B8C F8 01              3611 	lda	hl,1(sp)
   0B8E 36 01              3612 	ld	(hl),#0x01
                           3613 ;	genGoto
   0B90 C3 99 0B           3614 	jp	00110$
                           3615 ;	genLabel
   0B93                    3616 00109$:
                           3617 ;	genAssign
                           3618 ;	AOP_STK for _SceneInit_b5_sprite_frames_1_1
                           3619 ;	AOP_STK for _SceneInit_b5_sloc3_1_0
   0B93 F8 0A              3620 	lda	hl,10(sp)
   0B95 7E                 3621 	ld	a,(hl)
   0B96 F8 01              3622 	lda	hl,1(sp)
   0B98 77                 3623 	ld	(hl),a
                           3624 ;	genLabel
   0B99                    3625 00110$:
                           3626 ;	genAssign
                           3627 ;	AOP_STK for _SceneInit_b5_sloc3_1_0
                           3628 ;	AOP_STK for _SceneInit_b5_sloc4_1_0
   0B99 F8 01              3629 	lda	hl,1(sp)
   0B9B 7E                 3630 	ld	a,(hl)
   0B9C 2B                 3631 	dec	hl
   0B9D 77                 3632 	ld	(hl),a
                           3633 ;	genLabel
   0B9E                    3634 00108$:
                           3635 ;	genAssign (pointer)
                           3636 ;	AOP_STK for _SceneInit_b5_sloc4_1_0
   0B9E F8 00              3637 	lda	hl,0(sp)
   0BA0 7E                 3638 	ld	a,(hl)
   0BA1 02                 3639 	ld	(bc),a
                           3640 ;	src/Scene_b.c 235
                           3641 ;	genIpush
                           3642 ; _saveRegsForCall: sendSetSize: 0 deInUse: 0 bcInUse: 0 deSending: 0
   0BA2 3E 00              3643 	ld	a,#0x00
   0BA4 F5                 3644 	push	af
   0BA5 33                 3645 	inc	sp
                           3646 ;	genCall
   0BA6 CD 6F 24           3647 	call	_SceneRenderActor_b
   0BA9 E8 01              3648 	lda	sp,1(sp)
                           3649 ;	genLabel
   0BAB                    3650 00101$:
                           3651 ;	genEndFunction
   0BAB E8 10              3652 	lda	sp,16(sp)
   0BAD C9                 3653 	ret
   0BAE                    3654 ___SceneInit_b5_end:
                           3655 ;	src/Scene_b.c 238
                           3656 ;	genLabel
                           3657 ;	genFunction
                           3658 ;	---------------------------------
                           3659 ; Function SceneInit_b6
                           3660 ; ---------------------------------
   0BAE                    3661 ___SceneInit_b6_start:
   0BAE                    3662 _SceneInit_b6:
   0BAE E8 F2              3663 	lda	sp,-14(sp)
                           3664 ;	src/Scene_b.c 244
                           3665 ;	genMult
                           3666 ;	AOP_HL for _image_index
   0BB0 21 01 00           3667 	ld	hl,#_image_index
   0BB3 5E                 3668 	ld	e,(hl)
   0BB4 23                 3669 	inc	hl
   0BB5 56                 3670 	ld	d,(hl)
   0BB6 6B                 3671 	ld	l,e
   0BB7 62                 3672 	ld	h,d
   0BB8 29                 3673 	add	hl,hl
   0BB9 19                 3674 	add	hl,de
   0BBA 4D                 3675 	ld	c,l
   0BBB 44                 3676 	ld	b,h
                           3677 ;	genPlus
                           3678 ;	Can't optimise plus by inc, falling back to the normal way
   0BBC 21 00 00           3679 	ld	hl,#_background_bank_ptrs
   0BBF 09                 3680 	add	hl,bc
   0BC0 4D                 3681 	ld	c,l
   0BC1 44                 3682 	ld	b,h
                           3683 ;	genAddrOf
                           3684 ;	AOP_STK for _SceneInit_b6_sloc0_1_0
   0BC2 F8 0B              3685 	lda	hl,11(sp)
   0BC4 7D                 3686 	ld	a,l
   0BC5 54                 3687 	ld	d,h
   0BC6 F8 07              3688 	lda	hl,7(sp)
   0BC8 22                 3689 	ld	(hl+),a
   0BC9 72                 3690 	ld	(hl),d
                           3691 ;	genIpush
                           3692 ; _saveRegsForCall: sendSetSize: 0 deInUse: 0 bcInUse: 0 deSending: 0
   0BCA C5                 3693 	push	bc
                           3694 ;	genIpush
                           3695 ;	AOP_STK for _SceneInit_b6_sloc0_1_0
   0BCB 2B                 3696 	dec	hl
   0BCC 2A                 3697 	ld	a,(hl+)
   0BCD 66                 3698 	ld	h,(hl)
   0BCE 6F                 3699 	ld	l,a
   0BCF E5                 3700 	push	hl
                           3701 ;	genIpush
   0BD0 3E 05              3702 	ld	a,#0x05
   0BD2 F5                 3703 	push	af
   0BD3 33                 3704 	inc	sp
                           3705 ;	genCall
   0BD4 CD 00 00           3706 	call	_ReadBankedBankPtr
   0BD7 E8 05              3707 	lda	sp,5(sp)
                           3708 ;	src/Scene_b.c 245
                           3709 ;	genPointerGet
                           3710 ;	AOP_STK for _SceneInit_b6_sloc0_1_0
                           3711 ;	AOP_STK for _SceneInit_b6_sloc4_1_0
   0BD9 F8 07              3712 	lda	hl,7(sp)
   0BDB 5E                 3713 	ld	e,(hl)
   0BDC 23                 3714 	inc	hl
   0BDD 56                 3715 	ld	d,(hl)
   0BDE 1A                 3716 	ld	a,(de)
   0BDF F8 00              3717 	lda	hl,0(sp)
                           3718 ;	genCast
                           3719 ;	AOP_STK for _SceneInit_b6_sloc4_1_0
                           3720 ;	AOP_STK for _SceneInit_b6_sloc1_1_0
   0BE1 77                 3721 	ld      (hl),a
   0BE2 7F                 3722 	ld      a,a
   0BE3 F8 05              3723 	lda	hl,5(sp)
   0BE5 22                 3724 	ld	(hl+),a
   0BE6 36 00              3725 	ld	(hl),#0x00
                           3726 ;	genLeftShift
                           3727 ;	AOP_STK for _SceneInit_b6_sloc1_1_0
                           3728 ;	AOP_STK for _SceneInit_b6_sloc2_1_0
   0BE8 2B                 3729 	dec	hl
   0BE9 7E                 3730 	ld	a,(hl)
   0BEA 2B                 3731 	dec	hl
   0BEB 2B                 3732 	dec	hl
   0BEC 77                 3733 	ld	(hl),a
   0BED F8 06              3734 	lda	hl,6(sp)
   0BEF 7E                 3735 	ld	a,(hl)
   0BF0 2B                 3736 	dec	hl
   0BF1 2B                 3737 	dec	hl
   0BF2 32                 3738 	ld      (hl-),a
   0BF3 CB 26              3739 	sla	(hl)
   0BF5 23                 3740 	inc	hl
   0BF6 CB 16              3741 	rl	(hl)
                           3742 ;	genPlus
                           3743 ;	AOP_STK for _SceneInit_b6_sloc2_1_0
                           3744 ;	AOP_STK for _SceneInit_b6_sloc1_1_0
                           3745 ;	Can't optimise plus by inc, falling back to the normal way
   0BF8 11 00 00           3746 	ld	de,#_bank_data_ptrs
   0BFB 2B                 3747 	dec	hl
   0BFC 2A                 3748 	ld	a,(hl+)
   0BFD 66                 3749 	ld	h,(hl)
   0BFE 6F                 3750 	ld	l,a
   0BFF 19                 3751 	add	hl,de
   0C00 7D                 3752 	ld	a,l
   0C01 54                 3753 	ld	d,h
   0C02 F8 05              3754 	lda	hl,5(sp)
                           3755 ;	genPointerGet
                           3756 ;	AOP_STK for _SceneInit_b6_sloc1_1_0
                           3757 ;	AOP_STK for _SceneInit_b6_sloc2_1_0
   0C04 22                 3758 	ld	(hl+),a
   0C05 72                 3759 	ld	(hl),d
   0C06 5F                 3760 	ld	e,a
   0C07 1A                 3761 	ld	a,(de)
   0C08 F8 03              3762 	lda	hl,3(sp)
   0C0A 77                 3763 	ld	(hl),a
   0C0B 13                 3764 	inc	de
   0C0C 1A                 3765 	ld	a,(de)
   0C0D 23                 3766 	inc	hl
                           3767 ;	genCast
                           3768 ;	AOP_STK for _SceneInit_b6_sloc2_1_0
                           3769 ;	AOP_STK for _SceneInit_b6_sloc1_1_0
   0C0E 32                 3770 	ld      (hl-),a
   0C0F 2A                 3771 	ld	a,(hl+)
   0C10 23                 3772 	inc	hl
   0C11 32                 3773 	ld      (hl-),a
   0C12 2A                 3774 	ld	a,(hl+)
   0C13 23                 3775 	inc	hl
                           3776 ;	genPlus
                           3777 ;	AOP_STK for _SceneInit_b6_sloc0_1_0
                           3778 ;	AOP_STK for _SceneInit_b6_sloc2_1_0
                           3779 ;	genPlusIncr
                           3780 ;	Can't optimise plus by inc, falling back to the normal way
   0C14 22                 3781 	ld	(hl+),a
   0C15 5E                 3782 	ld	e,(hl)
   0C16 23                 3783 	inc	hl
   0C17 56                 3784 	ld	d,(hl)
   0C18 21 01 00           3785 	ld	hl,#0x0001
   0C1B 19                 3786 	add	hl,de
   0C1C 7D                 3787 	ld	a,l
   0C1D 54                 3788 	ld	d,h
   0C1E F8 03              3789 	lda	hl,3(sp)
                           3790 ;	genPointerGet
                           3791 ;	AOP_STK for _SceneInit_b6_sloc2_1_0
                           3792 ;	AOP_STK for _SceneInit_b6_sloc3_1_0
   0C20 22                 3793 	ld	(hl+),a
   0C21 72                 3794 	ld	(hl),d
   0C22 5F                 3795 	ld	e,a
   0C23 1A                 3796 	ld	a,(de)
   0C24 F8 01              3797 	lda	hl,1(sp)
   0C26 77                 3798 	ld	(hl),a
   0C27 13                 3799 	inc	de
   0C28 1A                 3800 	ld	a,(de)
   0C29 23                 3801 	inc	hl
   0C2A 77                 3802 	ld	(hl),a
                           3803 ;	genPlus
                           3804 ;	AOP_STK for _SceneInit_b6_sloc1_1_0
                           3805 ;	AOP_STK for _SceneInit_b6_sloc3_1_0
                           3806 ;	AOP_STK for _SceneInit_b6_background_ptr_1_1
                           3807 ;	Can't optimise plus by inc, falling back to the normal way
   0C2B F8 05              3808 	lda	hl,5(sp)
   0C2D 5E                 3809 	ld	e,(hl)
   0C2E 23                 3810 	inc	hl
   0C2F 56                 3811 	ld	d,(hl)
   0C30 F8 01              3812 	lda	hl,1(sp)
   0C32 2A                 3813 	ld	a,(hl+)
   0C33 66                 3814 	ld	h,(hl)
   0C34 6F                 3815 	ld	l,a
   0C35 19                 3816 	add	hl,de
   0C36 7D                 3817 	ld	a,l
   0C37 54                 3818 	ld	d,h
   0C38 F8 09              3819 	lda	hl,9(sp)
   0C3A 22                 3820 	ld	(hl+),a
   0C3B 72                 3821 	ld	(hl),d
                           3822 ;	genAssign
                           3823 ;	AOP_STK for _SceneInit_b6_background_ptr_1_1
                           3824 ;	(registers are the same)
                           3825 ;	src/Scene_b.c 246
                           3826 ;	genCast
                           3827 ;	AOP_STK for _SceneInit_b6_background_ptr_1_1
                           3828 ;	AOP_STK for _SceneInit_b6_sloc3_1_0
   0C3C 2B                 3829 	dec	hl
   0C3D 7E                 3830 	ld	a,(hl)
   0C3E F8 01              3831 	lda	hl,1(sp)
   0C40 77                 3832 	ld	(hl),a
   0C41 F8 0A              3833 	lda	hl,10(sp)
   0C43 7E                 3834 	ld	a,(hl)
   0C44 F8 02              3835 	lda	hl,2(sp)
                           3836 ;	genIpush
                           3837 ; _saveRegsForCall: sendSetSize: 0 deInUse: 0 bcInUse: 0 deSending: 0
                           3838 ;	AOP_STK for _SceneInit_b6_sloc3_1_0
   0C46 32                 3839 	ld      (hl-),a
   0C47 2A                 3840 	ld	a,(hl+)
   0C48 66                 3841 	ld	h,(hl)
   0C49 6F                 3842 	ld	l,a
   0C4A E5                 3843 	push	hl
                           3844 ;	genIpush
                           3845 ;	AOP_STK for _SceneInit_b6_sloc4_1_0
   0C4B F8 02              3846 	lda	hl,2(sp)
   0C4D 7E                 3847 	ld	a,(hl)
   0C4E F5                 3848 	push	af
   0C4F 33                 3849 	inc	sp
                           3850 ;	genCall
   0C50 CD 00 00           3851 	call	_ReadBankedUBYTE
                           3852 ;	AOP_HL for _tileset_index
   0C53 21 03 00           3853 	ld	hl,#_tileset_index
   0C56 73                 3854 	ld	(hl),e
   0C57 E8 03              3855 	lda	sp,3(sp)
                           3856 ;	src/Scene_b.c 247
                           3857 ;	genPlus
                           3858 ;	AOP_STK for _SceneInit_b6_background_ptr_1_1
                           3859 ;	AOP_STK for _SceneInit_b6_sloc3_1_0
                           3860 ;	genPlusIncr
                           3861 ;	Can't optimise plus by inc, falling back to the normal way
   0C59 F8 09              3862 	lda	hl,9(sp)
   0C5B 5E                 3863 	ld	e,(hl)
   0C5C 23                 3864 	inc	hl
   0C5D 56                 3865 	ld	d,(hl)
   0C5E 21 01 00           3866 	ld	hl,#0x0001
   0C61 19                 3867 	add	hl,de
   0C62 7D                 3868 	ld	a,l
   0C63 54                 3869 	ld	d,h
   0C64 F8 01              3870 	lda	hl,1(sp)
   0C66 22                 3871 	ld	(hl+),a
   0C67 72                 3872 	ld	(hl),d
                           3873 ;	genCast
                           3874 ;	AOP_STK for _SceneInit_b6_sloc3_1_0
   0C68 2B                 3875 	dec	hl
   0C69 4E                 3876 	ld	c,(hl)
   0C6A 23                 3877 	inc	hl
   0C6B 46                 3878 	ld	b,(hl)
                           3879 ;	genPointerGet
                           3880 ;	AOP_STK for _SceneInit_b6_sloc0_1_0
                           3881 ;	AOP_STK for _SceneInit_b6_sloc4_1_0
   0C6C F8 07              3882 	lda	hl,7(sp)
   0C6E 5E                 3883 	ld	e,(hl)
   0C6F 23                 3884 	inc	hl
   0C70 56                 3885 	ld	d,(hl)
   0C71 1A                 3886 	ld	a,(de)
   0C72 F8 00              3887 	lda	hl,0(sp)
   0C74 77                 3888 	ld	(hl),a
                           3889 ;	genIpush
                           3890 ; _saveRegsForCall: sendSetSize: 0 deInUse: 0 bcInUse: 0 deSending: 0
   0C75 C5                 3891 	push	bc
                           3892 ;	genIpush
                           3893 ;	AOP_STK for _SceneInit_b6_sloc4_1_0
   0C76 7E                 3894 	ld	a,(hl)
   0C77 F5                 3895 	push	af
   0C78 33                 3896 	inc	sp
                           3897 ;	genCall
   0C79 CD 00 00           3898 	call	_ReadBankedUBYTE
                           3899 ;	AOP_HL for _scene_width
   0C7C 21 00 00           3900 	ld	hl,#_scene_width
   0C7F 73                 3901 	ld	(hl),e
   0C80 E8 03              3902 	lda	sp,3(sp)
                           3903 ;	src/Scene_b.c 248
                           3904 ;	genPlus
                           3905 ;	AOP_STK for _SceneInit_b6_background_ptr_1_1
                           3906 ;	genPlusIncr
   0C82 F8 09              3907 	lda	hl,9(sp)
   0C84 4E                 3908 	ld	c,(hl)
   0C85 23                 3909 	inc	hl
   0C86 46                 3910 	ld	b,(hl)
   0C87 03                 3911 	inc	bc
   0C88 03                 3912 	inc	bc
                           3913 ;	genCast
                           3914 ;	genPointerGet
                           3915 ;	AOP_STK for _SceneInit_b6_sloc0_1_0
                           3916 ;	AOP_STK for _SceneInit_b6_sloc4_1_0
   0C89 F8 07              3917 	lda	hl,7(sp)
   0C8B 5E                 3918 	ld	e,(hl)
   0C8C 23                 3919 	inc	hl
   0C8D 56                 3920 	ld	d,(hl)
   0C8E 1A                 3921 	ld	a,(de)
   0C8F F8 00              3922 	lda	hl,0(sp)
   0C91 77                 3923 	ld	(hl),a
                           3924 ;	genIpush
                           3925 ; _saveRegsForCall: sendSetSize: 0 deInUse: 0 bcInUse: 0 deSending: 0
   0C92 C5                 3926 	push	bc
                           3927 ;	genIpush
                           3928 ;	AOP_STK for _SceneInit_b6_sloc4_1_0
   0C93 7E                 3929 	ld	a,(hl)
   0C94 F5                 3930 	push	af
   0C95 33                 3931 	inc	sp
                           3932 ;	genCall
   0C96 CD 00 00           3933 	call	_ReadBankedUBYTE
                           3934 ;	AOP_HL for _scene_height
   0C99 21 00 00           3935 	ld	hl,#_scene_height
   0C9C 73                 3936 	ld	(hl),e
   0C9D E8 03              3937 	lda	sp,3(sp)
                           3938 ;	src/Scene_b.c 249
                           3939 ;	genPlus
                           3940 ;	AOP_STK for _SceneInit_b6_background_ptr_1_1
                           3941 ;	genPlusIncr
                           3942 ;	Can't optimise plus by inc, falling back to the normal way
   0C9F F8 09              3943 	lda	hl,9(sp)
   0CA1 5E                 3944 	ld	e,(hl)
   0CA2 23                 3945 	inc	hl
   0CA3 56                 3946 	ld	d,(hl)
   0CA4 21 03 00           3947 	ld	hl,#0x0003
   0CA7 19                 3948 	add	hl,de
   0CA8 4D                 3949 	ld	c,l
   0CA9 44                 3950 	ld	b,h
                           3951 ;	genCast
                           3952 ;	genPointerGet
                           3953 ;	AOP_STK for _SceneInit_b6_sloc0_1_0
                           3954 ;	AOP_STK for _SceneInit_b6_sloc4_1_0
   0CAA F8 07              3955 	lda	hl,7(sp)
   0CAC 5E                 3956 	ld	e,(hl)
   0CAD 23                 3957 	inc	hl
   0CAE 56                 3958 	ld	d,(hl)
   0CAF 1A                 3959 	ld	a,(de)
   0CB0 F8 00              3960 	lda	hl,0(sp)
   0CB2 77                 3961 	ld	(hl),a
                           3962 ;	genIpush
                           3963 ; _saveRegsForCall: sendSetSize: 0 deInUse: 0 bcInUse: 0 deSending: 0
   0CB3 C5                 3964 	push	bc
                           3965 ;	genIpush
                           3966 ;	AOP_HL for _scene_height
   0CB4 21 00 00           3967 	ld	hl,#_scene_height
   0CB7 7E                 3968 	ld	a,(hl)
   0CB8 F5                 3969 	push	af
   0CB9 33                 3970 	inc	sp
                           3971 ;	genIpush
                           3972 ;	AOP_HL for _scene_width
   0CBA 21 00 00           3973 	ld	hl,#_scene_width
   0CBD 7E                 3974 	ld	a,(hl)
   0CBE F5                 3975 	push	af
   0CBF 33                 3976 	inc	sp
                           3977 ;	genIpush
   0CC0 21 00 00           3978 	ld	hl,#0x0000
   0CC3 E5                 3979 	push	hl
                           3980 ;	genIpush
                           3981 ;	AOP_STK for _SceneInit_b6_sloc4_1_0
   0CC4 F8 06              3982 	lda	hl,6(sp)
   0CC6 7E                 3983 	ld	a,(hl)
   0CC7 F5                 3984 	push	af
   0CC8 33                 3985 	inc	sp
                           3986 ;	genCall
   0CC9 CD 00 00           3987 	call	_SetBankedBkgTiles
   0CCC E8 07              3988 	lda	sp,7(sp)
                           3989 ;	genLabel
   0CCE                    3990 00101$:
                           3991 ;	genEndFunction
   0CCE E8 0E              3992 	lda	sp,14(sp)
   0CD0 C9                 3993 	ret
   0CD1                    3994 ___SceneInit_b6_end:
                           3995 ;	src/Scene_b.c 252
                           3996 ;	genLabel
                           3997 ;	genFunction
                           3998 ;	---------------------------------
                           3999 ; Function SceneInit_b7
                           4000 ; ---------------------------------
   0CD1                    4001 ___SceneInit_b7_start:
   0CD1                    4002 _SceneInit_b7:
   0CD1 E8 F1              4003 	lda	sp,-15(sp)
                           4004 ;	src/Scene_b.c 258
                           4005 ;	genMult
                           4006 ;	AOP_HL for _tileset_index
   0CD3 21 03 00           4007 	ld	hl,#_tileset_index
   0CD6 5E                 4008 	ld	e,(hl)
   0CD7 16 00              4009 	ld	d,#0x00
   0CD9 6B                 4010 	ld	l,e
   0CDA 62                 4011 	ld	h,d
   0CDB 29                 4012 	add	hl,hl
   0CDC 19                 4013 	add	hl,de
   0CDD 4D                 4014 	ld	c,l
   0CDE 44                 4015 	ld	b,h
                           4016 ;	genPlus
                           4017 ;	Can't optimise plus by inc, falling back to the normal way
   0CDF 21 00 00           4018 	ld	hl,#_tileset_bank_ptrs
   0CE2 09                 4019 	add	hl,bc
   0CE3 4D                 4020 	ld	c,l
   0CE4 44                 4021 	ld	b,h
                           4022 ;	genAddrOf
                           4023 ;	AOP_STK for _SceneInit_b7_sloc0_1_0
   0CE5 F8 0C              4024 	lda	hl,12(sp)
   0CE7 7D                 4025 	ld	a,l
   0CE8 54                 4026 	ld	d,h
   0CE9 F8 07              4027 	lda	hl,7(sp)
   0CEB 22                 4028 	ld	(hl+),a
   0CEC 72                 4029 	ld	(hl),d
                           4030 ;	genIpush
                           4031 ; _saveRegsForCall: sendSetSize: 0 deInUse: 0 bcInUse: 0 deSending: 0
   0CED C5                 4032 	push	bc
                           4033 ;	genIpush
                           4034 ;	AOP_STK for _SceneInit_b7_sloc0_1_0
   0CEE 2B                 4035 	dec	hl
   0CEF 2A                 4036 	ld	a,(hl+)
   0CF0 66                 4037 	ld	h,(hl)
   0CF1 6F                 4038 	ld	l,a
   0CF2 E5                 4039 	push	hl
                           4040 ;	genIpush
   0CF3 3E 05              4041 	ld	a,#0x05
   0CF5 F5                 4042 	push	af
   0CF6 33                 4043 	inc	sp
                           4044 ;	genCall
   0CF7 CD 00 00           4045 	call	_ReadBankedBankPtr
   0CFA E8 05              4046 	lda	sp,5(sp)
                           4047 ;	src/Scene_b.c 259
                           4048 ;	genPointerGet
                           4049 ;	AOP_STK for _SceneInit_b7_sloc0_1_0
                           4050 ;	AOP_STK for _SceneInit_b7_sloc4_1_0
   0CFC F8 07              4051 	lda	hl,7(sp)
   0CFE 5E                 4052 	ld	e,(hl)
   0CFF 23                 4053 	inc	hl
   0D00 56                 4054 	ld	d,(hl)
   0D01 1A                 4055 	ld	a,(de)
   0D02 F8 00              4056 	lda	hl,0(sp)
                           4057 ;	genCast
                           4058 ;	AOP_STK for _SceneInit_b7_sloc4_1_0
                           4059 ;	AOP_STK for _SceneInit_b7_sloc1_1_0
   0D04 77                 4060 	ld      (hl),a
   0D05 7F                 4061 	ld      a,a
   0D06 F8 05              4062 	lda	hl,5(sp)
   0D08 22                 4063 	ld	(hl+),a
   0D09 36 00              4064 	ld	(hl),#0x00
                           4065 ;	genLeftShift
                           4066 ;	AOP_STK for _SceneInit_b7_sloc1_1_0
                           4067 ;	AOP_STK for _SceneInit_b7_sloc2_1_0
   0D0B 2B                 4068 	dec	hl
   0D0C 7E                 4069 	ld	a,(hl)
   0D0D 2B                 4070 	dec	hl
   0D0E 2B                 4071 	dec	hl
   0D0F 77                 4072 	ld	(hl),a
   0D10 F8 06              4073 	lda	hl,6(sp)
   0D12 7E                 4074 	ld	a,(hl)
   0D13 2B                 4075 	dec	hl
   0D14 2B                 4076 	dec	hl
   0D15 32                 4077 	ld      (hl-),a
   0D16 CB 26              4078 	sla	(hl)
   0D18 23                 4079 	inc	hl
   0D19 CB 16              4080 	rl	(hl)
                           4081 ;	genPlus
                           4082 ;	AOP_STK for _SceneInit_b7_sloc2_1_0
                           4083 ;	AOP_STK for _SceneInit_b7_sloc1_1_0
                           4084 ;	Can't optimise plus by inc, falling back to the normal way
   0D1B 11 00 00           4085 	ld	de,#_bank_data_ptrs
   0D1E 2B                 4086 	dec	hl
   0D1F 2A                 4087 	ld	a,(hl+)
   0D20 66                 4088 	ld	h,(hl)
   0D21 6F                 4089 	ld	l,a
   0D22 19                 4090 	add	hl,de
   0D23 7D                 4091 	ld	a,l
   0D24 54                 4092 	ld	d,h
   0D25 F8 05              4093 	lda	hl,5(sp)
                           4094 ;	genPointerGet
                           4095 ;	AOP_STK for _SceneInit_b7_sloc1_1_0
                           4096 ;	AOP_STK for _SceneInit_b7_sloc2_1_0
   0D27 22                 4097 	ld	(hl+),a
   0D28 72                 4098 	ld	(hl),d
   0D29 5F                 4099 	ld	e,a
   0D2A 1A                 4100 	ld	a,(de)
   0D2B F8 03              4101 	lda	hl,3(sp)
   0D2D 77                 4102 	ld	(hl),a
   0D2E 13                 4103 	inc	de
   0D2F 1A                 4104 	ld	a,(de)
   0D30 23                 4105 	inc	hl
                           4106 ;	genCast
                           4107 ;	AOP_STK for _SceneInit_b7_sloc2_1_0
                           4108 ;	AOP_STK for _SceneInit_b7_sloc1_1_0
   0D31 32                 4109 	ld      (hl-),a
   0D32 2A                 4110 	ld	a,(hl+)
   0D33 23                 4111 	inc	hl
   0D34 32                 4112 	ld      (hl-),a
   0D35 2A                 4113 	ld	a,(hl+)
   0D36 23                 4114 	inc	hl
                           4115 ;	genPlus
                           4116 ;	AOP_STK for _SceneInit_b7_sloc0_1_0
                           4117 ;	AOP_STK for _SceneInit_b7_sloc2_1_0
                           4118 ;	genPlusIncr
                           4119 ;	Can't optimise plus by inc, falling back to the normal way
   0D37 22                 4120 	ld	(hl+),a
   0D38 5E                 4121 	ld	e,(hl)
   0D39 23                 4122 	inc	hl
   0D3A 56                 4123 	ld	d,(hl)
   0D3B 21 01 00           4124 	ld	hl,#0x0001
   0D3E 19                 4125 	add	hl,de
   0D3F 7D                 4126 	ld	a,l
   0D40 54                 4127 	ld	d,h
   0D41 F8 03              4128 	lda	hl,3(sp)
                           4129 ;	genPointerGet
                           4130 ;	AOP_STK for _SceneInit_b7_sloc2_1_0
                           4131 ;	AOP_STK for _SceneInit_b7_sloc3_1_0
   0D43 22                 4132 	ld	(hl+),a
   0D44 72                 4133 	ld	(hl),d
   0D45 5F                 4134 	ld	e,a
   0D46 1A                 4135 	ld	a,(de)
   0D47 F8 01              4136 	lda	hl,1(sp)
   0D49 77                 4137 	ld	(hl),a
   0D4A 13                 4138 	inc	de
   0D4B 1A                 4139 	ld	a,(de)
   0D4C 23                 4140 	inc	hl
   0D4D 77                 4141 	ld	(hl),a
                           4142 ;	genPlus
                           4143 ;	AOP_STK for _SceneInit_b7_sloc1_1_0
                           4144 ;	AOP_STK for _SceneInit_b7_sloc3_1_0
                           4145 ;	AOP_STK for _SceneInit_b7_tileset_ptr_1_1
                           4146 ;	Can't optimise plus by inc, falling back to the normal way
   0D4E F8 05              4147 	lda	hl,5(sp)
   0D50 5E                 4148 	ld	e,(hl)
   0D51 23                 4149 	inc	hl
   0D52 56                 4150 	ld	d,(hl)
   0D53 F8 01              4151 	lda	hl,1(sp)
   0D55 2A                 4152 	ld	a,(hl+)
   0D56 66                 4153 	ld	h,(hl)
   0D57 6F                 4154 	ld	l,a
   0D58 19                 4155 	add	hl,de
   0D59 7D                 4156 	ld	a,l
   0D5A 54                 4157 	ld	d,h
   0D5B F8 0A              4158 	lda	hl,10(sp)
   0D5D 22                 4159 	ld	(hl+),a
   0D5E 72                 4160 	ld	(hl),d
                           4161 ;	genAssign
                           4162 ;	AOP_STK for _SceneInit_b7_tileset_ptr_1_1
   0D5F 2B                 4163 	dec	hl
   0D60 46                 4164 	ld	b,(hl)
   0D61 23                 4165 	inc	hl
   0D62 4E                 4166 	ld	c,(hl)
                           4167 ;	src/Scene_b.c 260
                           4168 ;	genCast
                           4169 ;	AOP_STK for _SceneInit_b7_sloc3_1_0
   0D63 F8 01              4170 	lda	hl,1(sp)
   0D65 70                 4171 	ld	(hl),b
   0D66 23                 4172 	inc	hl
   0D67 71                 4173 	ld	(hl),c
                           4174 ;	genIpush
                           4175 ; _saveRegsForCall: sendSetSize: 0 deInUse: 0 bcInUse: 1 deSending: 0
   0D68 C5                 4176 	push	bc
                           4177 ;	AOP_STK for _SceneInit_b7_sloc3_1_0
   0D69 2B                 4178 	dec	hl
   0D6A 2A                 4179 	ld	a,(hl+)
   0D6B 66                 4180 	ld	h,(hl)
   0D6C 6F                 4181 	ld	l,a
   0D6D E5                 4182 	push	hl
                           4183 ;	genIpush
                           4184 ;	AOP_STK for _SceneInit_b7_sloc4_1_0
   0D6E F8 04              4185 	lda	hl,4(sp)
   0D70 7E                 4186 	ld	a,(hl)
   0D71 F5                 4187 	push	af
   0D72 33                 4188 	inc	sp
                           4189 ;	genCall
   0D73 CD 00 00           4190 	call	_ReadBankedUBYTE
                           4191 ;	AOP_STK for _SceneInit_b7_tileset_size_1_1
   0D76 F8 0E              4192 	lda	hl,14(sp)
   0D78 73                 4193 	ld	(hl),e
   0D79 E8 03              4194 	lda	sp,3(sp)
   0D7B C1                 4195 	pop	bc
                           4196 ;	genAssign
                           4197 ;	AOP_STK for _SceneInit_b7_tileset_size_1_1
                           4198 ;	(registers are the same)
                           4199 ;	src/Scene_b.c 261
                           4200 ;	genPlus
                           4201 ;	genPlusIncr
   0D7C 04                 4202 	inc	b
   0D7D 20 01              4203 	jr	nz,00105$
   0D7F 0C                 4204 	inc	c
   0D80                    4205 00105$:
                           4206 ;	genCast
                           4207 ;	genPointerGet
                           4208 ;	AOP_STK for _SceneInit_b7_sloc0_1_0
                           4209 ;	AOP_STK for _SceneInit_b7_sloc4_1_0
   0D80 F8 07              4210 	lda	hl,7(sp)
   0D82 5E                 4211 	ld	e,(hl)
   0D83 23                 4212 	inc	hl
   0D84 56                 4213 	ld	d,(hl)
   0D85 1A                 4214 	ld	a,(de)
   0D86 F8 00              4215 	lda	hl,0(sp)
   0D88 77                 4216 	ld	(hl),a
                           4217 ;	genIpush
                           4218 ; _saveRegsForCall: sendSetSize: 0 deInUse: 0 bcInUse: 0 deSending: 0
   0D89 68                 4219 	ld	l,b
   0D8A 61                 4220 	ld	h,c
   0D8B E5                 4221 	push	hl
                           4222 ;	genIpush
                           4223 ;	AOP_STK for _SceneInit_b7_tileset_size_1_1
   0D8C F8 0B              4224 	lda	hl,11(sp)
   0D8E 7E                 4225 	ld	a,(hl)
   0D8F F5                 4226 	push	af
   0D90 33                 4227 	inc	sp
                           4228 ;	genIpush
   0D91 3E 00              4229 	ld	a,#0x00
   0D93 F5                 4230 	push	af
   0D94 33                 4231 	inc	sp
                           4232 ;	genIpush
                           4233 ;	AOP_STK for _SceneInit_b7_sloc4_1_0
   0D95 F8 04              4234 	lda	hl,4(sp)
   0D97 7E                 4235 	ld	a,(hl)
   0D98 F5                 4236 	push	af
   0D99 33                 4237 	inc	sp
                           4238 ;	genCall
   0D9A CD 00 00           4239 	call	_SetBankedBkgData
   0D9D E8 05              4240 	lda	sp,5(sp)
                           4241 ;	genLabel
   0D9F                    4242 00101$:
                           4243 ;	genEndFunction
   0D9F E8 0F              4244 	lda	sp,15(sp)
   0DA1 C9                 4245 	ret
   0DA2                    4246 ___SceneInit_b7_end:
                           4247 ;	src/Scene_b.c 264
                           4248 ;	genLabel
                           4249 ;	genFunction
                           4250 ;	---------------------------------
                           4251 ; Function SceneInit_b8
                           4252 ; ---------------------------------
   0DA2                    4253 ___SceneInit_b8_start:
   0DA2                    4254 _SceneInit_b8:
   0DA2 E8 FD              4255 	lda	sp,-3(sp)
                           4256 ;	src/Scene_b.c 269
                           4257 ;	genAssign
                           4258 ;	AOP_STK for _SceneInit_b8_i_1_1
   0DA4 F8 02              4259 	lda	hl,2(sp)
   0DA6 36 00              4260 	ld	(hl),#0x00
                           4261 ;	genLabel
   0DA8                    4262 00101$:
                           4263 ;	genCmpEq
                           4264 ;	AOP_STK for _SceneInit_b8_i_1_1
                           4265 ;	AOP_HL for _collision_tiles_len
                           4266 ; genCmpEq: left 1, right 1, result 0
   0DA8 21 06 00           4267 	ld	hl,#_collision_tiles_len
   0DAB 7E                 4268 	ld	a,(hl)
   0DAC F8 02              4269 	lda	hl,2(sp)
   0DAE BE                 4270 	cp	(hl)
   0DAF 20 03              4271 	jr	nz,00109$
   0DB1 C3 ED 0D           4272 	jp	00105$
   0DB4                    4273 00109$:
                           4274 ;	src/Scene_b.c 271
                           4275 ;	genPlus
                           4276 ;	AOP_STK for _SceneInit_b8_i_1_1
                           4277 ;	AOP_STK for _SceneInit_b8_sloc0_1_0
                           4278 ;	Can't optimise plus by inc, falling back to the normal way
   0DB4 11 16 00           4279 	ld	de,#_scene_col_tiles
   0DB7 F8 02              4280 	lda	hl,2(sp)
   0DB9 6E                 4281 	ld	l,(hl)
   0DBA 26 00              4282 	ld	h,#0x00
   0DBC 19                 4283 	add	hl,de
   0DBD 7D                 4284 	ld	a,l
   0DBE 54                 4285 	ld	d,h
   0DBF F8 00              4286 	lda	hl,0(sp)
   0DC1 22                 4287 	ld	(hl+),a
   0DC2 72                 4288 	ld	(hl),d
                           4289 ;	genCast
                           4290 ;	AOP_HL for _scene_load_col_ptr
   0DC3 21 04 00           4291 	ld	hl,#_scene_load_col_ptr
   0DC6 46                 4292 	ld	b,(hl)
   0DC7 23                 4293 	inc	hl
   0DC8 4E                 4294 	ld	c,(hl)
                           4295 ;	genIpush
                           4296 ; _saveRegsForCall: sendSetSize: 0 deInUse: 0 bcInUse: 0 deSending: 0
   0DC9 68                 4297 	ld	l,b
   0DCA 61                 4298 	ld	h,c
   0DCB E5                 4299 	push	hl
                           4300 ;	genIpush
                           4301 ;	AOP_HL for _col_bank
   0DCC 21 07 00           4302 	ld	hl,#_col_bank
   0DCF 7E                 4303 	ld	a,(hl)
   0DD0 F5                 4304 	push	af
   0DD1 33                 4305 	inc	sp
                           4306 ;	genCall
   0DD2 CD 00 00           4307 	call	_ReadBankedUBYTE
   0DD5 4B                 4308 	ld	c,e
   0DD6 E8 03              4309 	lda	sp,3(sp)
                           4310 ;	genAssign (pointer)
                           4311 ;	AOP_STK for _SceneInit_b8_sloc0_1_0
   0DD8 F8 00              4312 	lda	hl,0(sp)
   0DDA 5E                 4313 	ld	e,(hl)
   0DDB 23                 4314 	inc	hl
   0DDC 56                 4315 	ld	d,(hl)
   0DDD 79                 4316 	ld	a,c
   0DDE 12                 4317 	ld	(de),a
                           4318 ;	src/Scene_b.c 272
                           4319 ;	genPlus
                           4320 ;	AOP_HL for _scene_load_col_ptr
                           4321 ;	genPlusIncr
   0DDF 21 04 00           4322 	ld	hl,#_scene_load_col_ptr
   0DE2 34                 4323 	inc	(hl)
   0DE3 20 02              4324 	jr	nz,00110$
   0DE5 23                 4325 	inc	hl
   0DE6 34                 4326 	inc	(hl)
   0DE7                    4327 00110$:
                           4328 ;	src/Scene_b.c 269
                           4329 ;	genPlus
                           4330 ;	AOP_STK for _SceneInit_b8_i_1_1
                           4331 ;	genPlusIncr
   0DE7 F8 02              4332 	lda	hl,2(sp)
   0DE9 34                 4333 	inc	(hl)
                           4334 ;	genGoto
   0DEA C3 A8 0D           4335 	jp	00101$
                           4336 ;	genLabel
   0DED                    4337 00105$:
                           4338 ;	genEndFunction
   0DED E8 03              4339 	lda	sp,3(sp)
   0DEF C9                 4340 	ret
   0DF0                    4341 ___SceneInit_b8_end:
                           4342 ;	src/Scene_b.c 276
                           4343 ;	genLabel
                           4344 ;	genFunction
                           4345 ;	---------------------------------
                           4346 ; Function SceneInit_b9
                           4347 ; ---------------------------------
   0DF0                    4348 ___SceneInit_b9_start:
   0DF0                    4349 _SceneInit_b9:
   0DF0 E8 F8              4350 	lda	sp,-8(sp)
                           4351 ;	src/Scene_b.c 281
                           4352 ;	genMult
                           4353 ;	AOP_HL for _scene_index
   0DF2 21 00 00           4354 	ld	hl,#_scene_index
   0DF5 5E                 4355 	ld	e,(hl)
   0DF6 23                 4356 	inc	hl
   0DF7 56                 4357 	ld	d,(hl)
   0DF8 6B                 4358 	ld	l,e
   0DF9 62                 4359 	ld	h,d
   0DFA 29                 4360 	add	hl,hl
   0DFB 19                 4361 	add	hl,de
   0DFC 4D                 4362 	ld	c,l
   0DFD 44                 4363 	ld	b,h
                           4364 ;	genPlus
                           4365 ;	Can't optimise plus by inc, falling back to the normal way
   0DFE 21 00 00           4366 	ld	hl,#_scene_bank_ptrs
   0E01 09                 4367 	add	hl,bc
   0E02 4D                 4368 	ld	c,l
   0E03 44                 4369 	ld	b,h
                           4370 ;	genIpush
                           4371 ; _saveRegsForCall: sendSetSize: 0 deInUse: 0 bcInUse: 0 deSending: 0
   0E04 C5                 4372 	push	bc
                           4373 ;	genIpush
   0E05 21 0B 00           4374 	ld	hl,#_bank_ptr
   0E08 E5                 4375 	push	hl
                           4376 ;	genIpush
   0E09 3E 05              4377 	ld	a,#0x05
   0E0B F5                 4378 	push	af
   0E0C 33                 4379 	inc	sp
                           4380 ;	genCall
   0E0D CD 00 00           4381 	call	_ReadBankedBankPtr
   0E10 E8 05              4382 	lda	sp,5(sp)
                           4383 ;	src/Scene_b.c 282
                           4384 ;	genCast
                           4385 ;	AOP_HL for _scene_load_col_ptr
   0E12 21 04 00           4386 	ld	hl,#_scene_load_col_ptr
   0E15 4E                 4387 	ld	c,(hl)
   0E16 23                 4388 	inc	hl
   0E17 46                 4389 	ld	b,(hl)
                           4390 ;	genPointerGet
                           4391 ;	AOP_STK for _SceneInit_b9_sloc0_1_0
   0E18 11 0B 00           4392 	ld	de,#_bank_ptr
   0E1B 1A                 4393 	ld	a,(de)
   0E1C F8 06              4394 	lda	hl,6(sp)
   0E1E 77                 4395 	ld	(hl),a
                           4396 ;	genIpush
                           4397 ; _saveRegsForCall: sendSetSize: 0 deInUse: 0 bcInUse: 0 deSending: 0
   0E1F C5                 4398 	push	bc
                           4399 ;	genIpush
                           4400 ;	AOP_STK for _SceneInit_b9_sloc0_1_0
   0E20 7E                 4401 	ld	a,(hl)
   0E21 F5                 4402 	push	af
   0E22 33                 4403 	inc	sp
                           4404 ;	genCall
   0E23 CD 00 00           4405 	call	_ReadBankedUBYTE
   0E26 4B                 4406 	ld	c,e
   0E27 E8 03              4407 	lda	sp,3(sp)
                           4408 ;	genAssign (pointer)
   0E29 11 08 00           4409 	ld	de,#_events_ptr
   0E2C 79                 4410 	ld	a,c
   0E2D 12                 4411 	ld	(de),a
                           4412 ;	src/Scene_b.c 283
                           4413 ;	genPlus
                           4414 ;	genPlusIncr
   0E2E 01 09 00           4415 	ld	bc,#_events_ptr + 1
                           4416 ;	genPlus
                           4417 ;	AOP_HL for _scene_load_col_ptr
                           4418 ;	AOP_STK for _SceneInit_b9_sloc1_1_0
                           4419 ;	genPlusIncr
                           4420 ;	Can't optimise plus by inc, falling back to the normal way
   0E31 21 04 00           4421 	ld	hl,#_scene_load_col_ptr
   0E34 5E                 4422 	ld	e,(hl)
   0E35 23                 4423 	inc	hl
   0E36 56                 4424 	ld	d,(hl)
   0E37 21 01 00           4425 	ld	hl,#0x0001
   0E3A 19                 4426 	add	hl,de
   0E3B 7D                 4427 	ld	a,l
   0E3C 54                 4428 	ld	d,h
   0E3D F8 04              4429 	lda	hl,4(sp)
   0E3F 22                 4430 	ld	(hl+),a
   0E40 72                 4431 	ld	(hl),d
                           4432 ;	genCast
                           4433 ;	AOP_STK for _SceneInit_b9_sloc1_1_0
                           4434 ;	AOP_STK for _SceneInit_b9_sloc2_1_0
   0E41 2B                 4435 	dec	hl
   0E42 7E                 4436 	ld	a,(hl)
   0E43 2B                 4437 	dec	hl
   0E44 2B                 4438 	dec	hl
   0E45 77                 4439 	ld	(hl),a
   0E46 F8 05              4440 	lda	hl,5(sp)
   0E48 7E                 4441 	ld	a,(hl)
   0E49 2B                 4442 	dec	hl
   0E4A 2B                 4443 	dec	hl
   0E4B 77                 4444 	ld	(hl),a
                           4445 ;	genPointerGet
                           4446 ;	AOP_STK for _SceneInit_b9_sloc1_1_0
   0E4C 11 0B 00           4447 	ld	de,#_bank_ptr
   0E4F 1A                 4448 	ld	a,(de)
   0E50 23                 4449 	inc	hl
   0E51 77                 4450 	ld	(hl),a
                           4451 ;	genIpush
                           4452 ; _saveRegsForCall: sendSetSize: 0 deInUse: 0 bcInUse: 1 deSending: 0
   0E52 C5                 4453 	push	bc
                           4454 ;	AOP_STK for _SceneInit_b9_sloc2_1_0
   0E53 2B                 4455 	dec	hl
   0E54 2B                 4456 	dec	hl
   0E55 2A                 4457 	ld	a,(hl+)
   0E56 66                 4458 	ld	h,(hl)
   0E57 6F                 4459 	ld	l,a
   0E58 E5                 4460 	push	hl
                           4461 ;	genIpush
                           4462 ;	AOP_STK for _SceneInit_b9_sloc1_1_0
   0E59 F8 08              4463 	lda	hl,8(sp)
   0E5B 7E                 4464 	ld	a,(hl)
   0E5C F5                 4465 	push	af
   0E5D 33                 4466 	inc	sp
                           4467 ;	genCall
   0E5E CD 00 00           4468 	call	_ReadBankedUBYTE
                           4469 ;	AOP_STK for _SceneInit_b9_sloc2_1_0
   0E61 F8 07              4470 	lda	hl,7(sp)
   0E63 73                 4471 	ld	(hl),e
   0E64 E8 03              4472 	lda	sp,3(sp)
   0E66 C1                 4473 	pop	bc
                           4474 ;	genCast
                           4475 ;	AOP_STK for _SceneInit_b9_sloc2_1_0
                           4476 ;	AOP_STK for _SceneInit_b9_sloc1_1_0
   0E67 F8 02              4477 	lda	hl,2(sp)
   0E69 2A                 4478 	ld	a,(hl+)
   0E6A 23                 4479 	inc	hl
   0E6B 22                 4480 	ld	(hl+),a
   0E6C 36 00              4481 	ld	(hl),#0x00
                           4482 ;	genLeftShift
                           4483 ;	AOP_STK for _SceneInit_b9_sloc1_1_0
                           4484 ;	AOP_STK for _SceneInit_b9_sloc2_1_0
   0E6E 2B                 4485 	dec	hl
   0E6F 7E                 4486 	ld	a,(hl)
   0E70 2B                 4487 	dec	hl
   0E71 32                 4488 	ld      (hl-),a
   0E72 36 00              4489 	ld	(hl),#0x00
                           4490 ;	genPlus
                           4491 ;	AOP_HL for _scene_load_col_ptr
                           4492 ;	AOP_STK for _SceneInit_b9_sloc1_1_0
                           4493 ;	genPlusIncr
                           4494 ;	Can't optimise plus by inc, falling back to the normal way
   0E74 21 04 00           4495 	ld	hl,#_scene_load_col_ptr
   0E77 5E                 4496 	ld	e,(hl)
   0E78 23                 4497 	inc	hl
   0E79 56                 4498 	ld	d,(hl)
   0E7A 21 02 00           4499 	ld	hl,#0x0002
   0E7D 19                 4500 	add	hl,de
   0E7E 7D                 4501 	ld	a,l
   0E7F 54                 4502 	ld	d,h
   0E80 F8 04              4503 	lda	hl,4(sp)
   0E82 22                 4504 	ld	(hl+),a
   0E83 72                 4505 	ld	(hl),d
                           4506 ;	genCast
                           4507 ;	AOP_STK for _SceneInit_b9_sloc1_1_0
                           4508 ;	AOP_STK for _SceneInit_b9_sloc3_1_0
   0E84 2B                 4509 	dec	hl
   0E85 7E                 4510 	ld	a,(hl)
   0E86 F8 00              4511 	lda	hl,0(sp)
   0E88 77                 4512 	ld	(hl),a
   0E89 F8 05              4513 	lda	hl,5(sp)
   0E8B 7E                 4514 	ld	a,(hl)
   0E8C F8 01              4515 	lda	hl,1(sp)
   0E8E 77                 4516 	ld	(hl),a
                           4517 ;	genPointerGet
                           4518 ;	AOP_STK for _SceneInit_b9_sloc1_1_0
   0E8F 11 0B 00           4519 	ld	de,#_bank_ptr
   0E92 1A                 4520 	ld	a,(de)
   0E93 F8 04              4521 	lda	hl,4(sp)
   0E95 77                 4522 	ld	(hl),a
                           4523 ;	genIpush
                           4524 ; _saveRegsForCall: sendSetSize: 0 deInUse: 0 bcInUse: 1 deSending: 0
   0E96 C5                 4525 	push	bc
                           4526 ;	AOP_STK for _SceneInit_b9_sloc3_1_0
   0E97 F8 02              4527 	lda	hl,2(sp)
   0E99 2A                 4528 	ld	a,(hl+)
   0E9A 66                 4529 	ld	h,(hl)
   0E9B 6F                 4530 	ld	l,a
   0E9C E5                 4531 	push	hl
                           4532 ;	genIpush
                           4533 ;	AOP_STK for _SceneInit_b9_sloc1_1_0
   0E9D F8 08              4534 	lda	hl,8(sp)
   0E9F 7E                 4535 	ld	a,(hl)
   0EA0 F5                 4536 	push	af
   0EA1 33                 4537 	inc	sp
                           4538 ;	genCall
   0EA2 CD 00 00           4539 	call	_ReadBankedUBYTE
                           4540 ;	AOP_STK for _SceneInit_b9_sloc3_1_0
   0EA5 F8 05              4541 	lda	hl,5(sp)
   0EA7 73                 4542 	ld	(hl),e
   0EA8 E8 03              4543 	lda	sp,3(sp)
   0EAA C1                 4544 	pop	bc
                           4545 ;	genCast
                           4546 ;	AOP_STK for _SceneInit_b9_sloc3_1_0
                           4547 ;	AOP_STK for _SceneInit_b9_sloc1_1_0
   0EAB F8 00              4548 	lda	hl,0(sp)
   0EAD 7E                 4549 	ld	a,(hl)
   0EAE F8 04              4550 	lda	hl,4(sp)
   0EB0 22                 4551 	ld	(hl+),a
   0EB1 36 00              4552 	ld	(hl),#0x00
                           4553 ;	genPlus
                           4554 ;	AOP_STK for _SceneInit_b9_sloc2_1_0
                           4555 ;	AOP_STK for _SceneInit_b9_sloc1_1_0
                           4556 ;	AOP_STK for _SceneInit_b9_sloc3_1_0
                           4557 ;	Can't optimise plus by inc, falling back to the normal way
   0EB3 F8 02              4558 	lda	hl,2(sp)
   0EB5 5E                 4559 	ld	e,(hl)
   0EB6 23                 4560 	inc	hl
   0EB7 56                 4561 	ld	d,(hl)
   0EB8 23                 4562 	inc	hl
   0EB9 2A                 4563 	ld	a,(hl+)
   0EBA 66                 4564 	ld	h,(hl)
   0EBB 6F                 4565 	ld	l,a
   0EBC 19                 4566 	add	hl,de
   0EBD 7D                 4567 	ld	a,l
   0EBE 54                 4568 	ld	d,h
   0EBF F8 00              4569 	lda	hl,0(sp)
   0EC1 22                 4570 	ld	(hl+),a
   0EC2 72                 4571 	ld	(hl),d
                           4572 ;	genAssign (pointer)
                           4573 ;	AOP_STK for _SceneInit_b9_sloc3_1_0
   0EC3 59                 4574 	ld	e,c
   0EC4 50                 4575 	ld	d,b
   0EC5 2B                 4576 	dec	hl
   0EC6 7E                 4577 	ld	a,(hl)
   0EC7 12                 4578 	ld	(de),a
   0EC8 13                 4579 	inc	de
   0EC9 23                 4580 	inc	hl
   0ECA 7E                 4581 	ld	a,(hl)
   0ECB 12                 4582 	ld	(de),a
                           4583 ;	src/Scene_b.c 284
                           4584 ;	genIpush
                           4585 ; _saveRegsForCall: sendSetSize: 0 deInUse: 0 bcInUse: 0 deSending: 0
   0ECC 21 08 00           4586 	ld	hl,#_events_ptr
   0ECF E5                 4587 	push	hl
                           4588 ;	genCall
   0ED0 CD 00 00           4589 	call	_ScriptStart
   0ED3 E8 02              4590 	lda	sp,2(sp)
                           4591 ;	src/Scene_b.c 287
                           4592 ;	genAssign
                           4593 ;	AOP_HL for _scene_num_actors
                           4594 ;	AOP_STK for _SceneInit_b9_i_1_1
   0ED5 21 11 00           4595 	ld	hl,#_scene_num_actors
   0ED8 7E                 4596 	ld	a,(hl)
   0ED9 F8 07              4597 	lda	hl,7(sp)
   0EDB 77                 4598 	ld	(hl),a
                           4599 ;	genLabel
   0EDC                    4600 00101$:
                           4601 ;	genCmpEq
                           4602 ;	AOP_STK for _SceneInit_b9_i_1_1
                           4603 ; genCmpEq: left 1, right 1, result 0
   0EDC F8 07              4604 	lda	hl,7(sp)
   0EDE 7E                 4605 	ld	a,(hl)
   0EDF FE 0B              4606 	cp	a,#0x0B
   0EE1 CA 32 0F           4607 	jp	z,00104$
   0EE4                    4608 00109$:
                           4609 ;	src/Scene_b.c 289
                           4610 ;	genMult
                           4611 ;	AOP_STK for _SceneInit_b9_i_1_1
                           4612 ;	AOP_STK for _SceneInit_b9_sloc3_1_0
   0EE4 F8 07              4613 	lda	hl,7(sp)
   0EE6 5E                 4614 	ld	e,(hl)
   0EE7 16 00              4615 	ld	d,#0x00
   0EE9 6B                 4616 	ld	l,e
   0EEA 62                 4617 	ld	h,d
   0EEB 29                 4618 	add	hl,hl
   0EEC 29                 4619 	add	hl,hl
   0EED 19                 4620 	add	hl,de
   0EEE 29                 4621 	add	hl,hl
   0EEF 19                 4622 	add	hl,de
   0EF0 29                 4623 	add	hl,hl
   0EF1 7D                 4624 	ld	a,l
   0EF2 54                 4625 	ld	d,h
   0EF3 F8 00              4626 	lda	hl,0(sp)
   0EF5 22                 4627 	ld	(hl+),a
   0EF6 72                 4628 	ld	(hl),d
                           4629 ;	genPlus
                           4630 ;	AOP_STK for _SceneInit_b9_sloc3_1_0
                           4631 ;	Can't optimise plus by inc, falling back to the normal way
   0EF7 11 00 00           4632 	ld	de,#_actors
   0EFA 2B                 4633 	dec	hl
   0EFB 2A                 4634 	ld	a,(hl+)
   0EFC 66                 4635 	ld	h,(hl)
   0EFD 6F                 4636 	ld	l,a
   0EFE 19                 4637 	add	hl,de
   0EFF 45                 4638 	ld	b,l
   0F00 4C                 4639 	ld	c,h
                           4640 ;	genPlus
                           4641 ;	genPlusIncr
                           4642 ;	Can't optimise plus by inc, falling back to the normal way
   0F01 78                 4643 	ld	a,b
   0F02 C6 09              4644 	add	a,#0x09
   0F04 6F                 4645 	ld	l,a
   0F05 79                 4646 	ld	a,c
   0F06 CE 00              4647 	adc	a,#0x00
   0F08 67                 4648 	ld	h,a
                           4649 ;	genAssign (pointer)
   0F09 36 00              4650 	ld	(hl),#0x00
                           4651 ;	src/Scene_b.c 290
                           4652 ;	genLeftShift
                           4653 ;	AOP_STK for _SceneInit_b9_i_1_1
   0F0B F8 07              4654 	lda	hl,7(sp)
   0F0D 7E                 4655 	ld	a,(hl)
   0F0E 87                 4656 	add	a,a
   0F0F 4F                 4657 	ld	c,a
                           4658 ;	genIpush
                           4659 ; _saveRegsForCall: sendSetSize: 0 deInUse: 0 bcInUse: 1 deSending: 0
   0F10 C5                 4660 	push	bc
   0F11 21 00 00           4661 	ld	hl,#0x0000
   0F14 E5                 4662 	push	hl
                           4663 ;	genIpush
   0F15 79                 4664 	ld	a,c
   0F16 F5                 4665 	push	af
   0F17 33                 4666 	inc	sp
                           4667 ;	genCall
   0F18 CD 00 00           4668 	call	_move_sprite
   0F1B E8 03              4669 	lda	sp,3(sp)
   0F1D E1                 4670 	pop	hl
   0F1E 4D                 4671 	ld	c,l
                           4672 ;	genPlus
                           4673 ;	genPlusIncr
                           4674 ; Removed redundent load
   0F1F 0C                 4675 	inc	c
                           4676 ;	genIpush
                           4677 ; _saveRegsForCall: sendSetSize: 0 deInUse: 0 bcInUse: 0 deSending: 0
   0F20 21 00 00           4678 	ld	hl,#0x0000
   0F23 E5                 4679 	push	hl
                           4680 ;	genIpush
   0F24 79                 4681 	ld	a,c
   0F25 F5                 4682 	push	af
   0F26 33                 4683 	inc	sp
                           4684 ;	genCall
   0F27 CD 00 00           4685 	call	_move_sprite
   0F2A E8 03              4686 	lda	sp,3(sp)
                           4687 ;	src/Scene_b.c 287
                           4688 ;	genPlus
                           4689 ;	AOP_STK for _SceneInit_b9_i_1_1
                           4690 ;	genPlusIncr
   0F2C F8 07              4691 	lda	hl,7(sp)
   0F2E 34                 4692 	inc	(hl)
                           4693 ;	genGoto
   0F2F C3 DC 0E           4694 	jp	00101$
                           4695 ;	genLabel
   0F32                    4696 00104$:
                           4697 ;	src/Scene_b.c 294
                           4698 ;	genAssign
                           4699 ;	AOP_HL for _camera_settings
   0F32 21 00 00           4700 	ld	hl,#_camera_settings
   0F35 36 10              4701 	ld	(hl),#0x10
                           4702 ;	src/Scene_b.c 296
                           4703 ;	genCall
                           4704 ; _saveRegsForCall: sendSetSize: 0 deInUse: 0 bcInUse: 0 deSending: 0
   0F37 CD F3 0F           4705 	call	_SceneUpdateCamera_b
                           4706 ;	src/Scene_b.c 297
                           4707 ;	genAssign
                           4708 ;	AOP_HL for _check_triggers
   0F3A 21 0E 00           4709 	ld	hl,#_check_triggers
   0F3D 36 01              4710 	ld	(hl),#0x01
                           4711 ;	src/Scene_b.c 298
                           4712 ;	genCall
                           4713 ; _saveRegsForCall: sendSetSize: 0 deInUse: 0 bcInUse: 0 deSending: 0
   0F3F CD 6B 1E           4714 	call	_SceneHandleTriggers_b
                           4715 ;	src/Scene_b.c 300
                           4716 ;	genCall
                           4717 ; _saveRegsForCall: sendSetSize: 0 deInUse: 0 bcInUse: 0 deSending: 0
   0F42 CD 00 00           4718 	call	_FadeIn
                           4719 ;	src/Scene_b.c 302
                           4720 ;	genAssign
                           4721 ;	AOP_HL for _time
   0F45 21 00 00           4722 	ld	hl,#_time
   0F48 36 00              4723 	ld	(hl),#0x00
                           4724 ;	src/Scene_b.c 303
                           4725 ;	genAssign
                           4726 ;	AOP_HL for _last_joy
   0F4A 21 A3 00           4727 	ld	hl,#_last_joy
   0F4D 36 00              4728 	ld	(hl),#0x00
                           4729 ;	src/Scene_b.c 304
                           4730 ;	genAssign
                           4731 ;	AOP_HL for _scene_loaded
   0F4F 21 0F 00           4732 	ld	hl,#_scene_loaded
   0F52 36 01              4733 	ld	(hl),#0x01
                           4734 ;	src/Scene_b.c 307
                           4735 ;	genAssign
                           4736 ;	AOP_HL for _timer_script_duration
   0F54 21 00 00           4737 	ld	hl,#_timer_script_duration
   0F57 36 00              4738 	ld	(hl),#0x00
                           4739 ;	src/Scene_b.c 309
                           4740 ;	genAssign
   0F59 01 40 FF           4741 	ld	bc,#0xFF40
                           4742 ;	genAssign
                           4743 ;	AOP_STK for _SceneInit_b9_sloc3_1_0
   0F5C F8 00              4744 	lda	hl,0(sp)
   0F5E 36 40              4745 	ld	(hl),#0x40
   0F60 23                 4746 	inc	hl
   0F61 36 FF              4747 	ld	(hl),#0xFF
                           4748 ;	genPointerGet
                           4749 ;	AOP_STK for _SceneInit_b9_sloc3_1_0
                           4750 ;	AOP_STK for _SceneInit_b9_sloc2_1_0
   0F63 2B                 4751 	dec	hl
   0F64 5E                 4752 	ld	e,(hl)
   0F65 23                 4753 	inc	hl
   0F66 56                 4754 	ld	d,(hl)
   0F67 1A                 4755 	ld	a,(de)
   0F68 23                 4756 	inc	hl
                           4757 ;	genOr
                           4758 ;	AOP_STK for _SceneInit_b9_sloc2_1_0
   0F69 77                 4759 	ld      (hl),a
                           4760 ; Removed redundent load
   0F6A F6 02              4761 	or	a,#0x02
                           4762 ;	genAssign (pointer)
   0F6C 02                 4763 	ld	(bc),a
                           4764 ;	src/Scene_b.c 310
                           4765 ;	genAssign
   0F6D 01 40 FF           4766 	ld	bc,#0xFF40
                           4767 ;	genAssign
                           4768 ;	AOP_STK for _SceneInit_b9_sloc3_1_0
   0F70 2B                 4769 	dec	hl
   0F71 2B                 4770 	dec	hl
   0F72 36 40              4771 	ld	(hl),#0x40
   0F74 23                 4772 	inc	hl
   0F75 36 FF              4773 	ld	(hl),#0xFF
                           4774 ;	genPointerGet
                           4775 ;	AOP_STK for _SceneInit_b9_sloc3_1_0
                           4776 ;	AOP_STK for _SceneInit_b9_sloc2_1_0
   0F77 2B                 4777 	dec	hl
   0F78 5E                 4778 	ld	e,(hl)
   0F79 23                 4779 	inc	hl
   0F7A 56                 4780 	ld	d,(hl)
   0F7B 1A                 4781 	ld	a,(de)
   0F7C 23                 4782 	inc	hl
                           4783 ;	genOr
                           4784 ;	AOP_STK for _SceneInit_b9_sloc2_1_0
   0F7D 77                 4785 	ld      (hl),a
                           4786 ; Removed redundent load
   0F7E F6 80              4787 	or	a,#0x80
                           4788 ;	genAssign (pointer)
   0F80 02                 4789 	ld	(bc),a
                           4790 ;	genLabel
   0F81                    4791 00105$:
                           4792 ;	genEndFunction
   0F81 E8 08              4793 	lda	sp,8(sp)
   0F83 C9                 4794 	ret
   0F84                    4795 ___SceneInit_b9_end:
                           4796 ;	src/Scene_b.c 317
                           4797 ;	genLabel
                           4798 ;	genFunction
                           4799 ;	---------------------------------
                           4800 ; Function SceneUpdate_b
                           4801 ; ---------------------------------
   0F84                    4802 ___SceneUpdate_b_start:
   0F84                    4803 _SceneUpdate_b:
                           4804 	
                           4805 ;	src/Scene_b.c 319
                           4806 ;	genCall
                           4807 ; _saveRegsForCall: sendSetSize: 0 deInUse: 0 bcInUse: 0 deSending: 0
   0F84 CD 20 1F           4808 	call	_SceneUpdateCameraShake_b
                           4809 ;	src/Scene_b.c 320
                           4810 ;	genCall
                           4811 ; _saveRegsForCall: sendSetSize: 0 deInUse: 0 bcInUse: 0 deSending: 0
   0F87 CD F3 0F           4812 	call	_SceneUpdateCamera_b
                           4813 ;	src/Scene_b.c 321
                           4814 ;	genCall
                           4815 ; _saveRegsForCall: sendSetSize: 0 deInUse: 0 bcInUse: 0 deSending: 0
   0F8A CD 70 22           4816 	call	_SceneRender
                           4817 ;	src/Scene_b.c 322
                           4818 ;	genCall
                           4819 ; _saveRegsForCall: sendSetSize: 0 deInUse: 0 bcInUse: 0 deSending: 0
   0F8D CD BF 1D           4820 	call	_SceneUpdateTimer_b
                           4821 ;	src/Scene_b.c 323
                           4822 ;	genCall
                           4823 ; _saveRegsForCall: sendSetSize: 0 deInUse: 0 bcInUse: 0 deSending: 0
   0F90 CD 79 1F           4824 	call	_SceneHandleInput
                           4825 ;	src/Scene_b.c 324
                           4826 ;	genCall
                           4827 ; _saveRegsForCall: sendSetSize: 0 deInUse: 0 bcInUse: 0 deSending: 0
   0F93 CD 00 00           4828 	call	_ScriptRunnerUpdate
                           4829 ;	src/Scene_b.c 325
                           4830 ;	genCall
                           4831 ; _saveRegsForCall: sendSetSize: 0 deInUse: 0 bcInUse: 0 deSending: 0
   0F96 CD C7 11           4832 	call	_SceneUpdateActors_b
                           4833 ;	src/Scene_b.c 326
                           4834 ;	genCall
                           4835 ; _saveRegsForCall: sendSetSize: 0 deInUse: 0 bcInUse: 0 deSending: 0
   0F99 CD 3C 1F           4836 	call	_SceneUpdateEmoteBubble_b
                           4837 ;	src/Scene_b.c 327
                           4838 ;	genCall
                           4839 ; _saveRegsForCall: sendSetSize: 0 deInUse: 0 bcInUse: 0 deSending: 0
   0F9C CD A9 0F           4840 	call	_SceneHandleWait
                           4841 ;	src/Scene_b.c 328
                           4842 ;	genCall
                           4843 ; _saveRegsForCall: sendSetSize: 0 deInUse: 0 bcInUse: 0 deSending: 0
   0F9F CD C5 0F           4844 	call	_SceneHandleTransition
                           4845 ;	src/Scene_b.c 329
                           4846 ;	genCall
                           4847 ; _saveRegsForCall: sendSetSize: 0 deInUse: 0 bcInUse: 0 deSending: 0
   0FA2 CD 00 00           4848 	call	_UIUpdate
                           4849 ;	src/Scene_b.c 330
                           4850 ;	genCall
                           4851 ; _saveRegsForCall: sendSetSize: 0 deInUse: 0 bcInUse: 0 deSending: 0
   0FA5 CD 6B 1E           4852 	call	_SceneHandleTriggers_b
                           4853 ;	genLabel
   0FA8                    4854 00101$:
                           4855 ;	genEndFunction
                           4856 	
   0FA8 C9                 4857 	ret
   0FA9                    4858 ___SceneUpdate_b_end:
                           4859 ;	src/Scene_b.c 333
                           4860 ;	genLabel
                           4861 ;	genFunction
                           4862 ;	---------------------------------
                           4863 ; Function SceneHandleWait
                           4864 ; ---------------------------------
   0FA9                    4865 ___SceneHandleWait_start:
   0FA9                    4866 _SceneHandleWait:
                           4867 	
                           4868 ;	src/Scene_b.c 336
                           4869 ;	genCmpEq
                           4870 ;	AOP_HL for _wait_time
                           4871 ; genCmpEq: left 1, right 1, result 0
   0FA9 21 00 00           4872 	ld	hl,#_wait_time
   0FAC 7E                 4873 	ld	a,(hl)
   0FAD B7                 4874 	or	a,a
   0FAE CA C4 0F           4875 	jp	z,00105$
   0FB1                    4876 00109$:
                           4877 ;	src/Scene_b.c 338
                           4878 ;	genMinus
                           4879 ;	AOP_HL for _wait_time
   0FB1 21 00 00           4880 	ld	hl,#_wait_time
   0FB4 35                 4881 	dec	(hl)
                           4882 ;	src/Scene_b.c 339
                           4883 ;	genCmpEq
                           4884 ;	AOP_HL for _wait_time
                           4885 ; genCmpEq: left 1, right 1, result 0
   0FB5 7E                 4886 	ld	a,(hl)
   0FB6 B7                 4887 	or	a,a
   0FB7 C2 C4 0F           4888 	jp	nz,00105$
   0FBA 18 03              4889 	jr	00111$
   0FBC                    4890 00110$:
   0FBC C3 C4 0F           4891 	jp	00105$
   0FBF                    4892 00111$:
                           4893 ;	src/Scene_b.c 341
                           4894 ;	genAssign
                           4895 ;	AOP_HL for _script_action_complete
   0FBF 21 00 00           4896 	ld	hl,#_script_action_complete
   0FC2 36 01              4897 	ld	(hl),#0x01
                           4898 ;	genLabel
   0FC4                    4899 00105$:
                           4900 ;	genEndFunction
                           4901 	
   0FC4 C9                 4902 	ret
   0FC5                    4903 ___SceneHandleWait_end:
                           4904 ;	src/Scene_b.c 346
                           4905 ;	genLabel
                           4906 ;	genFunction
                           4907 ;	---------------------------------
                           4908 ; Function SceneHandleTransition
                           4909 ; ---------------------------------
   0FC5                    4910 ___SceneHandleTransition_start:
   0FC5                    4911 _SceneHandleTransition:
                           4912 	
                           4913 ;	src/Scene_b.c 349
                           4914 ;	genCmpEq
                           4915 ;	AOP_HL for _scene_index
                           4916 ;	AOP_HL for _scene_next_index
                           4917 ; genCmpEq: left 2, right 2, result 0
   0FC5 21 00 00           4918 	ld	hl,#_scene_next_index
   0FC8 7E                 4919 	ld	a,(hl)
   0FC9 21 00 00           4920 	ld	hl,#_scene_index
   0FCC BE                 4921 	cp	(hl)
   0FCD 20 0D              4922 	jr	nz,00108$
   0FCF 21 01 00           4923 	ld	hl,#_scene_next_index + 1
   0FD2 7E                 4924 	ld	a,(hl)
   0FD3 21 01 00           4925 	ld	hl,#_scene_index + 1
   0FD6 BE                 4926 	cp	(hl)
   0FD7 20 03              4927 	jr	nz,00108$
   0FD9 C3 F2 0F           4928 	jp	00104$
   0FDC                    4929 00108$:
                           4930 ;	genCall
                           4931 ; _saveRegsForCall: sendSetSize: 0 deInUse: 0 bcInUse: 0 deSending: 0
   0FDC CD 00 00           4932 	call	_IsFading
   0FDF 4B                 4933 	ld	c,e
                           4934 ;	genIfx
   0FE0 AF                 4935 	xor	a,a
   0FE1 B1                 4936 	or	a,c
   0FE2 C2 F2 0F           4937 	jp	nz,00104$
                           4938 ;	src/Scene_b.c 351
                           4939 ;	genAssign
                           4940 ;	AOP_HL for _scene_next_index
                           4941 ;	AOP_HL for _scene_index
   0FE5 21 00 00           4942 	ld	hl,#_scene_next_index
   0FE8 2A                 4943 	ld	a,(hl+)
   0FE9 5E                 4944 	ld	e,(hl)
   0FEA 21 00 00           4945 	ld	hl,#_scene_index
   0FED 22                 4946 	ld	(hl+),a
   0FEE 73                 4947 	ld	(hl),e
                           4948 ;	src/Scene_b.c 352
                           4949 ;	genCall
                           4950 ; _saveRegsForCall: sendSetSize: 0 deInUse: 0 bcInUse: 0 deSending: 0
   0FEF CD 00 00           4951 	call	_SceneInit
                           4952 ;	genLabel
   0FF2                    4953 00104$:
                           4954 ;	genEndFunction
                           4955 	
   0FF2 C9                 4956 	ret
   0FF3                    4957 ___SceneHandleTransition_end:
                           4958 ;	src/Scene_b.c 356
                           4959 ;	genLabel
                           4960 ;	genFunction
                           4961 ;	---------------------------------
                           4962 ; Function SceneUpdateCamera_b
                           4963 ; ---------------------------------
   0FF3                    4964 ___SceneUpdateCamera_b_start:
   0FF3                    4965 _SceneUpdateCamera_b:
   0FF3 E8 FB              4966 	lda	sp,-5(sp)
                           4967 ;	src/Scene_b.c 361
                           4968 ;	genAnd
                           4969 ;	AOP_HL for _camera_settings
   0FF5 21 00 00           4970 	ld	hl,#_camera_settings
   0FF8 7E                 4971 	ld	a,(hl)
   0FF9 E6 10              4972 	and	a,#0x10
                           4973 ;	genCmpEq
                           4974 ; genCmpEq: left 1, right 1, result 0
   0FFB 4F                 4975 	ld	c,a
   0FFC FE 10              4976 	cp	a,#0x10
   0FFE C2 86 10           4977 	jp	nz,00102$
   1001 18 03              4978 	jr	00131$
   1003                    4979 00130$:
   1003 C3 86 10           4980 	jp	00102$
   1006                    4981 00131$:
                           4982 ;	src/Scene_b.c 364
                           4983 ;	genLeftShift
                           4984 ;	AOP_HL for _scene_width
   1006 21 00 00           4985 	ld	hl,#_scene_width
   1009 7E                 4986 	ld	a,(hl)
   100A CB 27              4987 	sla	a
   100C CB 17              4988 	rl	a
   100E CB 17              4989 	rl	a
   1010 E6 F8              4990 	and	a,#0xF8
                           4991 ;	genMinus
   1012 4F                 4992 	ld	c,a
   1013 C6 B0              4993 	add	a,#0xB0
   1015 4F                 4994 	ld	c,a
                           4995 ;	genPlus
                           4996 ;	AOP_STK for _SceneUpdateCamera_b_sloc0_1_0
                           4997 ;	genPlusIncr
                           4998 ;	Can't optimise plus by inc, falling back to the normal way
   1016 11 00 00           4999 	ld	de,#_actors
   1019 21 01 00           5000 	ld	hl,#0x0001
   101C 19                 5001 	add	hl,de
   101D 7D                 5002 	ld	a,l
   101E 54                 5003 	ld	d,h
   101F F8 02              5004 	lda	hl,2(sp)
                           5005 ;	genPointerGet
                           5006 ;	AOP_STK for _SceneUpdateCamera_b_sloc0_1_0
   1021 22                 5007 	ld	(hl+),a
   1022 72                 5008 	ld	(hl),d
   1023 5F                 5009 	ld	e,a
   1024 1A                 5010 	ld	a,(de)
   1025 47                 5011 	ld	b,a
                           5012 ;	genIpush
                           5013 ; _saveRegsForCall: sendSetSize: 0 deInUse: 0 bcInUse: 0 deSending: 0
   1026 79                 5014 	ld	a,c
   1027 F5                 5015 	push	af
   1028 33                 5016 	inc	sp
                           5017 ;	genIpush
   1029 3E 50              5018 	ld	a,#0x50
   102B F5                 5019 	push	af
   102C 33                 5020 	inc	sp
                           5021 ;	genIpush
   102D 78                 5022 	ld	a,b
   102E F5                 5023 	push	af
   102F 33                 5024 	inc	sp
                           5025 ;	genCall
   1030 CD 00 00           5026 	call	_ClampUBYTE
   1033 4B                 5027 	ld	c,e
   1034 E8 03              5028 	lda	sp,3(sp)
                           5029 ;	genAssign
                           5030 ;	(registers are the same)
                           5031 ;	src/Scene_b.c 365
                           5032 ;	genMinus
   1036 79                 5033 	ld	a,c
   1037 C6 B0              5034 	add	a,#0xB0
   1039 4F                 5035 	ld	c,a
                           5036 ;	genAssign (pointer)
   103A 11 00 00           5037 	ld	de,#_camera_dest
   103D 79                 5038 	ld	a,c
   103E 12                 5039 	ld	(de),a
                           5040 ;	src/Scene_b.c 366
                           5041 ;	genLeftShift
                           5042 ;	AOP_HL for _scene_height
   103F 21 00 00           5043 	ld	hl,#_scene_height
   1042 7E                 5044 	ld	a,(hl)
   1043 CB 27              5045 	sla	a
   1045 CB 17              5046 	rl	a
   1047 CB 17              5047 	rl	a
   1049 E6 F8              5048 	and	a,#0xF8
                           5049 ;	genMinus
   104B 4F                 5050 	ld	c,a
   104C C6 B8              5051 	add	a,#0xB8
   104E 4F                 5052 	ld	c,a
                           5053 ;	genPlus
                           5054 ;	AOP_STK for _SceneUpdateCamera_b_sloc0_1_0
                           5055 ;	genPlusIncr
                           5056 ;	Can't optimise plus by inc, falling back to the normal way
   104F 11 00 00           5057 	ld	de,#_actors
   1052 21 02 00           5058 	ld	hl,#0x0002
   1055 19                 5059 	add	hl,de
   1056 7D                 5060 	ld	a,l
   1057 54                 5061 	ld	d,h
   1058 F8 02              5062 	lda	hl,2(sp)
                           5063 ;	genPointerGet
                           5064 ;	AOP_STK for _SceneUpdateCamera_b_sloc0_1_0
   105A 22                 5065 	ld	(hl+),a
   105B 72                 5066 	ld	(hl),d
   105C 5F                 5067 	ld	e,a
   105D 1A                 5068 	ld	a,(de)
   105E 47                 5069 	ld	b,a
                           5070 ;	genIpush
                           5071 ; _saveRegsForCall: sendSetSize: 0 deInUse: 0 bcInUse: 0 deSending: 0
   105F 79                 5072 	ld	a,c
   1060 F5                 5073 	push	af
   1061 33                 5074 	inc	sp
                           5075 ;	genIpush
   1062 3E 48              5076 	ld	a,#0x48
   1064 F5                 5077 	push	af
   1065 33                 5078 	inc	sp
                           5079 ;	genIpush
   1066 78                 5080 	ld	a,b
   1067 F5                 5081 	push	af
   1068 33                 5082 	inc	sp
                           5083 ;	genCall
   1069 CD 00 00           5084 	call	_ClampUBYTE
   106C 4B                 5085 	ld	c,e
   106D E8 03              5086 	lda	sp,3(sp)
                           5087 ;	genAssign
                           5088 ;	AOP_STK for _SceneUpdateCamera_b_cam_y_1_1
   106F F8 04              5089 	lda	hl,4(sp)
   1071 71                 5090 	ld	(hl),c
                           5091 ;	src/Scene_b.c 367
                           5092 ;	genPlus
                           5093 ;	genPlusIncr
                           5094 ;	Can't optimise plus by inc, falling back to the normal way
   1072 3E 00              5095 	ld	a,#<_camera_dest
   1074 C6 01              5096 	add	a,#0x01
   1076 47                 5097 	ld	b,a
   1077 3E 00              5098 	ld	a,#>_camera_dest
   1079 CE 00              5099 	adc	a,#0x00
   107B 4F                 5100 	ld	c,a
                           5101 ;	genMinus
                           5102 ;	AOP_STK for _SceneUpdateCamera_b_cam_y_1_1
                           5103 ;	AOP_STK for _SceneUpdateCamera_b_sloc0_1_0
   107C 7E                 5104 	ld	a,(hl)
   107D C6 B8              5105 	add	a,#0xB8
   107F 2B                 5106 	dec	hl
   1080 2B                 5107 	dec	hl
   1081 77                 5108 	ld	(hl),a
                           5109 ;	genAssign (pointer)
                           5110 ;	AOP_STK for _SceneUpdateCamera_b_sloc0_1_0
   1082 58                 5111 	ld	e,b
   1083 51                 5112 	ld	d,c
   1084 7E                 5113 	ld	a,(hl)
   1085 12                 5114 	ld	(de),a
                           5115 ;	genLabel
   1086                    5116 00102$:
                           5117 ;	src/Scene_b.c 370
                           5118 ;	genAssign
   1086 01 43 FF           5119 	ld	bc,#0xFF43
                           5120 ;	genPointerGet
   1089 0A                 5121 	ld	a,(bc)
   108A 4F                 5122 	ld	c,a
                           5123 ;	genPointerGet
   108B 11 00 00           5124 	ld	de,#_camera_dest
   108E 1A                 5125 	ld	a,(de)
   108F 47                 5126 	ld	b,a
                           5127 ;	genCmpEq
                           5128 ; genCmpEq: left 1, right 1, result 1
   1090 79                 5129 	ld	a,c
   1091 B8                 5130 	cp	b
   1092 C2 99 10           5131 	jp	nz,00132$
   1095 3E 01              5132 	ld	a,#0x01
   1097 18 01              5133 	jr	00133$
   1099                    5134 00132$:
   1099 AF                 5135 	xor	a,a
   109A                    5136 00133$:
   109A 4F                 5137 	ld	c,a
                           5138 ;	genNot
   109B AF                 5139 	xor	a,a
   109C B1                 5140 	or	a,c
   109D D6 01              5141 	sub	a,#0x01
   109F 3E 00              5142 	ld	a,#0x00
   10A1 17                 5143 	rla
   10A2 4F                 5144 	ld	c,a
                           5145 ;	genAssign
                           5146 ;	AOP_STK for _SceneUpdateCamera_b_sloc0_1_0
   10A3 F8 02              5147 	lda	hl,2(sp)
   10A5 36 42              5148 	ld	(hl),#0x42
   10A7 23                 5149 	inc	hl
   10A8 36 FF              5150 	ld	(hl),#0xFF
                           5151 ;	genPointerGet
                           5152 ;	AOP_STK for _SceneUpdateCamera_b_sloc0_1_0
                           5153 ;	AOP_STK for _SceneUpdateCamera_b_sloc1_1_0
   10AA 2B                 5154 	dec	hl
   10AB 5E                 5155 	ld	e,(hl)
   10AC 23                 5156 	inc	hl
   10AD 56                 5157 	ld	d,(hl)
   10AE 1A                 5158 	ld	a,(de)
   10AF 2B                 5159 	dec	hl
   10B0 2B                 5160 	dec	hl
   10B1 77                 5161 	ld	(hl),a
                           5162 ;	genPlus
                           5163 ;	AOP_STK for _SceneUpdateCamera_b_sloc0_1_0
                           5164 ;	genPlusIncr
                           5165 ;	Can't optimise plus by inc, falling back to the normal way
   10B2 11 00 00           5166 	ld	de,#_camera_dest
   10B5 21 01 00           5167 	ld	hl,#0x0001
   10B8 19                 5168 	add	hl,de
   10B9 7D                 5169 	ld	a,l
   10BA 54                 5170 	ld	d,h
   10BB F8 02              5171 	lda	hl,2(sp)
                           5172 ;	genPointerGet
                           5173 ;	AOP_STK for _SceneUpdateCamera_b_sloc0_1_0
                           5174 ;	AOP_STK for _SceneUpdateCamera_b_sloc2_1_0
   10BD 22                 5175 	ld	(hl+),a
   10BE 72                 5176 	ld	(hl),d
   10BF 5F                 5177 	ld	e,a
   10C0 1A                 5178 	ld	a,(de)
   10C1 F8 00              5179 	lda	hl,0(sp)
   10C3 77                 5180 	ld	(hl),a
                           5181 ;	genCmpEq
                           5182 ;	AOP_STK for _SceneUpdateCamera_b_sloc1_1_0
                           5183 ;	AOP_STK for _SceneUpdateCamera_b_sloc2_1_0
                           5184 ;	AOP_STK for _SceneUpdateCamera_b_sloc0_1_0
                           5185 ; genCmpEq: left 1, right 1, result 1
   10C4 2A                 5186 	ld	a,(hl+)
   10C5 BE                 5187 	cp	(hl)
   10C6 20 04              5188 	jr	nz,00134$
   10C8 3E 01              5189 	ld	a,#0x01
   10CA 18 01              5190 	jr	00135$
   10CC                    5191 00134$:
   10CC AF                 5192 	xor	a,a
   10CD                    5193 00135$:
   10CD F8 02              5194 	lda	hl,2(sp)
   10CF 77                 5195 	ld	(hl),a
                           5196 ;	genNot
                           5197 ;	AOP_STK for _SceneUpdateCamera_b_sloc0_1_0
                           5198 ;	AOP_STK for _SceneUpdateCamera_b_sloc1_1_0
   10D0 AF                 5199 	xor	a,a
   10D1 B6                 5200 	or	a,(hl)
   10D2 D6 01              5201 	sub	a,#0x01
   10D4 3E 00              5202 	ld	a,#0x00
   10D6 17                 5203 	rla
   10D7 2B                 5204 	dec	hl
   10D8 77                 5205 	ld	(hl),a
                           5206 ;	genOrOp
                           5207 ;	AOP_STK for _SceneUpdateCamera_b_sloc1_1_0
                           5208 ;	AOP_HL for _camera_moved
   10D9 AF                 5209 	xor	a,a
   10DA B1                 5210 	or	a,c
   10DB 20 02              5211 	jr	nz,00136$
   10DD AF                 5212 	xor	a,a
   10DE B6                 5213 	or	a,(hl)
   10DF                    5214 00136$:
   10DF 28 02              5215 	jr	z,00137$
   10E1 3E 01              5216 	ld	a,#0x01
   10E3                    5217 00137$:
   10E3 21 96 00           5218 	ld	hl,#_camera_moved
   10E6 77                 5219 	ld	(hl),a
                           5220 ;	src/Scene_b.c 372
                           5221 ;	genIfx
                           5222 ;	AOP_HL for _camera_moved
   10E7 AF                 5223 	xor	a,a
   10E8 B6                 5224 	or	a,(hl)
   10E9 CA C4 11           5225 	jp	z,00120$
                           5226 ;	src/Scene_b.c 375
                           5227 ;	genAnd
                           5228 ;	AOP_HL for _camera_settings
   10EC 21 00 00           5229 	ld	hl,#_camera_settings
   10EF 7E                 5230 	ld	a,(hl)
   10F0 E6 20              5231 	and	a,#0x20
                           5232 ;	genCmpEq
                           5233 ; genCmpEq: left 1, right 1, result 0
   10F2 4F                 5234 	ld	c,a
   10F3 FE 20              5235 	cp	a,#0x20
   10F5 C2 B0 11           5236 	jp	nz,00116$
   10F8 18 03              5237 	jr	00139$
   10FA                    5238 00138$:
   10FA C3 B0 11           5239 	jp	00116$
   10FD                    5240 00139$:
                           5241 ;	src/Scene_b.c 377
                           5242 ;	genAnd
                           5243 ;	AOP_HL for _time
                           5244 ;	AOP_HL for _camera_speed
   10FD 21 00 00           5245 	ld	hl,#_time
   1100 7E                 5246 	ld	a,(hl)
   1101 21 00 00           5247 	ld	hl,#_camera_speed
   1104 A6                 5248 	and	a,(hl)
                           5249 ;	genCmpEq
                           5250 ; genCmpEq: left 1, right 1, result 0
   1105 4F                 5251 	ld	c,a
   1106 B7                 5252 	or	a,a
   1107 C2 C4 11           5253 	jp	nz,00120$
   110A 18 03              5254 	jr	00141$
   110C                    5255 00140$:
   110C C3 C4 11           5256 	jp	00120$
   110F                    5257 00141$:
                           5258 ;	src/Scene_b.c 379
                           5259 ;	genAssign
                           5260 ;	AOP_STK for _SceneUpdateCamera_b_sloc0_1_0
   110F F8 02              5261 	lda	hl,2(sp)
   1111 36 43              5262 	ld	(hl),#0x43
   1113 23                 5263 	inc	hl
   1114 36 FF              5264 	ld	(hl),#0xFF
                           5265 ;	genPointerGet
                           5266 ;	AOP_STK for _SceneUpdateCamera_b_sloc0_1_0
   1116 2B                 5267 	dec	hl
   1117 5E                 5268 	ld	e,(hl)
   1118 23                 5269 	inc	hl
   1119 56                 5270 	ld	d,(hl)
   111A 1A                 5271 	ld	a,(de)
   111B 4F                 5272 	ld	c,a
                           5273 ;	genCmpGt
   111C 78                 5274 	ld	a,b
   111D 91                 5275 	sub	a,c
   111E D2 37 11           5276 	jp	nc,00106$
                           5277 ;	src/Scene_b.c 381
                           5278 ;	genAssign
                           5279 ;	AOP_STK for _SceneUpdateCamera_b_sloc0_1_0
   1121 2B                 5280 	dec	hl
   1122 36 43              5281 	ld	(hl),#0x43
   1124 23                 5282 	inc	hl
   1125 36 FF              5283 	ld	(hl),#0xFF
                           5284 ;	genPointerGet
                           5285 ;	AOP_STK for _SceneUpdateCamera_b_sloc0_1_0
   1127 2B                 5286 	dec	hl
   1128 5E                 5287 	ld	e,(hl)
   1129 23                 5288 	inc	hl
   112A 56                 5289 	ld	d,(hl)
   112B 1A                 5290 	ld	a,(de)
   112C 4F                 5291 	ld	c,a
                           5292 ;	genMinus
   112D 0D                 5293 	dec	c
                           5294 ;	genAssign (pointer)
                           5295 ;	AOP_STK for _SceneUpdateCamera_b_sloc0_1_0
   112E 2B                 5296 	dec	hl
   112F 5E                 5297 	ld	e,(hl)
   1130 23                 5298 	inc	hl
   1131 56                 5299 	ld	d,(hl)
   1132 79                 5300 	ld	a,c
   1133 12                 5301 	ld	(de),a
                           5302 ;	genGoto
   1134 C3 5B 11           5303 	jp	00107$
                           5304 ;	genLabel
   1137                    5305 00106$:
                           5306 ;	src/Scene_b.c 383
                           5307 ;	genAssign
                           5308 ;	AOP_STK for _SceneUpdateCamera_b_sloc0_1_0
   1137 F8 02              5309 	lda	hl,2(sp)
   1139 36 43              5310 	ld	(hl),#0x43
   113B 23                 5311 	inc	hl
   113C 36 FF              5312 	ld	(hl),#0xFF
                           5313 ;	genPointerGet
                           5314 ;	AOP_STK for _SceneUpdateCamera_b_sloc0_1_0
   113E 2B                 5315 	dec	hl
   113F 5E                 5316 	ld	e,(hl)
   1140 23                 5317 	inc	hl
   1141 56                 5318 	ld	d,(hl)
   1142 1A                 5319 	ld	a,(de)
                           5320 ;	genCmpLt
   1143 4F                 5321 	ld	c,a
   1144 90                 5322 	sub	a,b
   1145 D2 5B 11           5323 	jp	nc,00107$
                           5324 ;	src/Scene_b.c 385
                           5325 ;	genAssign
                           5326 ;	AOP_STK for _SceneUpdateCamera_b_sloc0_1_0
   1148 2B                 5327 	dec	hl
   1149 36 43              5328 	ld	(hl),#0x43
   114B 23                 5329 	inc	hl
   114C 36 FF              5330 	ld	(hl),#0xFF
                           5331 ;	genPointerGet
                           5332 ;	AOP_STK for _SceneUpdateCamera_b_sloc0_1_0
   114E 2B                 5333 	dec	hl
   114F 5E                 5334 	ld	e,(hl)
   1150 23                 5335 	inc	hl
   1151 56                 5336 	ld	d,(hl)
   1152 1A                 5337 	ld	a,(de)
                           5338 ;	genPlus
                           5339 ;	genPlusIncr
                           5340 ;	Can't optimise plus by inc, falling back to the normal way
   1153 4F                 5341 	ld	c,a
   1154 C6 01              5342 	add	a,#0x01
                           5343 ;	genAssign (pointer)
                           5344 ;	AOP_STK for _SceneUpdateCamera_b_sloc0_1_0
   1156 2B                 5345 	dec	hl
   1157 5E                 5346 	ld	e,(hl)
   1158 23                 5347 	inc	hl
   1159 56                 5348 	ld	d,(hl)
   115A 12                 5349 	ld	(de),a
                           5350 ;	genLabel
   115B                    5351 00107$:
                           5352 ;	src/Scene_b.c 387
                           5353 ;	genAssign
                           5354 ;	AOP_STK for _SceneUpdateCamera_b_sloc0_1_0
   115B F8 02              5355 	lda	hl,2(sp)
   115D 36 42              5356 	ld	(hl),#0x42
   115F 23                 5357 	inc	hl
   1160 36 FF              5358 	ld	(hl),#0xFF
                           5359 ;	genPointerGet
                           5360 ;	AOP_STK for _SceneUpdateCamera_b_sloc0_1_0
   1162 2B                 5361 	dec	hl
   1163 5E                 5362 	ld	e,(hl)
   1164 23                 5363 	inc	hl
   1165 56                 5364 	ld	d,(hl)
   1166 1A                 5365 	ld	a,(de)
   1167 4F                 5366 	ld	c,a
                           5367 ;	genCmpGt
                           5368 ;	AOP_STK for _SceneUpdateCamera_b_sloc2_1_0
   1168 F8 00              5369 	lda	hl,0(sp)
   116A 7E                 5370 	ld	a,(hl)
   116B 91                 5371 	sub	a,c
   116C D2 86 11           5372 	jp	nc,00111$
                           5373 ;	src/Scene_b.c 389
                           5374 ;	genAssign
                           5375 ;	AOP_STK for _SceneUpdateCamera_b_sloc0_1_0
   116F 23                 5376 	inc	hl
   1170 23                 5377 	inc	hl
   1171 36 42              5378 	ld	(hl),#0x42
   1173 23                 5379 	inc	hl
   1174 36 FF              5380 	ld	(hl),#0xFF
                           5381 ;	genPointerGet
                           5382 ;	AOP_STK for _SceneUpdateCamera_b_sloc0_1_0
   1176 2B                 5383 	dec	hl
   1177 5E                 5384 	ld	e,(hl)
   1178 23                 5385 	inc	hl
   1179 56                 5386 	ld	d,(hl)
   117A 1A                 5387 	ld	a,(de)
   117B 4F                 5388 	ld	c,a
                           5389 ;	genMinus
   117C 0D                 5390 	dec	c
                           5391 ;	genAssign (pointer)
                           5392 ;	AOP_STK for _SceneUpdateCamera_b_sloc0_1_0
   117D 2B                 5393 	dec	hl
   117E 5E                 5394 	ld	e,(hl)
   117F 23                 5395 	inc	hl
   1180 56                 5396 	ld	d,(hl)
   1181 79                 5397 	ld	a,c
   1182 12                 5398 	ld	(de),a
                           5399 ;	genGoto
   1183 C3 C4 11           5400 	jp	00120$
                           5401 ;	genLabel
   1186                    5402 00111$:
                           5403 ;	src/Scene_b.c 391
                           5404 ;	genAssign
                           5405 ;	AOP_STK for _SceneUpdateCamera_b_sloc0_1_0
   1186 F8 02              5406 	lda	hl,2(sp)
   1188 36 42              5407 	ld	(hl),#0x42
   118A 23                 5408 	inc	hl
   118B 36 FF              5409 	ld	(hl),#0xFF
                           5410 ;	genPointerGet
                           5411 ;	AOP_STK for _SceneUpdateCamera_b_sloc0_1_0
   118D 2B                 5412 	dec	hl
   118E 5E                 5413 	ld	e,(hl)
   118F 23                 5414 	inc	hl
   1190 56                 5415 	ld	d,(hl)
   1191 1A                 5416 	ld	a,(de)
                           5417 ;	genCmpLt
                           5418 ;	AOP_STK for _SceneUpdateCamera_b_sloc2_1_0
   1192 4F                 5419 	ld	c,a
   1193 F8 00              5420 	lda	hl,0(sp)
   1195 96                 5421 	sub	a,(hl)
   1196 D2 C4 11           5422 	jp	nc,00120$
                           5423 ;	src/Scene_b.c 393
                           5424 ;	genAssign
                           5425 ;	AOP_STK for _SceneUpdateCamera_b_sloc0_1_0
   1199 23                 5426 	inc	hl
   119A 23                 5427 	inc	hl
   119B 36 42              5428 	ld	(hl),#0x42
   119D 23                 5429 	inc	hl
   119E 36 FF              5430 	ld	(hl),#0xFF
                           5431 ;	genPointerGet
                           5432 ;	AOP_STK for _SceneUpdateCamera_b_sloc0_1_0
   11A0 2B                 5433 	dec	hl
   11A1 5E                 5434 	ld	e,(hl)
   11A2 23                 5435 	inc	hl
   11A3 56                 5436 	ld	d,(hl)
   11A4 1A                 5437 	ld	a,(de)
                           5438 ;	genPlus
                           5439 ;	genPlusIncr
                           5440 ;	Can't optimise plus by inc, falling back to the normal way
   11A5 4F                 5441 	ld	c,a
   11A6 C6 01              5442 	add	a,#0x01
                           5443 ;	genAssign (pointer)
                           5444 ;	AOP_STK for _SceneUpdateCamera_b_sloc0_1_0
   11A8 2B                 5445 	dec	hl
   11A9 5E                 5446 	ld	e,(hl)
   11AA 23                 5447 	inc	hl
   11AB 56                 5448 	ld	d,(hl)
   11AC 12                 5449 	ld	(de),a
                           5450 ;	genGoto
   11AD C3 C4 11           5451 	jp	00120$
                           5452 ;	genLabel
   11B0                    5453 00116$:
                           5454 ;	src/Scene_b.c 400
                           5455 ;	genAssign
                           5456 ;	AOP_STK for _SceneUpdateCamera_b_sloc0_1_0
   11B0 F8 02              5457 	lda	hl,2(sp)
   11B2 36 43              5458 	ld	(hl),#0x43
   11B4 23                 5459 	inc	hl
   11B5 36 FF              5460 	ld	(hl),#0xFF
                           5461 ;	genAssign (pointer)
                           5462 ;	AOP_STK for _SceneUpdateCamera_b_sloc0_1_0
   11B7 2B                 5463 	dec	hl
   11B8 5E                 5464 	ld	e,(hl)
   11B9 23                 5465 	inc	hl
   11BA 56                 5466 	ld	d,(hl)
   11BB 78                 5467 	ld	a,b
   11BC 12                 5468 	ld	(de),a
                           5469 ;	src/Scene_b.c 401
                           5470 ;	genAssign
   11BD 01 42 FF           5471 	ld	bc,#0xFF42
                           5472 ;	genAssign (pointer)
                           5473 ;	AOP_STK for _SceneUpdateCamera_b_sloc2_1_0
   11C0 F8 00              5474 	lda	hl,0(sp)
   11C2 7E                 5475 	ld	a,(hl)
   11C3 02                 5476 	ld	(bc),a
                           5477 ;	genLabel
   11C4                    5478 00120$:
                           5479 ;	genEndFunction
   11C4 E8 05              5480 	lda	sp,5(sp)
   11C6 C9                 5481 	ret
   11C7                    5482 ___SceneUpdateCamera_b_end:
                           5483 ;	src/Scene_b.c 406
                           5484 ;	genLabel
                           5485 ;	genFunction
                           5486 ;	---------------------------------
                           5487 ; Function SceneUpdateActors_b
                           5488 ; ---------------------------------
   11C7                    5489 ___SceneUpdateActors_b_start:
   11C7                    5490 _SceneUpdateActors_b:
   11C7 E8 F0              5491 	lda	sp,-16(sp)
                           5492 ;	src/Scene_b.c 415
                           5493 ;	genAnd
                           5494 ;	AOP_HL for _actor_move_settings
   11C9 21 00 00           5495 	ld	hl,#_actor_move_settings
   11CC 7E                 5496 	ld	a,(hl)
   11CD E6 80              5497 	and	a,#0x80
   11CF 20 03              5498 	jr	nz,00278$
   11D1 C3 1C 13           5499 	jp	00122$
   11D4                    5500 00278$:
                           5501 ;	genMult
                           5502 ;	AOP_HL for _script_actor
   11D4 21 00 00           5503 	ld	hl,#_script_actor
   11D7 5E                 5504 	ld	e,(hl)
   11D8 16 00              5505 	ld	d,#0x00
   11DA 6B                 5506 	ld	l,e
   11DB 62                 5507 	ld	h,d
   11DC 29                 5508 	add	hl,hl
   11DD 29                 5509 	add	hl,hl
   11DE 19                 5510 	add	hl,de
   11DF 29                 5511 	add	hl,hl
   11E0 19                 5512 	add	hl,de
   11E1 29                 5513 	add	hl,hl
   11E2 4D                 5514 	ld	c,l
   11E3 44                 5515 	ld	b,h
                           5516 ;	genPlus
                           5517 ;	Can't optimise plus by inc, falling back to the normal way
   11E4 21 00 00           5518 	ld	hl,#_actors
   11E7 09                 5519 	add	hl,bc
   11E8 4D                 5520 	ld	c,l
   11E9 44                 5521 	ld	b,h
                           5522 ;	genPlus
                           5523 ;	AOP_STK for _SceneUpdateActors_b_sloc0_1_0
                           5524 ;	genPlusIncr
                           5525 ;	Can't optimise plus by inc, falling back to the normal way
   11EA 21 01 00           5526 	ld	hl,#0x0001
   11ED 09                 5527 	add	hl,bc
   11EE 7D                 5528 	ld	a,l
   11EF 54                 5529 	ld	d,h
   11F0 F8 09              5530 	lda	hl,9(sp)
                           5531 ;	genPointerGet
                           5532 ;	AOP_STK for _SceneUpdateActors_b_sloc0_1_0
                           5533 ;	AOP_STK for _SceneUpdateActors_b_sloc1_1_0
   11F2 22                 5534 	ld	(hl+),a
   11F3 72                 5535 	ld	(hl),d
   11F4 5F                 5536 	ld	e,a
   11F5 1A                 5537 	ld	a,(de)
   11F6 2B                 5538 	dec	hl
   11F7 2B                 5539 	dec	hl
                           5540 ;	genAnd
                           5541 ;	AOP_STK for _SceneUpdateActors_b_sloc1_1_0
                           5542 ;	AOP_STK for _SceneUpdateActors_b_sloc0_1_0
   11F8 77                 5543 	ld      (hl),a
                           5544 ; Removed redundent load
   11F9 E6 07              5545 	and	a,#0x07
   11FB 23                 5546 	inc	hl
                           5547 ;	genCmpEq
                           5548 ;	AOP_STK for _SceneUpdateActors_b_sloc0_1_0
                           5549 ; genCmpEq: left 1, right 1, result 0
   11FC 77                 5550 	ld      (hl),a
                           5551 ; Removed redundent load
   11FD B7                 5552 	or	a,a
   11FE C2 1C 13           5553 	jp	nz,00122$
   1201 18 03              5554 	jr	00280$
   1203                    5555 00279$:
   1203 C3 1C 13           5556 	jp	00122$
   1206                    5557 00280$:
                           5558 ;	genPlus
                           5559 ;	AOP_STK for _SceneUpdateActors_b_sloc0_1_0
                           5560 ;	genPlusIncr
                           5561 ;	Can't optimise plus by inc, falling back to the normal way
   1206 21 02 00           5562 	ld	hl,#0x0002
   1209 09                 5563 	add	hl,bc
   120A 7D                 5564 	ld	a,l
   120B 54                 5565 	ld	d,h
   120C F8 09              5566 	lda	hl,9(sp)
                           5567 ;	genPointerGet
                           5568 ;	AOP_STK for _SceneUpdateActors_b_sloc0_1_0
                           5569 ;	AOP_STK for _SceneUpdateActors_b_sloc2_1_0
   120E 22                 5570 	ld	(hl+),a
   120F 72                 5571 	ld	(hl),d
   1210 5F                 5572 	ld	e,a
   1211 1A                 5573 	ld	a,(de)
   1212 F8 07              5574 	lda	hl,7(sp)
                           5575 ;	genAnd
                           5576 ;	AOP_STK for _SceneUpdateActors_b_sloc2_1_0
                           5577 ;	AOP_STK for _SceneUpdateActors_b_sloc0_1_0
   1214 77                 5578 	ld      (hl),a
                           5579 ; Removed redundent load
   1215 E6 07              5580 	and	a,#0x07
   1217 23                 5581 	inc	hl
   1218 23                 5582 	inc	hl
                           5583 ;	genCmpEq
                           5584 ;	AOP_STK for _SceneUpdateActors_b_sloc0_1_0
                           5585 ; genCmpEq: left 1, right 1, result 0
   1219 77                 5586 	ld      (hl),a
                           5587 ; Removed redundent load
   121A B7                 5588 	or	a,a
   121B CA 2B 12           5589 	jp	z,00121$
   121E                    5590 00281$:
                           5591 ;	genCmpEq
                           5592 ;	AOP_STK for _SceneUpdateActors_b_sloc2_1_0
                           5593 ; genCmpEq: left 1, right 1, result 0
   121E F8 07              5594 	lda	hl,7(sp)
   1220 7E                 5595 	ld	a,(hl)
   1221 FE FE              5596 	cp	a,#0xFE
   1223 C2 1C 13           5597 	jp	nz,00122$
   1226 18 03              5598 	jr	00283$
   1228                    5599 00282$:
   1228 C3 1C 13           5600 	jp	00122$
   122B                    5601 00283$:
                           5602 ;	genLabel
   122B                    5603 00121$:
                           5604 ;	src/Scene_b.c 417
                           5605 ;	genPointerGet
                           5606 ;	AOP_STK for _SceneUpdateActors_b_sloc0_1_0
   122B 11 00 00           5607 	ld	de,#_actor_move_dest
   122E 1A                 5608 	ld	a,(de)
   122F F8 09              5609 	lda	hl,9(sp)
                           5610 ;	genCmpEq
                           5611 ;	AOP_STK for _SceneUpdateActors_b_sloc1_1_0
                           5612 ;	AOP_STK for _SceneUpdateActors_b_sloc0_1_0
                           5613 ; genCmpEq: left 1, right 1, result 0
                           5614 ; Removed redundent load
   1231 32                 5615 	ld      (hl-),a
   1232 BE                 5616 	cp	(hl)
   1233 20 02              5617 	jr	nz,00284$
   1235 18 03              5618 	jr	00285$
   1237                    5619 00284$:
   1237 C3 82 12           5620 	jp	00116$
   123A                    5621 00285$:
                           5622 ;	src/Scene_b.c 418
                           5623 ;	genPlus
                           5624 ;	AOP_STK for _SceneUpdateActors_b_sloc3_1_0
                           5625 ;	genPlusIncr
                           5626 ;	Can't optimise plus by inc, falling back to the normal way
   123A 11 00 00           5627 	ld	de,#_actor_move_dest
   123D 21 01 00           5628 	ld	hl,#0x0001
   1240 19                 5629 	add	hl,de
   1241 7D                 5630 	ld	a,l
   1242 54                 5631 	ld	d,h
   1243 F8 05              5632 	lda	hl,5(sp)
                           5633 ;	genPointerGet
                           5634 ;	AOP_STK for _SceneUpdateActors_b_sloc3_1_0
                           5635 ;	AOP_STK for _SceneUpdateActors_b_sloc4_1_0
   1245 22                 5636 	ld	(hl+),a
   1246 72                 5637 	ld	(hl),d
   1247 5F                 5638 	ld	e,a
   1248 1A                 5639 	ld	a,(de)
   1249 2B                 5640 	dec	hl
   124A 2B                 5641 	dec	hl
                           5642 ;	genCmpEq
                           5643 ;	AOP_STK for _SceneUpdateActors_b_sloc2_1_0
                           5644 ;	AOP_STK for _SceneUpdateActors_b_sloc4_1_0
                           5645 ; genCmpEq: left 1, right 1, result 0
   124B 77                 5646 	ld      (hl),a
                           5647 ; Removed redundent load
   124C F8 07              5648 	lda	hl,7(sp)
   124E BE                 5649 	cp	(hl)
   124F 20 03              5650 	jr	nz,00286$
   1251 C3 6D 12           5651 	jp	00115$
   1254                    5652 00286$:
                           5653 ;	src/Scene_b.c 420
                           5654 ;	genCmpEq
                           5655 ;	AOP_STK for _SceneUpdateActors_b_sloc2_1_0
                           5656 ; genCmpEq: left 1, right 1, result 0
   1254 F8 07              5657 	lda	hl,7(sp)
   1256 7E                 5658 	ld	a,(hl)
   1257 B7                 5659 	or	a,a
   1258 C2 82 12           5660 	jp	nz,00116$
   125B 18 03              5661 	jr	00288$
   125D                    5662 00287$:
   125D C3 82 12           5663 	jp	00116$
   1260                    5664 00288$:
                           5665 ;	genCmpEq
                           5666 ;	AOP_STK for _SceneUpdateActors_b_sloc4_1_0
                           5667 ; genCmpEq: left 1, right 1, result 0
   1260 F8 04              5668 	lda	hl,4(sp)
   1262 7E                 5669 	ld	a,(hl)
   1263 FE FE              5670 	cp	a,#0xFE
   1265 C2 82 12           5671 	jp	nz,00116$
   1268 18 03              5672 	jr	00290$
   126A                    5673 00289$:
   126A C3 82 12           5674 	jp	00116$
   126D                    5675 00290$:
                           5676 ;	genLabel
   126D                    5677 00115$:
                           5678 ;	src/Scene_b.c 422
                           5679 ;	genAnd
                           5680 ;	AOP_HL for _actor_move_settings
   126D 21 00 00           5681 	ld	hl,#_actor_move_settings
   1270 7E                 5682 	ld	a,(hl)
   1271 E6 7F              5683 	and	a,#0x7F
   1273 77                 5684 	ld	(hl),a
                           5685 ;	src/Scene_b.c 423
                           5686 ;	genAssign
                           5687 ;	AOP_HL for _script_action_complete
   1274 21 00 00           5688 	ld	hl,#_script_action_complete
   1277 36 01              5689 	ld	(hl),#0x01
                           5690 ;	src/Scene_b.c 424
                           5691 ;	genPlus
                           5692 ;	genPlusIncr
   1279 21 0C 00           5693 	ld	hl,#0x000C
   127C 09                 5694 	add	hl,bc
                           5695 ;	genAssign (pointer)
   127D 36 00              5696 	ld	(hl),#0x00
                           5697 ;	genGoto
   127F C3 1C 13           5698 	jp	00122$
                           5699 ;	genLabel
   1282                    5700 00116$:
                           5701 ;	src/Scene_b.c 428
                           5702 ;	genCmpGt
                           5703 ;	AOP_STK for _SceneUpdateActors_b_sloc1_1_0
                           5704 ;	AOP_STK for _SceneUpdateActors_b_sloc0_1_0
   1282 F8 09              5705 	lda	hl,9(sp)
   1284 7E                 5706 	ld	a,(hl)
   1285 2B                 5707 	dec	hl
   1286 96                 5708 	sub	a,(hl)
   1287 D2 96 12           5709 	jp	nc,00111$
                           5710 ;	src/Scene_b.c 430
                           5711 ;	genAddrOf
                           5712 ;	AOP_HL for _update_dir
   128A 11 68 00           5713 	ld	de,#_dir_left
   128D 21 A1 00           5714 	ld	hl,#_update_dir
   1290 73                 5715 	ld	(hl),e
   1291 23                 5716 	inc	hl
   1292 72                 5717 	ld	(hl),d
                           5718 ;	genGoto
   1293 C3 EB 12           5719 	jp	00112$
                           5720 ;	genLabel
   1296                    5721 00111$:
                           5722 ;	src/Scene_b.c 432
                           5723 ;	genCmpLt
                           5724 ;	AOP_STK for _SceneUpdateActors_b_sloc1_1_0
                           5725 ;	AOP_STK for _SceneUpdateActors_b_sloc0_1_0
   1296 F8 08              5726 	lda	hl,8(sp)
   1298 2A                 5727 	ld	a,(hl+)
   1299 96                 5728 	sub	a,(hl)
   129A D2 A9 12           5729 	jp	nc,00108$
                           5730 ;	src/Scene_b.c 434
                           5731 ;	genAddrOf
                           5732 ;	AOP_HL for _update_dir
   129D 11 6A 00           5733 	ld	de,#_dir_right
   12A0 21 A1 00           5734 	ld	hl,#_update_dir
   12A3 73                 5735 	ld	(hl),e
   12A4 23                 5736 	inc	hl
   12A5 72                 5737 	ld	(hl),d
                           5738 ;	genGoto
   12A6 C3 EB 12           5739 	jp	00112$
                           5740 ;	genLabel
   12A9                    5741 00108$:
                           5742 ;	src/Scene_b.c 436
                           5743 ;	genPlus
                           5744 ;	AOP_STK for _SceneUpdateActors_b_sloc3_1_0
                           5745 ;	genPlusIncr
                           5746 ;	Can't optimise plus by inc, falling back to the normal way
   12A9 11 00 00           5747 	ld	de,#_actor_move_dest
   12AC 21 01 00           5748 	ld	hl,#0x0001
   12AF 19                 5749 	add	hl,de
   12B0 7D                 5750 	ld	a,l
   12B1 54                 5751 	ld	d,h
   12B2 F8 05              5752 	lda	hl,5(sp)
                           5753 ;	genPointerGet
                           5754 ;	AOP_STK for _SceneUpdateActors_b_sloc3_1_0
                           5755 ;	AOP_STK for _SceneUpdateActors_b_sloc4_1_0
   12B4 22                 5756 	ld	(hl+),a
   12B5 72                 5757 	ld	(hl),d
   12B6 5F                 5758 	ld	e,a
   12B7 1A                 5759 	ld	a,(de)
   12B8 2B                 5760 	dec	hl
   12B9 2B                 5761 	dec	hl
                           5762 ;	genCmpGt
                           5763 ;	AOP_STK for _SceneUpdateActors_b_sloc2_1_0
                           5764 ;	AOP_STK for _SceneUpdateActors_b_sloc4_1_0
   12BA 77                 5765 	ld      (hl),a
                           5766 ; Removed redundent load
   12BB F8 07              5767 	lda	hl,7(sp)
   12BD 96                 5768 	sub	a,(hl)
   12BE D2 CD 12           5769 	jp	nc,00105$
                           5770 ;	src/Scene_b.c 438
                           5771 ;	genAddrOf
                           5772 ;	AOP_HL for _update_dir
   12C1 11 64 00           5773 	ld	de,#_dir_up
   12C4 21 A1 00           5774 	ld	hl,#_update_dir
   12C7 73                 5775 	ld	(hl),e
   12C8 23                 5776 	inc	hl
   12C9 72                 5777 	ld	(hl),d
                           5778 ;	genGoto
   12CA C3 EB 12           5779 	jp	00112$
                           5780 ;	genLabel
   12CD                    5781 00105$:
                           5782 ;	src/Scene_b.c 440
                           5783 ;	genCmpLt
                           5784 ;	AOP_STK for _SceneUpdateActors_b_sloc2_1_0
                           5785 ;	AOP_STK for _SceneUpdateActors_b_sloc4_1_0
   12CD F8 07              5786 	lda	hl,7(sp)
   12CF 7E                 5787 	ld	a,(hl)
   12D0 F8 04              5788 	lda	hl,4(sp)
   12D2 96                 5789 	sub	a,(hl)
   12D3 D2 E2 12           5790 	jp	nc,00102$
                           5791 ;	src/Scene_b.c 442
                           5792 ;	genAddrOf
                           5793 ;	AOP_HL for _update_dir
   12D6 11 66 00           5794 	ld	de,#_dir_down
   12D9 21 A1 00           5795 	ld	hl,#_update_dir
   12DC 73                 5796 	ld	(hl),e
   12DD 23                 5797 	inc	hl
   12DE 72                 5798 	ld	(hl),d
                           5799 ;	genGoto
   12DF C3 EB 12           5800 	jp	00112$
                           5801 ;	genLabel
   12E2                    5802 00102$:
                           5803 ;	src/Scene_b.c 446
                           5804 ;	genAddrOf
                           5805 ;	AOP_HL for _update_dir
   12E2 11 6C 00           5806 	ld	de,#_dir_none
   12E5 21 A1 00           5807 	ld	hl,#_update_dir
   12E8 73                 5808 	ld	(hl),e
   12E9 23                 5809 	inc	hl
   12EA 72                 5810 	ld	(hl),d
                           5811 ;	genLabel
   12EB                    5812 00112$:
                           5813 ;	src/Scene_b.c 449
                           5814 ;	genIpush
                           5815 ; _saveRegsForCall: sendSetSize: 0 deInUse: 0 bcInUse: 1 deSending: 0
   12EB C5                 5816 	push	bc
                           5817 ;	AOP_HL for _script_actor
   12EC 21 00 00           5818 	ld	hl,#_script_actor
   12EF 7E                 5819 	ld	a,(hl)
   12F0 F5                 5820 	push	af
   12F1 33                 5821 	inc	sp
                           5822 ;	genCall
   12F2 CD C6 1A           5823 	call	_SceneUpdateActorMovement_b
   12F5 E8 01              5824 	lda	sp,1(sp)
   12F7 C1                 5825 	pop	bc
                           5826 ;	src/Scene_b.c 451
                           5827 ;	genPlus
                           5828 ;	genPlusIncr
                           5829 ;	Can't optimise plus by inc, falling back to the normal way
   12F8 79                 5830 	ld	a,c
   12F9 C6 0C              5831 	add	a,#0x0C
   12FB 4F                 5832 	ld	c,a
   12FC 78                 5833 	ld	a,b
   12FD CE 00              5834 	adc	a,#0x00
   12FF 47                 5835 	ld	b,a
                           5836 ;	genPointerGet
                           5837 ;	AOP_STK for _SceneUpdateActors_b_sloc4_1_0
   1300 0A                 5838 	ld	a,(bc)
   1301 F8 04              5839 	lda	hl,4(sp)
                           5840 ;	genCmpEq
                           5841 ;	AOP_STK for _SceneUpdateActors_b_sloc4_1_0
                           5842 ; genCmpEq: left 1, right 1, result 0
   1303 77                 5843 	ld      (hl),a
                           5844 ; Removed redundent load
   1304 B7                 5845 	or	a,a
   1305 C2 1C 13           5846 	jp	nz,00122$
   1308 18 03              5847 	jr	00292$
   130A                    5848 00291$:
   130A C3 1C 13           5849 	jp	00122$
   130D                    5850 00292$:
                           5851 ;	src/Scene_b.c 453
                           5852 ;	genAnd
                           5853 ;	AOP_HL for _actor_move_settings
   130D 21 00 00           5854 	ld	hl,#_actor_move_settings
   1310 7E                 5855 	ld	a,(hl)
   1311 E6 7F              5856 	and	a,#0x7F
   1313 77                 5857 	ld	(hl),a
                           5858 ;	src/Scene_b.c 454
                           5859 ;	genAssign
                           5860 ;	AOP_HL for _script_action_complete
   1314 21 00 00           5861 	ld	hl,#_script_action_complete
   1317 36 01              5862 	ld	(hl),#0x01
                           5863 ;	src/Scene_b.c 455
                           5864 ;	genAssign (pointer)
   1319 3E 00              5865 	ld	a,#0x00
   131B 02                 5866 	ld	(bc),a
                           5867 ;	genLabel
   131C                    5868 00122$:
                           5869 ;	src/Scene_b.c 460
                           5870 ;	genCmpEq
                           5871 ;	AOP_HL for _script_ptr
                           5872 ;	AOP_STK for _SceneUpdateActors_b_sloc2_1_0
                           5873 ; genCmpEq: left 2, right 2, result 1
   131C 21 00 00           5874 	ld	hl,#_script_ptr
   131F 2A                 5875 	ld	a,(hl+)
   1320 B6                 5876 	or	a,(hl)
   1321 C2 28 13           5877 	jp	nz,00293$
   1324 3E 01              5878 	ld	a,#0x01
   1326 18 01              5879 	jr	00294$
   1328                    5880 00293$:
   1328 AF                 5881 	xor	a,a
   1329                    5882 00294$:
   1329 F8 07              5883 	lda	hl,7(sp)
   132B 77                 5884 	ld	(hl),a
                           5885 ;	genIfx
                           5886 ;	AOP_STK for _SceneUpdateActors_b_sloc2_1_0
   132C AF                 5887 	xor	a,a
   132D B6                 5888 	or	a,(hl)
   132E CA 5B 16           5889 	jp	z,00155$
                           5890 ;	src/Scene_b.c 462
                           5891 ;	genAnd
                           5892 ;	AOP_HL for _time
   1331 21 00 00           5893 	ld	hl,#_time
   1334 7E                 5894 	ld	a,(hl)
   1335 E6 3F              5895 	and	a,#0x3F
                           5896 ;	genCmpEq
                           5897 ; genCmpEq: left 1, right 1, result 0
   1337 47                 5898 	ld	b,a
   1338 B7                 5899 	or	a,a
   1339 C2 BD 15           5900 	jp	nz,00152$
   133C 18 03              5901 	jr	00296$
   133E                    5902 00295$:
   133E C3 BD 15           5903 	jp	00152$
   1341                    5904 00296$:
                           5905 ;	src/Scene_b.c 464
                           5906 ;	genCall
                           5907 ; _saveRegsForCall: sendSetSize: 0 deInUse: 0 bcInUse: 0 deSending: 0
   1341 CD 00 00           5908 	call	_rand
   1344 43                 5909 	ld	b,e
                           5910 ;	genAssign
                           5911 ;	AOP_STK for _SceneUpdateActors_b_r_1_1
   1345 F8 0D              5912 	lda	hl,13(sp)
   1347 70                 5913 	ld	(hl),b
                           5914 ;	src/Scene_b.c 466
                           5915 ;	genCmpEq
                           5916 ;	AOP_HL for _time
                           5917 ; genCmpEq: left 1, right 1, result 0
   1348 21 00 00           5918 	ld	hl,#_time
   134B 7E                 5919 	ld	a,(hl)
   134C B7                 5920 	or	a,a
   134D CA 5E 13           5921 	jp	z,00142$
   1350                    5922 00297$:
                           5923 ;	genCmpEq
                           5924 ;	AOP_HL for _time
                           5925 ; genCmpEq: left 1, right 1, result 0
   1350 21 00 00           5926 	ld	hl,#_time
   1353 7E                 5927 	ld	a,(hl)
   1354 FE 80              5928 	cp	a,#0x80
   1356 C2 8E 14           5929 	jp	nz,00143$
   1359 18 03              5930 	jr	00299$
   135B                    5931 00298$:
   135B C3 8E 14           5932 	jp	00143$
   135E                    5933 00299$:
                           5934 ;	genLabel
   135E                    5935 00142$:
                           5936 ;	src/Scene_b.c 469
                           5937 ;	genAnd
                           5938 ;	AOP_HL for _scene_num_actors
   135E 21 11 00           5939 	ld	hl,#_scene_num_actors
   1361 7E                 5940 	ld	a,(hl)
   1362 E6 01              5941 	and	a,#0x01
   1364 20 03              5942 	jr	nz,00300$
   1366 C3 73 13           5943 	jp	00127$
   1369                    5944 00300$:
                           5945 ;	src/Scene_b.c 471
                           5946 ;	genAssign
                           5947 ;	AOP_HL for _scene_num_actors
                           5948 ;	AOP_STK for _SceneUpdateActors_b_len_1_1
   1369 21 11 00           5949 	ld	hl,#_scene_num_actors
   136C 7E                 5950 	ld	a,(hl)
   136D F8 0E              5951 	lda	hl,14(sp)
   136F 77                 5952 	ld	(hl),a
                           5953 ;	genGoto
   1370 C3 7C 13           5954 	jp	00128$
                           5955 ;	genLabel
   1373                    5956 00127$:
                           5957 ;	src/Scene_b.c 475
                           5958 ;	genPlus
                           5959 ;	AOP_HL for _scene_num_actors
                           5960 ;	AOP_STK for _SceneUpdateActors_b_len_1_1
                           5961 ;	genPlusIncr
                           5962 ;	Can't optimise plus by inc, falling back to the normal way
   1373 21 11 00           5963 	ld	hl,#_scene_num_actors
   1376 7E                 5964 	ld	a,(hl)
   1377 C6 01              5965 	add	a,#0x01
   1379 F8 0E              5966 	lda	hl,14(sp)
   137B 77                 5967 	ld	(hl),a
                           5968 ;	genLabel
   137C                    5969 00128$:
                           5970 ;	src/Scene_b.c 477
                           5971 ;	genAssign
                           5972 ;	AOP_STK for _SceneUpdateActors_b_i_1_1
   137C F8 0F              5973 	lda	hl,15(sp)
   137E 36 01              5974 	ld	(hl),#0x01
                           5975 ;	genLabel
   1380                    5976 00198$:
                           5977 ;	genCmpEq
                           5978 ;	AOP_STK for _SceneUpdateActors_b_i_1_1
                           5979 ;	AOP_STK for _SceneUpdateActors_b_len_1_1
                           5980 ; genCmpEq: left 1, right 1, result 0
   1380 F8 0E              5981 	lda	hl,14(sp)
   1382 2A                 5982 	ld	a,(hl+)
   1383 BE                 5983 	cp	(hl)
   1384 20 03              5984 	jr	nz,00301$
   1386 C3 5B 16           5985 	jp	00155$
   1389                    5986 00301$:
                           5987 ;	src/Scene_b.c 479
                           5988 ;	genMult
                           5989 ;	AOP_STK for _SceneUpdateActors_b_i_1_1
                           5990 ;	AOP_STK for _SceneUpdateActors_b_sloc3_1_0
   1389 F8 0F              5991 	lda	hl,15(sp)
   138B 5E                 5992 	ld	e,(hl)
   138C 16 00              5993 	ld	d,#0x00
   138E 6B                 5994 	ld	l,e
   138F 62                 5995 	ld	h,d
   1390 29                 5996 	add	hl,hl
   1391 29                 5997 	add	hl,hl
   1392 19                 5998 	add	hl,de
   1393 29                 5999 	add	hl,hl
   1394 19                 6000 	add	hl,de
   1395 29                 6001 	add	hl,hl
   1396 7D                 6002 	ld	a,l
   1397 54                 6003 	ld	d,h
   1398 F8 05              6004 	lda	hl,5(sp)
   139A 22                 6005 	ld	(hl+),a
   139B 72                 6006 	ld	(hl),d
                           6007 ;	genPlus
                           6008 ;	AOP_STK for _SceneUpdateActors_b_sloc3_1_0
                           6009 ;	AOP_STK for _SceneUpdateActors_b_sloc0_1_0
                           6010 ;	Can't optimise plus by inc, falling back to the normal way
   139C 11 00 00           6011 	ld	de,#_actors
   139F 2B                 6012 	dec	hl
   13A0 2A                 6013 	ld	a,(hl+)
   13A1 66                 6014 	ld	h,(hl)
   13A2 6F                 6015 	ld	l,a
   13A3 19                 6016 	add	hl,de
   13A4 7D                 6017 	ld	a,l
   13A5 54                 6018 	ld	d,h
   13A6 F8 09              6019 	lda	hl,9(sp)
   13A8 22                 6020 	ld	(hl+),a
   13A9 72                 6021 	ld	(hl),d
                           6022 ;	genPlus
                           6023 ;	AOP_STK for _SceneUpdateActors_b_sloc0_1_0
                           6024 ;	AOP_STK for _SceneUpdateActors_b_sloc3_1_0
                           6025 ;	genPlusIncr
                           6026 ;	Can't optimise plus by inc, falling back to the normal way
   13AA 2B                 6027 	dec	hl
   13AB 5E                 6028 	ld	e,(hl)
   13AC 23                 6029 	inc	hl
   13AD 56                 6030 	ld	d,(hl)
   13AE 21 15 00           6031 	ld	hl,#0x0015
   13B1 19                 6032 	add	hl,de
   13B2 7D                 6033 	ld	a,l
   13B3 54                 6034 	ld	d,h
   13B4 F8 05              6035 	lda	hl,5(sp)
                           6036 ;	genPointerGet
                           6037 ;	AOP_STK for _SceneUpdateActors_b_sloc3_1_0
                           6038 ;	AOP_STK for _SceneUpdateActors_b_sloc4_1_0
   13B6 22                 6039 	ld	(hl+),a
   13B7 72                 6040 	ld	(hl),d
   13B8 5F                 6041 	ld	e,a
   13B9 1A                 6042 	ld	a,(de)
   13BA 2B                 6043 	dec	hl
   13BB 2B                 6044 	dec	hl
                           6045 ;	genCmpEq
                           6046 ;	AOP_STK for _SceneUpdateActors_b_sloc4_1_0
                           6047 ; genCmpEq: left 1, right 1, result 0
   13BC 77                 6048 	ld      (hl),a
                           6049 ; Removed redundent load
   13BD FE 03              6050 	cp	a,#0x03
   13BF C2 33 14           6051 	jp	nz,00132$
   13C2 18 03              6052 	jr	00303$
   13C4                    6053 00302$:
   13C4 C3 33 14           6054 	jp	00132$
   13C7                    6055 00303$:
                           6056 ;	src/Scene_b.c 481
                           6057 ;	genAnd
                           6058 ;	AOP_STK for _SceneUpdateActors_b_r_1_1
                           6059 ;	AOP_STK for _SceneUpdateActors_b_sloc3_1_0
   13C7 F8 0D              6060 	lda	hl,13(sp)
   13C9 7E                 6061 	ld	a,(hl)
   13CA E6 03              6062 	and	a,#0x03
   13CC F8 05              6063 	lda	hl,5(sp)
                           6064 ;	genCast
                           6065 ;	AOP_STK for _SceneUpdateActors_b_sloc3_1_0
                           6066 ;	AOP_STK for _SceneUpdateActors_b_sloc5_1_0
   13CE 77                 6067 	ld      (hl),a
                           6068 ; Removed redundent load
   13CF F8 02              6069 	lda	hl,2(sp)
   13D1 77                 6070 	ld	(hl),a
   13D2 F8 05              6071 	lda	hl,5(sp)
   13D4 7E                 6072 	ld	a,(hl)
   13D5 17                 6073 	rla	
   13D6 9F                 6074 	sbc	a,a
   13D7 2B                 6075 	dec	hl
   13D8 2B                 6076 	dec	hl
                           6077 ;	genLeftShift
                           6078 ;	AOP_STK for _SceneUpdateActors_b_sloc5_1_0
                           6079 ;	AOP_STK for _SceneUpdateActors_b_sloc3_1_0
   13D9 32                 6080 	ld      (hl-),a
   13DA 7E                 6081 	ld	a,(hl)
   13DB F8 05              6082 	lda	hl,5(sp)
   13DD 32                 6083 	ld      (hl-),a
   13DE 2B                 6084 	dec	hl
   13DF 7E                 6085 	ld	a,(hl)
   13E0 F8 06              6086 	lda	hl,6(sp)
   13E2 32                 6087 	ld      (hl-),a
   13E3 CB 26              6088 	sla	(hl)
   13E5 23                 6089 	inc	hl
   13E6 CB 16              6090 	rl	(hl)
                           6091 ;	genPlus
                           6092 ;	AOP_STK for _SceneUpdateActors_b_sloc3_1_0
                           6093 ;	AOP_STK for _SceneUpdateActors_b_sloc5_1_0
                           6094 ;	Can't optimise plus by inc, falling back to the normal way
   13E8 11 97 00           6095 	ld	de,#_directions
   13EB 2B                 6096 	dec	hl
   13EC 2A                 6097 	ld	a,(hl+)
   13ED 66                 6098 	ld	h,(hl)
   13EE 6F                 6099 	ld	l,a
   13EF 19                 6100 	add	hl,de
   13F0 7D                 6101 	ld	a,l
   13F1 54                 6102 	ld	d,h
   13F2 F8 02              6103 	lda	hl,2(sp)
                           6104 ;	genPointerGet
                           6105 ;	AOP_STK for _SceneUpdateActors_b_sloc5_1_0
                           6106 ;	AOP_STK for _SceneUpdateActors_b_sloc3_1_0
   13F4 22                 6107 	ld	(hl+),a
   13F5 72                 6108 	ld	(hl),d
   13F6 5F                 6109 	ld	e,a
   13F7 1A                 6110 	ld	a,(de)
   13F8 23                 6111 	inc	hl
   13F9 23                 6112 	inc	hl
   13FA 77                 6113 	ld	(hl),a
   13FB 13                 6114 	inc	de
   13FC 1A                 6115 	ld	a,(de)
   13FD 23                 6116 	inc	hl
   13FE 77                 6117 	ld	(hl),a
                           6118 ;	genPlus
                           6119 ;	AOP_STK for _SceneUpdateActors_b_sloc0_1_0
                           6120 ;	AOP_STK for _SceneUpdateActors_b_sloc5_1_0
                           6121 ;	genPlusIncr
                           6122 ;	Can't optimise plus by inc, falling back to the normal way
   13FF F8 09              6123 	lda	hl,9(sp)
   1401 5E                 6124 	ld	e,(hl)
   1402 23                 6125 	inc	hl
   1403 56                 6126 	ld	d,(hl)
   1404 21 03 00           6127 	ld	hl,#0x0003
   1407 19                 6128 	add	hl,de
   1408 7D                 6129 	ld	a,l
   1409 54                 6130 	ld	d,h
   140A F8 02              6131 	lda	hl,2(sp)
   140C 22                 6132 	ld	(hl+),a
   140D 72                 6133 	ld	(hl),d
                           6134 ;	genIpush
                           6135 ; _saveRegsForCall: sendSetSize: 0 deInUse: 0 bcInUse: 0 deSending: 0
   140E 21 02 00           6136 	ld	hl,#0x0002
   1411 E5                 6137 	push	hl
                           6138 ;	genIpush
                           6139 ;	AOP_STK for _SceneUpdateActors_b_sloc3_1_0
   1412 F8 07              6140 	lda	hl,7(sp)
   1414 2A                 6141 	ld	a,(hl+)
   1415 66                 6142 	ld	h,(hl)
   1416 6F                 6143 	ld	l,a
   1417 E5                 6144 	push	hl
                           6145 ;	genIpush
                           6146 ;	AOP_STK for _SceneUpdateActors_b_sloc5_1_0
   1418 F8 06              6147 	lda	hl,6(sp)
   141A 2A                 6148 	ld	a,(hl+)
   141B 66                 6149 	ld	h,(hl)
   141C 6F                 6150 	ld	l,a
   141D E5                 6151 	push	hl
                           6152 ;	genCall
   141E CD 00 00           6153 	call	_memcpy
   1421 E8 06              6154 	lda	sp,6(sp)
                           6155 ;	src/Scene_b.c 482
                           6156 ;	genIpush
                           6157 ; _saveRegsForCall: sendSetSize: 0 deInUse: 0 bcInUse: 0 deSending: 0
                           6158 ;	AOP_STK for _SceneUpdateActors_b_i_1_1
   1423 F8 0F              6159 	lda	hl,15(sp)
   1425 7E                 6160 	ld	a,(hl)
   1426 F5                 6161 	push	af
   1427 33                 6162 	inc	sp
                           6163 ;	genCall
   1428 CD 6F 24           6164 	call	_SceneRenderActor_b
   142B E8 01              6165 	lda	sp,1(sp)
                           6166 ;	src/Scene_b.c 483
                           6167 ;	genPlus
                           6168 ;	AOP_STK for _SceneUpdateActors_b_r_1_1
                           6169 ;	genPlusIncr
   142D F8 0D              6170 	lda	hl,13(sp)
   142F 34                 6171 	inc	(hl)
                           6172 ;	genGoto
   1430 C3 87 14           6173 	jp	00200$
                           6174 ;	genLabel
   1433                    6175 00132$:
                           6176 ;	src/Scene_b.c 485
                           6177 ;	genCmpEq
                           6178 ;	AOP_STK for _SceneUpdateActors_b_sloc4_1_0
                           6179 ; genCmpEq: left 1, right 1, result 0
   1433 F8 04              6180 	lda	hl,4(sp)
   1435 7E                 6181 	ld	a,(hl)
   1436 FE 05              6182 	cp	a,#0x05
   1438 C2 87 14           6183 	jp	nz,00200$
   143B 18 03              6184 	jr	00307$
   143D                    6185 00306$:
   143D C3 87 14           6186 	jp	00200$
   1440                    6187 00307$:
                           6188 ;	src/Scene_b.c 487
                           6189 ;	genAnd
                           6190 ;	AOP_STK for _SceneUpdateActors_b_r_1_1
                           6191 ;	AOP_STK for _SceneUpdateActors_b_sloc5_1_0
   1440 F8 0D              6192 	lda	hl,13(sp)
   1442 7E                 6193 	ld	a,(hl)
   1443 E6 03              6194 	and	a,#0x03
   1445 F8 02              6195 	lda	hl,2(sp)
                           6196 ;	genCast
                           6197 ;	AOP_STK for _SceneUpdateActors_b_sloc5_1_0
                           6198 ;	AOP_STK for _SceneUpdateActors_b_sloc3_1_0
   1447 77                 6199 	ld      (hl),a
                           6200 ; Removed redundent load
   1448 F8 05              6201 	lda	hl,5(sp)
   144A 77                 6202 	ld	(hl),a
   144B F8 02              6203 	lda	hl,2(sp)
   144D 7E                 6204 	ld	a,(hl)
   144E 17                 6205 	rla	
   144F 9F                 6206 	sbc	a,a
   1450 F8 06              6207 	lda	hl,6(sp)
                           6208 ;	genLeftShift
                           6209 ;	AOP_STK for _SceneUpdateActors_b_sloc3_1_0
                           6210 ;	AOP_STK for _SceneUpdateActors_b_sloc5_1_0
   1452 32                 6211 	ld      (hl-),a
   1453 7E                 6212 	ld	a,(hl)
   1454 F8 02              6213 	lda	hl,2(sp)
   1456 77                 6214 	ld	(hl),a
   1457 F8 06              6215 	lda	hl,6(sp)
   1459 7E                 6216 	ld	a,(hl)
   145A F8 03              6217 	lda	hl,3(sp)
   145C 32                 6218 	ld      (hl-),a
   145D CB 26              6219 	sla	(hl)
   145F 23                 6220 	inc	hl
   1460 CB 16              6221 	rl	(hl)
                           6222 ;	genPlus
                           6223 ;	AOP_STK for _SceneUpdateActors_b_sloc5_1_0
                           6224 ;	AOP_STK for _SceneUpdateActors_b_sloc3_1_0
                           6225 ;	Can't optimise plus by inc, falling back to the normal way
   1462 11 97 00           6226 	ld	de,#_directions
   1465 2B                 6227 	dec	hl
   1466 2A                 6228 	ld	a,(hl+)
   1467 66                 6229 	ld	h,(hl)
   1468 6F                 6230 	ld	l,a
   1469 19                 6231 	add	hl,de
   146A 7D                 6232 	ld	a,l
   146B 54                 6233 	ld	d,h
   146C F8 05              6234 	lda	hl,5(sp)
                           6235 ;	genPointerGet
                           6236 ;	AOP_STK for _SceneUpdateActors_b_sloc3_1_0
                           6237 ;	AOP_HL for _update_dir
   146E 22                 6238 	ld	(hl+),a
   146F 72                 6239 	ld	(hl),d
   1470 5F                 6240 	ld	e,a
   1471 1A                 6241 	ld	a,(de)
   1472 21 A1 00           6242 	ld	hl,#_update_dir
   1475 77                 6243 	ld	(hl),a
   1476 13                 6244 	inc	de
   1477 1A                 6245 	ld	a,(de)
   1478 23                 6246 	inc	hl
   1479 77                 6247 	ld	(hl),a
                           6248 ;	src/Scene_b.c 488
                           6249 ;	genIpush
                           6250 ; _saveRegsForCall: sendSetSize: 0 deInUse: 0 bcInUse: 0 deSending: 0
                           6251 ;	AOP_STK for _SceneUpdateActors_b_i_1_1
   147A F8 0F              6252 	lda	hl,15(sp)
   147C 7E                 6253 	ld	a,(hl)
   147D F5                 6254 	push	af
   147E 33                 6255 	inc	sp
                           6256 ;	genCall
   147F CD C6 1A           6257 	call	_SceneUpdateActorMovement_b
   1482 E8 01              6258 	lda	sp,1(sp)
                           6259 ;	src/Scene_b.c 489
                           6260 ;	genPlus
                           6261 ;	AOP_STK for _SceneUpdateActors_b_r_1_1
                           6262 ;	genPlusIncr
   1484 F8 0D              6263 	lda	hl,13(sp)
   1486 34                 6264 	inc	(hl)
                           6265 ;	genLabel
   1487                    6266 00200$:
                           6267 ;	src/Scene_b.c 477
                           6268 ;	genPlus
                           6269 ;	AOP_STK for _SceneUpdateActors_b_i_1_1
                           6270 ;	genPlusIncr
   1487 F8 0F              6271 	lda	hl,15(sp)
   1489 34                 6272 	inc	(hl)
   148A 34                 6273 	inc	(hl)
                           6274 ;	genGoto
   148B C3 80 13           6275 	jp	00198$
                           6276 ;	genLabel
   148E                    6277 00143$:
                           6278 ;	src/Scene_b.c 496
                           6279 ;	genAnd
                           6280 ;	AOP_HL for _scene_num_actors
   148E 21 11 00           6281 	ld	hl,#_scene_num_actors
   1491 7E                 6282 	ld	a,(hl)
   1492 E6 01              6283 	and	a,#0x01
   1494 20 03              6284 	jr	nz,00310$
   1496 C3 A5 14           6285 	jp	00135$
   1499                    6286 00310$:
                           6287 ;	src/Scene_b.c 498
                           6288 ;	genPlus
                           6289 ;	AOP_HL for _scene_num_actors
                           6290 ;	AOP_STK for _SceneUpdateActors_b_len_1_1
                           6291 ;	genPlusIncr
                           6292 ;	Can't optimise plus by inc, falling back to the normal way
   1499 21 11 00           6293 	ld	hl,#_scene_num_actors
   149C 7E                 6294 	ld	a,(hl)
   149D C6 01              6295 	add	a,#0x01
   149F F8 0E              6296 	lda	hl,14(sp)
   14A1 77                 6297 	ld	(hl),a
                           6298 ;	genGoto
   14A2 C3 AC 14           6299 	jp	00136$
                           6300 ;	genLabel
   14A5                    6301 00135$:
                           6302 ;	src/Scene_b.c 502
                           6303 ;	genAssign
                           6304 ;	AOP_HL for _scene_num_actors
                           6305 ;	AOP_STK for _SceneUpdateActors_b_len_1_1
   14A5 21 11 00           6306 	ld	hl,#_scene_num_actors
   14A8 7E                 6307 	ld	a,(hl)
   14A9 F8 0E              6308 	lda	hl,14(sp)
   14AB 77                 6309 	ld	(hl),a
                           6310 ;	genLabel
   14AC                    6311 00136$:
                           6312 ;	src/Scene_b.c 504
                           6313 ;	genAssign
                           6314 ;	AOP_STK for _SceneUpdateActors_b_i_1_1
   14AC F8 0F              6315 	lda	hl,15(sp)
   14AE 36 02              6316 	ld	(hl),#0x02
                           6317 ;	genLabel
   14B0                    6318 00202$:
                           6319 ;	genCmpEq
                           6320 ;	AOP_STK for _SceneUpdateActors_b_i_1_1
                           6321 ;	AOP_STK for _SceneUpdateActors_b_len_1_1
                           6322 ; genCmpEq: left 1, right 1, result 0
   14B0 F8 0E              6323 	lda	hl,14(sp)
   14B2 2A                 6324 	ld	a,(hl+)
   14B3 BE                 6325 	cp	(hl)
   14B4 20 03              6326 	jr	nz,00311$
   14B6 C3 5B 16           6327 	jp	00155$
   14B9                    6328 00311$:
                           6329 ;	src/Scene_b.c 506
                           6330 ;	genMult
                           6331 ;	AOP_STK for _SceneUpdateActors_b_i_1_1
                           6332 ;	AOP_STK for _SceneUpdateActors_b_sloc5_1_0
   14B9 F8 0F              6333 	lda	hl,15(sp)
   14BB 5E                 6334 	ld	e,(hl)
   14BC 16 00              6335 	ld	d,#0x00
   14BE 6B                 6336 	ld	l,e
   14BF 62                 6337 	ld	h,d
   14C0 29                 6338 	add	hl,hl
   14C1 29                 6339 	add	hl,hl
   14C2 19                 6340 	add	hl,de
   14C3 29                 6341 	add	hl,hl
   14C4 19                 6342 	add	hl,de
   14C5 29                 6343 	add	hl,hl
   14C6 7D                 6344 	ld	a,l
   14C7 54                 6345 	ld	d,h
   14C8 F8 02              6346 	lda	hl,2(sp)
   14CA 22                 6347 	ld	(hl+),a
   14CB 72                 6348 	ld	(hl),d
                           6349 ;	genPlus
                           6350 ;	AOP_STK for _SceneUpdateActors_b_sloc5_1_0
                           6351 ;	AOP_STK for _SceneUpdateActors_b_sloc3_1_0
                           6352 ;	Can't optimise plus by inc, falling back to the normal way
   14CC 11 00 00           6353 	ld	de,#_actors
   14CF 2B                 6354 	dec	hl
   14D0 2A                 6355 	ld	a,(hl+)
   14D1 66                 6356 	ld	h,(hl)
   14D2 6F                 6357 	ld	l,a
   14D3 19                 6358 	add	hl,de
   14D4 7D                 6359 	ld	a,l
   14D5 54                 6360 	ld	d,h
   14D6 F8 05              6361 	lda	hl,5(sp)
   14D8 22                 6362 	ld	(hl+),a
   14D9 72                 6363 	ld	(hl),d
                           6364 ;	genPlus
                           6365 ;	AOP_STK for _SceneUpdateActors_b_sloc3_1_0
                           6366 ;	AOP_STK for _SceneUpdateActors_b_sloc5_1_0
                           6367 ;	genPlusIncr
                           6368 ;	Can't optimise plus by inc, falling back to the normal way
   14DA 2B                 6369 	dec	hl
   14DB 5E                 6370 	ld	e,(hl)
   14DC 23                 6371 	inc	hl
   14DD 56                 6372 	ld	d,(hl)
   14DE 21 15 00           6373 	ld	hl,#0x0015
   14E1 19                 6374 	add	hl,de
   14E2 7D                 6375 	ld	a,l
   14E3 54                 6376 	ld	d,h
   14E4 F8 02              6377 	lda	hl,2(sp)
                           6378 ;	genPointerGet
                           6379 ;	AOP_STK for _SceneUpdateActors_b_sloc5_1_0
                           6380 ;	AOP_STK for _SceneUpdateActors_b_sloc4_1_0
   14E6 22                 6381 	ld	(hl+),a
   14E7 72                 6382 	ld	(hl),d
   14E8 5F                 6383 	ld	e,a
   14E9 1A                 6384 	ld	a,(de)
   14EA 23                 6385 	inc	hl
                           6386 ;	genCmpEq
                           6387 ;	AOP_STK for _SceneUpdateActors_b_sloc4_1_0
                           6388 ; genCmpEq: left 1, right 1, result 0
   14EB 77                 6389 	ld      (hl),a
                           6390 ; Removed redundent load
   14EC FE 03              6391 	cp	a,#0x03
   14EE C2 62 15           6392 	jp	nz,00140$
   14F1 18 03              6393 	jr	00313$
   14F3                    6394 00312$:
   14F3 C3 62 15           6395 	jp	00140$
   14F6                    6396 00313$:
                           6397 ;	src/Scene_b.c 508
                           6398 ;	genAnd
                           6399 ;	AOP_STK for _SceneUpdateActors_b_r_1_1
                           6400 ;	AOP_STK for _SceneUpdateActors_b_sloc5_1_0
   14F6 F8 0D              6401 	lda	hl,13(sp)
   14F8 7E                 6402 	ld	a,(hl)
   14F9 E6 03              6403 	and	a,#0x03
   14FB F8 02              6404 	lda	hl,2(sp)
                           6405 ;	genCast
                           6406 ;	AOP_STK for _SceneUpdateActors_b_sloc5_1_0
                           6407 ;	AOP_STK for _SceneUpdateActors_b_sloc0_1_0
   14FD 77                 6408 	ld      (hl),a
                           6409 ; Removed redundent load
   14FE F8 09              6410 	lda	hl,9(sp)
   1500 77                 6411 	ld	(hl),a
   1501 F8 02              6412 	lda	hl,2(sp)
   1503 7E                 6413 	ld	a,(hl)
   1504 17                 6414 	rla	
   1505 9F                 6415 	sbc	a,a
   1506 F8 0A              6416 	lda	hl,10(sp)
                           6417 ;	genLeftShift
                           6418 ;	AOP_STK for _SceneUpdateActors_b_sloc0_1_0
                           6419 ;	AOP_STK for _SceneUpdateActors_b_sloc5_1_0
   1508 32                 6420 	ld      (hl-),a
   1509 7E                 6421 	ld	a,(hl)
   150A F8 02              6422 	lda	hl,2(sp)
   150C 77                 6423 	ld	(hl),a
   150D F8 0A              6424 	lda	hl,10(sp)
   150F 7E                 6425 	ld	a,(hl)
   1510 F8 03              6426 	lda	hl,3(sp)
   1512 32                 6427 	ld      (hl-),a
   1513 CB 26              6428 	sla	(hl)
   1515 23                 6429 	inc	hl
   1516 CB 16              6430 	rl	(hl)
                           6431 ;	genPlus
                           6432 ;	AOP_STK for _SceneUpdateActors_b_sloc5_1_0
                           6433 ;	AOP_STK for _SceneUpdateActors_b_sloc0_1_0
                           6434 ;	Can't optimise plus by inc, falling back to the normal way
   1518 11 97 00           6435 	ld	de,#_directions
   151B 2B                 6436 	dec	hl
   151C 2A                 6437 	ld	a,(hl+)
   151D 66                 6438 	ld	h,(hl)
   151E 6F                 6439 	ld	l,a
   151F 19                 6440 	add	hl,de
   1520 7D                 6441 	ld	a,l
   1521 54                 6442 	ld	d,h
   1522 F8 09              6443 	lda	hl,9(sp)
                           6444 ;	genPointerGet
                           6445 ;	AOP_STK for _SceneUpdateActors_b_sloc0_1_0
                           6446 ;	AOP_STK for _SceneUpdateActors_b_sloc5_1_0
   1524 22                 6447 	ld	(hl+),a
   1525 72                 6448 	ld	(hl),d
   1526 5F                 6449 	ld	e,a
   1527 1A                 6450 	ld	a,(de)
   1528 F8 02              6451 	lda	hl,2(sp)
   152A 77                 6452 	ld	(hl),a
   152B 13                 6453 	inc	de
   152C 1A                 6454 	ld	a,(de)
   152D 23                 6455 	inc	hl
                           6456 ;	genPlus
                           6457 ;	AOP_STK for _SceneUpdateActors_b_sloc3_1_0
                           6458 ;	AOP_STK for _SceneUpdateActors_b_sloc0_1_0
                           6459 ;	genPlusIncr
                           6460 ;	Can't optimise plus by inc, falling back to the normal way
   152E 22                 6461 	ld	(hl+),a
   152F 23                 6462 	inc	hl
   1530 5E                 6463 	ld	e,(hl)
   1531 23                 6464 	inc	hl
   1532 56                 6465 	ld	d,(hl)
   1533 21 03 00           6466 	ld	hl,#0x0003
   1536 19                 6467 	add	hl,de
   1537 7D                 6468 	ld	a,l
   1538 54                 6469 	ld	d,h
   1539 F8 09              6470 	lda	hl,9(sp)
   153B 22                 6471 	ld	(hl+),a
   153C 72                 6472 	ld	(hl),d
                           6473 ;	genIpush
                           6474 ; _saveRegsForCall: sendSetSize: 0 deInUse: 0 bcInUse: 0 deSending: 0
   153D 21 02 00           6475 	ld	hl,#0x0002
   1540 E5                 6476 	push	hl
                           6477 ;	genIpush
                           6478 ;	AOP_STK for _SceneUpdateActors_b_sloc5_1_0
   1541 F8 04              6479 	lda	hl,4(sp)
   1543 2A                 6480 	ld	a,(hl+)
   1544 66                 6481 	ld	h,(hl)
   1545 6F                 6482 	ld	l,a
   1546 E5                 6483 	push	hl
                           6484 ;	genIpush
                           6485 ;	AOP_STK for _SceneUpdateActors_b_sloc0_1_0
   1547 F8 0D              6486 	lda	hl,13(sp)
   1549 2A                 6487 	ld	a,(hl+)
   154A 66                 6488 	ld	h,(hl)
   154B 6F                 6489 	ld	l,a
   154C E5                 6490 	push	hl
                           6491 ;	genCall
   154D CD 00 00           6492 	call	_memcpy
   1550 E8 06              6493 	lda	sp,6(sp)
                           6494 ;	src/Scene_b.c 509
                           6495 ;	genIpush
                           6496 ; _saveRegsForCall: sendSetSize: 0 deInUse: 0 bcInUse: 0 deSending: 0
                           6497 ;	AOP_STK for _SceneUpdateActors_b_i_1_1
   1552 F8 0F              6498 	lda	hl,15(sp)
   1554 7E                 6499 	ld	a,(hl)
   1555 F5                 6500 	push	af
   1556 33                 6501 	inc	sp
                           6502 ;	genCall
   1557 CD 6F 24           6503 	call	_SceneRenderActor_b
   155A E8 01              6504 	lda	sp,1(sp)
                           6505 ;	src/Scene_b.c 510
                           6506 ;	genPlus
                           6507 ;	AOP_STK for _SceneUpdateActors_b_r_1_1
                           6508 ;	genPlusIncr
   155C F8 0D              6509 	lda	hl,13(sp)
   155E 34                 6510 	inc	(hl)
                           6511 ;	genGoto
   155F C3 B6 15           6512 	jp	00204$
                           6513 ;	genLabel
   1562                    6514 00140$:
                           6515 ;	src/Scene_b.c 512
                           6516 ;	genCmpEq
                           6517 ;	AOP_STK for _SceneUpdateActors_b_sloc4_1_0
                           6518 ; genCmpEq: left 1, right 1, result 0
   1562 F8 04              6519 	lda	hl,4(sp)
   1564 7E                 6520 	ld	a,(hl)
   1565 FE 05              6521 	cp	a,#0x05
   1567 C2 B6 15           6522 	jp	nz,00204$
   156A 18 03              6523 	jr	00317$
   156C                    6524 00316$:
   156C C3 B6 15           6525 	jp	00204$
   156F                    6526 00317$:
                           6527 ;	src/Scene_b.c 514
                           6528 ;	genAnd
                           6529 ;	AOP_STK for _SceneUpdateActors_b_r_1_1
                           6530 ;	AOP_STK for _SceneUpdateActors_b_sloc5_1_0
   156F F8 0D              6531 	lda	hl,13(sp)
   1571 7E                 6532 	ld	a,(hl)
   1572 E6 03              6533 	and	a,#0x03
   1574 F8 02              6534 	lda	hl,2(sp)
                           6535 ;	genCast
                           6536 ;	AOP_STK for _SceneUpdateActors_b_sloc5_1_0
                           6537 ;	AOP_STK for _SceneUpdateActors_b_sloc3_1_0
   1576 77                 6538 	ld      (hl),a
                           6539 ; Removed redundent load
   1577 F8 05              6540 	lda	hl,5(sp)
   1579 77                 6541 	ld	(hl),a
   157A F8 02              6542 	lda	hl,2(sp)
   157C 7E                 6543 	ld	a,(hl)
   157D 17                 6544 	rla	
   157E 9F                 6545 	sbc	a,a
   157F F8 06              6546 	lda	hl,6(sp)
                           6547 ;	genLeftShift
                           6548 ;	AOP_STK for _SceneUpdateActors_b_sloc3_1_0
                           6549 ;	AOP_STK for _SceneUpdateActors_b_sloc5_1_0
   1581 32                 6550 	ld      (hl-),a
   1582 7E                 6551 	ld	a,(hl)
   1583 F8 02              6552 	lda	hl,2(sp)
   1585 77                 6553 	ld	(hl),a
   1586 F8 06              6554 	lda	hl,6(sp)
   1588 7E                 6555 	ld	a,(hl)
   1589 F8 03              6556 	lda	hl,3(sp)
   158B 32                 6557 	ld      (hl-),a
   158C CB 26              6558 	sla	(hl)
   158E 23                 6559 	inc	hl
   158F CB 16              6560 	rl	(hl)
                           6561 ;	genPlus
                           6562 ;	AOP_STK for _SceneUpdateActors_b_sloc5_1_0
                           6563 ;	AOP_STK for _SceneUpdateActors_b_sloc3_1_0
                           6564 ;	Can't optimise plus by inc, falling back to the normal way
   1591 11 97 00           6565 	ld	de,#_directions
   1594 2B                 6566 	dec	hl
   1595 2A                 6567 	ld	a,(hl+)
   1596 66                 6568 	ld	h,(hl)
   1597 6F                 6569 	ld	l,a
   1598 19                 6570 	add	hl,de
   1599 7D                 6571 	ld	a,l
   159A 54                 6572 	ld	d,h
   159B F8 05              6573 	lda	hl,5(sp)
                           6574 ;	genPointerGet
                           6575 ;	AOP_STK for _SceneUpdateActors_b_sloc3_1_0
                           6576 ;	AOP_HL for _update_dir
   159D 22                 6577 	ld	(hl+),a
   159E 72                 6578 	ld	(hl),d
   159F 5F                 6579 	ld	e,a
   15A0 1A                 6580 	ld	a,(de)
   15A1 21 A1 00           6581 	ld	hl,#_update_dir
   15A4 77                 6582 	ld	(hl),a
   15A5 13                 6583 	inc	de
   15A6 1A                 6584 	ld	a,(de)
   15A7 23                 6585 	inc	hl
   15A8 77                 6586 	ld	(hl),a
                           6587 ;	src/Scene_b.c 515
                           6588 ;	genIpush
                           6589 ; _saveRegsForCall: sendSetSize: 0 deInUse: 0 bcInUse: 0 deSending: 0
                           6590 ;	AOP_STK for _SceneUpdateActors_b_i_1_1
   15A9 F8 0F              6591 	lda	hl,15(sp)
   15AB 7E                 6592 	ld	a,(hl)
   15AC F5                 6593 	push	af
   15AD 33                 6594 	inc	sp
                           6595 ;	genCall
   15AE CD C6 1A           6596 	call	_SceneUpdateActorMovement_b
   15B1 E8 01              6597 	lda	sp,1(sp)
                           6598 ;	src/Scene_b.c 516
                           6599 ;	genPlus
                           6600 ;	AOP_STK for _SceneUpdateActors_b_r_1_1
                           6601 ;	genPlusIncr
   15B3 F8 0D              6602 	lda	hl,13(sp)
   15B5 34                 6603 	inc	(hl)
                           6604 ;	genLabel
   15B6                    6605 00204$:
                           6606 ;	src/Scene_b.c 504
                           6607 ;	genPlus
                           6608 ;	AOP_STK for _SceneUpdateActors_b_i_1_1
                           6609 ;	genPlusIncr
   15B6 F8 0F              6610 	lda	hl,15(sp)
   15B8 34                 6611 	inc	(hl)
   15B9 34                 6612 	inc	(hl)
                           6613 ;	genGoto
   15BA C3 B0 14           6614 	jp	00202$
                           6615 ;	genLabel
   15BD                    6616 00152$:
                           6617 ;	src/Scene_b.c 523
                           6618 ;	genAssign
                           6619 ;	AOP_STK for _SceneUpdateActors_b_ptr_1_1
   15BD F8 0B              6620 	lda	hl,11(sp)
   15BF 36 00              6621 	ld	(hl),#<_actors
   15C1 23                 6622 	inc	hl
   15C2 36 00              6623 	ld	(hl),#>_actors
                           6624 ;	src/Scene_b.c 524
                           6625 ;	genPlus
                           6626 ;	AOP_STK for _SceneUpdateActors_b_ptr_1_1
                           6627 ;	genPlusIncr
                           6628 ;	Can't optimise plus by inc, falling back to the normal way
   15C4 2B                 6629 	dec	hl
   15C5 5E                 6630 	ld	e,(hl)
   15C6 23                 6631 	inc	hl
   15C7 56                 6632 	ld	d,(hl)
   15C8 21 16 00           6633 	ld	hl,#0x0016
   15CB 19                 6634 	add	hl,de
   15CC 7D                 6635 	ld	a,l
   15CD 54                 6636 	ld	d,h
   15CE F8 0B              6637 	lda	hl,11(sp)
   15D0 22                 6638 	ld	(hl+),a
   15D1 72                 6639 	ld	(hl),d
                           6640 ;	src/Scene_b.c 525
                           6641 ;	genAssign
                           6642 ;	AOP_STK for _SceneUpdateActors_b_i_1_1
   15D2 F8 0F              6643 	lda	hl,15(sp)
   15D4 36 01              6644 	ld	(hl),#0x01
                           6645 ;	genLabel
   15D6                    6646 00206$:
                           6647 ;	genCmpEq
                           6648 ;	AOP_STK for _SceneUpdateActors_b_i_1_1
                           6649 ;	AOP_HL for _scene_num_actors
                           6650 ; genCmpEq: left 1, right 1, result 0
   15D6 21 11 00           6651 	ld	hl,#_scene_num_actors
   15D9 7E                 6652 	ld	a,(hl)
   15DA F8 0F              6653 	lda	hl,15(sp)
   15DC BE                 6654 	cp	(hl)
   15DD 20 03              6655 	jr	nz,00320$
   15DF C3 5B 16           6656 	jp	00155$
   15E2                    6657 00320$:
                           6658 ;	src/Scene_b.c 527
                           6659 ;	genPlus
                           6660 ;	AOP_STK for _SceneUpdateActors_b_ptr_1_1
                           6661 ;	AOP_STK for _SceneUpdateActors_b_sloc5_1_0
                           6662 ;	genPlusIncr
                           6663 ;	Can't optimise plus by inc, falling back to the normal way
   15E2 F8 0B              6664 	lda	hl,11(sp)
   15E4 5E                 6665 	ld	e,(hl)
   15E5 23                 6666 	inc	hl
   15E6 56                 6667 	ld	d,(hl)
   15E7 21 0C 00           6668 	ld	hl,#0x000C
   15EA 19                 6669 	add	hl,de
   15EB 7D                 6670 	ld	a,l
   15EC 54                 6671 	ld	d,h
   15ED F8 02              6672 	lda	hl,2(sp)
                           6673 ;	genPointerGet
                           6674 ;	AOP_STK for _SceneUpdateActors_b_sloc5_1_0
   15EF 22                 6675 	ld	(hl+),a
   15F0 72                 6676 	ld	(hl),d
   15F1 5F                 6677 	ld	e,a
   15F2 1A                 6678 	ld	a,(de)
                           6679 ;	genIfx
   15F3 B7                 6680 	or	a,a
   15F4 CA 46 16           6681 	jp	z,00147$
                           6682 ;	genMult
                           6683 ;	AOP_STK for _SceneUpdateActors_b_i_1_1
   15F7 F8 0F              6684 	lda	hl,15(sp)
   15F9 5E                 6685 	ld	e,(hl)
   15FA 16 00              6686 	ld	d,#0x00
   15FC 6B                 6687 	ld	l,e
   15FD 62                 6688 	ld	h,d
   15FE 29                 6689 	add	hl,hl
   15FF 29                 6690 	add	hl,hl
   1600 19                 6691 	add	hl,de
   1601 29                 6692 	add	hl,hl
   1602 19                 6693 	add	hl,de
   1603 29                 6694 	add	hl,hl
   1604 4D                 6695 	ld	c,l
   1605 44                 6696 	ld	b,h
                           6697 ;	genPlus
                           6698 ;	Can't optimise plus by inc, falling back to the normal way
   1606 21 00 00           6699 	ld	hl,#_actors
   1609 09                 6700 	add	hl,bc
   160A 4D                 6701 	ld	c,l
   160B 44                 6702 	ld	b,h
                           6703 ;	genPlus
                           6704 ;	AOP_STK for _SceneUpdateActors_b_sloc3_1_0
                           6705 ;	genPlusIncr
                           6706 ;	Can't optimise plus by inc, falling back to the normal way
   160C 21 01 00           6707 	ld	hl,#0x0001
   160F 09                 6708 	add	hl,bc
   1610 7D                 6709 	ld	a,l
   1611 54                 6710 	ld	d,h
   1612 F8 05              6711 	lda	hl,5(sp)
                           6712 ;	genPointerGet
                           6713 ;	AOP_STK for _SceneUpdateActors_b_sloc3_1_0
                           6714 ;	AOP_STK for _SceneUpdateActors_b_sloc4_1_0
   1614 22                 6715 	ld	(hl+),a
   1615 72                 6716 	ld	(hl),d
   1616 5F                 6717 	ld	e,a
   1617 1A                 6718 	ld	a,(de)
   1618 2B                 6719 	dec	hl
   1619 2B                 6720 	dec	hl
                           6721 ;	genAnd
                           6722 ;	AOP_STK for _SceneUpdateActors_b_sloc4_1_0
                           6723 ;	AOP_STK for _SceneUpdateActors_b_sloc3_1_0
   161A 77                 6724 	ld      (hl),a
                           6725 ; Removed redundent load
   161B E6 07              6726 	and	a,#0x07
   161D 23                 6727 	inc	hl
                           6728 ;	genCmpEq
                           6729 ;	AOP_STK for _SceneUpdateActors_b_sloc3_1_0
                           6730 ; genCmpEq: left 1, right 1, result 0
   161E 77                 6731 	ld      (hl),a
                           6732 ; Removed redundent load
   161F B7                 6733 	or	a,a
   1620 C2 46 16           6734 	jp	nz,00147$
   1623 18 03              6735 	jr	00322$
   1625                    6736 00321$:
   1625 C3 46 16           6737 	jp	00147$
   1628                    6738 00322$:
                           6739 ;	genPlus
                           6740 ;	genPlusIncr
   1628 03                 6741 	inc	bc
   1629 03                 6742 	inc	bc
                           6743 ;	genPointerGet
   162A 0A                 6744 	ld	a,(bc)
                           6745 ;	genAnd
   162B 4F                 6746 	ld	c,a
   162C E6 07              6747 	and	a,#0x07
                           6748 ;	genCmpEq
                           6749 ; genCmpEq: left 1, right 1, result 0
   162E 47                 6750 	ld	b,a
   162F B7                 6751 	or	a,a
   1630 CA 3E 16           6752 	jp	z,00146$
   1633                    6753 00323$:
                           6754 ;	genCmpEq
                           6755 ; genCmpEq: left 1, right 1, result 0
   1633 79                 6756 	ld	a,c
   1634 FE FE              6757 	cp	a,#0xFE
   1636 C2 46 16           6758 	jp	nz,00147$
   1639 18 03              6759 	jr	00325$
   163B                    6760 00324$:
   163B C3 46 16           6761 	jp	00147$
   163E                    6762 00325$:
                           6763 ;	genLabel
   163E                    6764 00146$:
                           6765 ;	src/Scene_b.c 529
                           6766 ;	genAssign (pointer)
                           6767 ;	AOP_STK for _SceneUpdateActors_b_sloc5_1_0
   163E F8 02              6768 	lda	hl,2(sp)
   1640 5E                 6769 	ld	e,(hl)
   1641 23                 6770 	inc	hl
   1642 56                 6771 	ld	d,(hl)
   1643 3E 00              6772 	ld	a,#0x00
   1645 12                 6773 	ld	(de),a
                           6774 ;	genLabel
   1646                    6775 00147$:
                           6776 ;	src/Scene_b.c 531
                           6777 ;	genPlus
                           6778 ;	AOP_STK for _SceneUpdateActors_b_ptr_1_1
                           6779 ;	genPlusIncr
                           6780 ;	Can't optimise plus by inc, falling back to the normal way
   1646 F8 0B              6781 	lda	hl,11(sp)
   1648 5E                 6782 	ld	e,(hl)
   1649 23                 6783 	inc	hl
   164A 56                 6784 	ld	d,(hl)
   164B 21 16 00           6785 	ld	hl,#0x0016
   164E 19                 6786 	add	hl,de
   164F 7D                 6787 	ld	a,l
   1650 54                 6788 	ld	d,h
   1651 F8 0B              6789 	lda	hl,11(sp)
   1653 22                 6790 	ld	(hl+),a
   1654 72                 6791 	ld	(hl),d
                           6792 ;	src/Scene_b.c 525
                           6793 ;	genPlus
                           6794 ;	AOP_STK for _SceneUpdateActors_b_i_1_1
                           6795 ;	genPlusIncr
   1655 F8 0F              6796 	lda	hl,15(sp)
   1657 34                 6797 	inc	(hl)
                           6798 ;	genGoto
   1658 C3 D6 15           6799 	jp	00206$
                           6800 ;	genLabel
   165B                    6801 00155$:
                           6802 ;	src/Scene_b.c 536
                           6803 ;	genAssign
                           6804 ;	AOP_STK for _SceneUpdateActors_b_ptr_1_1
   165B F8 0B              6805 	lda	hl,11(sp)
   165D 36 00              6806 	ld	(hl),#<_actors
   165F 23                 6807 	inc	hl
   1660 36 00              6808 	ld	(hl),#>_actors
                           6809 ;	src/Scene_b.c 537
                           6810 ;	genAssign
                           6811 ;	AOP_HL for _scene_num_actors
                           6812 ;	AOP_STK for _SceneUpdateActors_b_len_1_1
   1662 21 11 00           6813 	ld	hl,#_scene_num_actors
   1665 7E                 6814 	ld	a,(hl)
   1666 F8 0E              6815 	lda	hl,14(sp)
   1668 77                 6816 	ld	(hl),a
                           6817 ;	src/Scene_b.c 539
                           6818 ;	genIfx
                           6819 ;	AOP_STK for _SceneUpdateActors_b_sloc2_1_0
   1669 AF                 6820 	xor	a,a
   166A F8 07              6821 	lda	hl,7(sp)
   166C B6                 6822 	or	a,(hl)
   166D C2 04 18           6823 	jp	nz,00177$
                           6824 ;	src/Scene_b.c 541
                           6825 ;	genAssign
                           6826 ;	AOP_STK for _SceneUpdateActors_b_i_1_1
   1670 F8 0F              6827 	lda	hl,15(sp)
   1672 36 00              6828 	ld	(hl),#0x00
                           6829 ;	genLabel
   1674                    6830 00210$:
                           6831 ;	genCmpEq
                           6832 ;	AOP_STK for _SceneUpdateActors_b_i_1_1
                           6833 ;	AOP_HL for _script_actor
                           6834 ; genCmpEq: left 1, right 1, result 0
   1674 21 00 00           6835 	ld	hl,#_script_actor
   1677 7E                 6836 	ld	a,(hl)
   1678 F8 0F              6837 	lda	hl,15(sp)
   167A BE                 6838 	cp	(hl)
   167B 20 03              6839 	jr	nz,00326$
   167D C3 95 16           6840 	jp	00213$
   1680                    6841 00326$:
                           6842 ;	src/Scene_b.c 543
                           6843 ;	genPlus
                           6844 ;	AOP_STK for _SceneUpdateActors_b_ptr_1_1
                           6845 ;	genPlusIncr
                           6846 ;	Can't optimise plus by inc, falling back to the normal way
   1680 F8 0B              6847 	lda	hl,11(sp)
   1682 5E                 6848 	ld	e,(hl)
   1683 23                 6849 	inc	hl
   1684 56                 6850 	ld	d,(hl)
   1685 21 16 00           6851 	ld	hl,#0x0016
   1688 19                 6852 	add	hl,de
   1689 7D                 6853 	ld	a,l
   168A 54                 6854 	ld	d,h
   168B F8 0B              6855 	lda	hl,11(sp)
   168D 22                 6856 	ld	(hl+),a
   168E 72                 6857 	ld	(hl),d
                           6858 ;	src/Scene_b.c 541
                           6859 ;	genPlus
                           6860 ;	AOP_STK for _SceneUpdateActors_b_i_1_1
                           6861 ;	genPlusIncr
   168F F8 0F              6862 	lda	hl,15(sp)
   1691 34                 6863 	inc	(hl)
                           6864 ;	genGoto
   1692 C3 74 16           6865 	jp	00210$
                           6866 ;	genLabel
   1695                    6867 00213$:
                           6868 ;	src/Scene_b.c 546
                           6869 ;	genPlus
                           6870 ;	AOP_STK for _SceneUpdateActors_b_ptr_1_1
                           6871 ;	genPlusIncr
                           6872 ;	Can't optimise plus by inc, falling back to the normal way
   1695 F8 0B              6873 	lda	hl,11(sp)
   1697 5E                 6874 	ld	e,(hl)
   1698 23                 6875 	inc	hl
   1699 56                 6876 	ld	d,(hl)
   169A 21 0C 00           6877 	ld	hl,#0x000C
   169D 19                 6878 	add	hl,de
   169E 4D                 6879 	ld	c,l
   169F 44                 6880 	ld	b,h
                           6881 ;	genPointerGet
   16A0 0A                 6882 	ld	a,(bc)
                           6883 ;	genIfx
   16A1 B7                 6884 	or	a,a
   16A2 CA 90 19           6885 	jp	z,00178$
                           6886 ;	src/Scene_b.c 548
                           6887 ;	genPlus
                           6888 ;	AOP_STK for _SceneUpdateActors_b_ptr_1_1
                           6889 ;	genPlusIncr
                           6890 ;	Can't optimise plus by inc, falling back to the normal way
   16A5 F8 0B              6891 	lda	hl,11(sp)
   16A7 5E                 6892 	ld	e,(hl)
   16A8 23                 6893 	inc	hl
   16A9 56                 6894 	ld	d,(hl)
   16AA 21 0D 00           6895 	ld	hl,#0x000D
   16AD 19                 6896 	add	hl,de
   16AE 4D                 6897 	ld	c,l
   16AF 44                 6898 	ld	b,h
                           6899 ;	genPointerGet
   16B0 0A                 6900 	ld	a,(bc)
                           6901 ;	genCmpEq
                           6902 ; genCmpEq: left 1, right 1, result 0
   16B1 4F                 6903 	ld	c,a
   16B2 B7                 6904 	or	a,a
   16B3 C2 2A 17           6905 	jp	nz,00159$
   16B6 18 03              6906 	jr	00328$
   16B8                    6907 00327$:
   16B8 C3 2A 17           6908 	jp	00159$
   16BB                    6909 00328$:
                           6910 ;	src/Scene_b.c 550
                           6911 ;	genAnd
                           6912 ;	AOP_HL for _time
   16BB 21 00 00           6913 	ld	hl,#_time
   16BE 7E                 6914 	ld	a,(hl)
   16BF E6 01              6915 	and	a,#0x01
                           6916 ;	genCmpEq
                           6917 ; genCmpEq: left 1, right 1, result 0
   16C1 47                 6918 	ld	b,a
   16C2 B7                 6919 	or	a,a
   16C3 C2 CA 17           6920 	jp	nz,00160$
   16C6 18 03              6921 	jr	00330$
   16C8                    6922 00329$:
   16C8 C3 CA 17           6923 	jp	00160$
   16CB                    6924 00330$:
                           6925 ;	src/Scene_b.c 552
                           6926 ;	genPlus
                           6927 ;	AOP_STK for _SceneUpdateActors_b_ptr_1_1
                           6928 ;	AOP_STK for _SceneUpdateActors_b_sloc5_1_0
                           6929 ;	genPlusIncr
                           6930 ;	Can't optimise plus by inc, falling back to the normal way
   16CB F8 0B              6931 	lda	hl,11(sp)
   16CD 5E                 6932 	ld	e,(hl)
   16CE 23                 6933 	inc	hl
   16CF 56                 6934 	ld	d,(hl)
   16D0 21 01 00           6935 	ld	hl,#0x0001
   16D3 19                 6936 	add	hl,de
   16D4 7D                 6937 	ld	a,l
   16D5 54                 6938 	ld	d,h
   16D6 F8 02              6939 	lda	hl,2(sp)
                           6940 ;	genPointerGet
                           6941 ;	AOP_STK for _SceneUpdateActors_b_sloc5_1_0
   16D8 22                 6942 	ld	(hl+),a
   16D9 72                 6943 	ld	(hl),d
   16DA 5F                 6944 	ld	e,a
   16DB 1A                 6945 	ld	a,(de)
   16DC 47                 6946 	ld	b,a
                           6947 ;	genPlus
                           6948 ;	AOP_STK for _SceneUpdateActors_b_ptr_1_1
                           6949 ;	AOP_STK for _SceneUpdateActors_b_sloc3_1_0
                           6950 ;	genPlusIncr
                           6951 ;	Can't optimise plus by inc, falling back to the normal way
   16DD F8 0B              6952 	lda	hl,11(sp)
   16DF 5E                 6953 	ld	e,(hl)
   16E0 23                 6954 	inc	hl
   16E1 56                 6955 	ld	d,(hl)
   16E2 21 03 00           6956 	ld	hl,#0x0003
   16E5 19                 6957 	add	hl,de
   16E6 7D                 6958 	ld	a,l
   16E7 54                 6959 	ld	d,h
   16E8 F8 05              6960 	lda	hl,5(sp)
                           6961 ;	genPointerGet
                           6962 ;	AOP_STK for _SceneUpdateActors_b_sloc3_1_0
                           6963 ;	AOP_STK for _SceneUpdateActors_b_sloc4_1_0
   16EA 22                 6964 	ld	(hl+),a
   16EB 72                 6965 	ld	(hl),d
   16EC 5F                 6966 	ld	e,a
   16ED 1A                 6967 	ld	a,(de)
   16EE 2B                 6968 	dec	hl
   16EF 2B                 6969 	dec	hl
   16F0 77                 6970 	ld	(hl),a
                           6971 ;	genPlus
                           6972 ;	AOP_STK for _SceneUpdateActors_b_sloc4_1_0
                           6973 ;	Can't optimise plus by inc, falling back to the normal way
   16F1 78                 6974 	ld	a,b
   16F2 86                 6975 	add	a,(hl)
                           6976 ;	genAssign (pointer)
                           6977 ;	AOP_STK for _SceneUpdateActors_b_sloc5_1_0
   16F3 2B                 6978 	dec	hl
   16F4 2B                 6979 	dec	hl
   16F5 5E                 6980 	ld	e,(hl)
   16F6 23                 6981 	inc	hl
   16F7 56                 6982 	ld	d,(hl)
   16F8 12                 6983 	ld	(de),a
                           6984 ;	src/Scene_b.c 553
                           6985 ;	genPlus
                           6986 ;	AOP_STK for _SceneUpdateActors_b_ptr_1_1
                           6987 ;	AOP_STK for _SceneUpdateActors_b_sloc5_1_0
                           6988 ;	genPlusIncr
                           6989 ;	Can't optimise plus by inc, falling back to the normal way
   16F9 F8 0B              6990 	lda	hl,11(sp)
   16FB 5E                 6991 	ld	e,(hl)
   16FC 23                 6992 	inc	hl
   16FD 56                 6993 	ld	d,(hl)
   16FE 21 02 00           6994 	ld	hl,#0x0002
   1701 19                 6995 	add	hl,de
   1702 7D                 6996 	ld	a,l
   1703 54                 6997 	ld	d,h
   1704 F8 02              6998 	lda	hl,2(sp)
                           6999 ;	genPointerGet
                           7000 ;	AOP_STK for _SceneUpdateActors_b_sloc5_1_0
   1706 22                 7001 	ld	(hl+),a
   1707 72                 7002 	ld	(hl),d
   1708 5F                 7003 	ld	e,a
   1709 1A                 7004 	ld	a,(de)
   170A 47                 7005 	ld	b,a
                           7006 ;	genPlus
                           7007 ;	AOP_STK for _SceneUpdateActors_b_ptr_1_1
                           7008 ;	AOP_STK for _SceneUpdateActors_b_sloc3_1_0
                           7009 ;	genPlusIncr
                           7010 ;	Can't optimise plus by inc, falling back to the normal way
   170B F8 0B              7011 	lda	hl,11(sp)
   170D 5E                 7012 	ld	e,(hl)
   170E 23                 7013 	inc	hl
   170F 56                 7014 	ld	d,(hl)
   1710 21 04 00           7015 	ld	hl,#0x0004
   1713 19                 7016 	add	hl,de
   1714 7D                 7017 	ld	a,l
   1715 54                 7018 	ld	d,h
   1716 F8 05              7019 	lda	hl,5(sp)
                           7020 ;	genPointerGet
                           7021 ;	AOP_STK for _SceneUpdateActors_b_sloc3_1_0
                           7022 ;	AOP_STK for _SceneUpdateActors_b_sloc4_1_0
   1718 22                 7023 	ld	(hl+),a
   1719 72                 7024 	ld	(hl),d
   171A 5F                 7025 	ld	e,a
   171B 1A                 7026 	ld	a,(de)
   171C 2B                 7027 	dec	hl
   171D 2B                 7028 	dec	hl
   171E 77                 7029 	ld	(hl),a
                           7030 ;	genPlus
                           7031 ;	AOP_STK for _SceneUpdateActors_b_sloc4_1_0
                           7032 ;	Can't optimise plus by inc, falling back to the normal way
   171F 78                 7033 	ld	a,b
   1720 86                 7034 	add	a,(hl)
                           7035 ;	genAssign (pointer)
                           7036 ;	AOP_STK for _SceneUpdateActors_b_sloc5_1_0
   1721 2B                 7037 	dec	hl
   1722 2B                 7038 	dec	hl
   1723 5E                 7039 	ld	e,(hl)
   1724 23                 7040 	inc	hl
   1725 56                 7041 	ld	d,(hl)
   1726 12                 7042 	ld	(de),a
                           7043 ;	genGoto
   1727 C3 CA 17           7044 	jp	00160$
                           7045 ;	genLabel
   172A                    7046 00159$:
                           7047 ;	src/Scene_b.c 558
                           7048 ;	genPlus
                           7049 ;	AOP_STK for _SceneUpdateActors_b_ptr_1_1
                           7050 ;	AOP_STK for _SceneUpdateActors_b_sloc5_1_0
                           7051 ;	genPlusIncr
                           7052 ;	Can't optimise plus by inc, falling back to the normal way
   172A F8 0B              7053 	lda	hl,11(sp)
   172C 5E                 7054 	ld	e,(hl)
   172D 23                 7055 	inc	hl
   172E 56                 7056 	ld	d,(hl)
   172F 21 01 00           7057 	ld	hl,#0x0001
   1732 19                 7058 	add	hl,de
   1733 7D                 7059 	ld	a,l
   1734 54                 7060 	ld	d,h
   1735 F8 02              7061 	lda	hl,2(sp)
                           7062 ;	genPointerGet
                           7063 ;	AOP_STK for _SceneUpdateActors_b_sloc5_1_0
   1737 22                 7064 	ld	(hl+),a
   1738 72                 7065 	ld	(hl),d
   1739 5F                 7066 	ld	e,a
   173A 1A                 7067 	ld	a,(de)
   173B 47                 7068 	ld	b,a
                           7069 ;	genPlus
                           7070 ;	AOP_STK for _SceneUpdateActors_b_ptr_1_1
                           7071 ;	AOP_STK for _SceneUpdateActors_b_sloc3_1_0
                           7072 ;	genPlusIncr
                           7073 ;	Can't optimise plus by inc, falling back to the normal way
   173C F8 0B              7074 	lda	hl,11(sp)
   173E 5E                 7075 	ld	e,(hl)
   173F 23                 7076 	inc	hl
   1740 56                 7077 	ld	d,(hl)
   1741 21 03 00           7078 	ld	hl,#0x0003
   1744 19                 7079 	add	hl,de
   1745 7D                 7080 	ld	a,l
   1746 54                 7081 	ld	d,h
   1747 F8 05              7082 	lda	hl,5(sp)
                           7083 ;	genPointerGet
                           7084 ;	AOP_STK for _SceneUpdateActors_b_sloc3_1_0
                           7085 ;	AOP_STK for _SceneUpdateActors_b_sloc4_1_0
   1749 22                 7086 	ld	(hl+),a
   174A 72                 7087 	ld	(hl),d
   174B 5F                 7088 	ld	e,a
   174C 1A                 7089 	ld	a,(de)
   174D 2B                 7090 	dec	hl
   174E 2B                 7091 	dec	hl
   174F 77                 7092 	ld	(hl),a
                           7093 ;	genIpush
                           7094 ; _saveRegsForCall: sendSetSize: 0 deInUse: 0 bcInUse: 1 deSending: 0
   1750 C5                 7095 	push	bc
   1751 79                 7096 	ld	a,c
   1752 F5                 7097 	push	af
   1753 33                 7098 	inc	sp
                           7099 ;	genIpush
                           7100 ;	AOP_STK for _SceneUpdateActors_b_sloc4_1_0
   1754 7E                 7101 	ld	a,(hl)
   1755 F5                 7102 	push	af
   1756 33                 7103 	inc	sp
                           7104 ;	genCall
   1757 CD 00 00           7105 	call	__muluchar_rrx_s
                           7106 ;	AOP_STK for _SceneUpdateActors_b_sloc3_1_0
   175A F8 0A              7107 	lda	hl,10(sp)
   175C 72                 7108 	ld	(hl),d
   175D 2B                 7109 	dec	hl
   175E 73                 7110 	ld	(hl),e
   175F E8 02              7111 	lda	sp,2(sp)
   1761 C1                 7112 	pop	bc
                           7113 ;	genCast
                           7114 ;	AOP_STK for _SceneUpdateActors_b_sloc0_1_0
   1762 F8 09              7115 	lda	hl,9(sp)
   1764 70                 7116 	ld	(hl),b
   1765 23                 7117 	inc	hl
   1766 36 00              7118 	ld	(hl),#0x00
                           7119 ;	genPlus
                           7120 ;	AOP_STK for _SceneUpdateActors_b_sloc0_1_0
                           7121 ;	AOP_STK for _SceneUpdateActors_b_sloc3_1_0
                           7122 ;	AOP_STK for _SceneUpdateActors_b_sloc6_1_0
                           7123 ;	Can't optimise plus by inc, falling back to the normal way
   1768 2B                 7124 	dec	hl
   1769 5E                 7125 	ld	e,(hl)
   176A 23                 7126 	inc	hl
   176B 56                 7127 	ld	d,(hl)
   176C F8 05              7128 	lda	hl,5(sp)
   176E 2A                 7129 	ld	a,(hl+)
   176F 66                 7130 	ld	h,(hl)
   1770 6F                 7131 	ld	l,a
   1771 19                 7132 	add	hl,de
   1772 7D                 7133 	ld	a,l
   1773 54                 7134 	ld	d,h
   1774 F8 00              7135 	lda	hl,0(sp)
   1776 22                 7136 	ld	(hl+),a
   1777 72                 7137 	ld	(hl),d
                           7138 ;	genCast
                           7139 ;	AOP_STK for _SceneUpdateActors_b_sloc6_1_0
   1778 2B                 7140 	dec	hl
                           7141 ;	genAssign (pointer)
                           7142 ;	AOP_STK for _SceneUpdateActors_b_sloc5_1_0
   1779 2A                 7143 	ld	a,(hl+)
   177A 23                 7144 	inc	hl
   177B 5E                 7145 	ld	e,(hl)
   177C 23                 7146 	inc	hl
   177D 56                 7147 	ld	d,(hl)
   177E 12                 7148 	ld	(de),a
                           7149 ;	src/Scene_b.c 559
                           7150 ;	genPlus
                           7151 ;	AOP_STK for _SceneUpdateActors_b_ptr_1_1
                           7152 ;	AOP_STK for _SceneUpdateActors_b_sloc6_1_0
                           7153 ;	genPlusIncr
                           7154 ;	Can't optimise plus by inc, falling back to the normal way
   177F F8 0B              7155 	lda	hl,11(sp)
   1781 5E                 7156 	ld	e,(hl)
   1782 23                 7157 	inc	hl
   1783 56                 7158 	ld	d,(hl)
   1784 21 02 00           7159 	ld	hl,#0x0002
   1787 19                 7160 	add	hl,de
   1788 7D                 7161 	ld	a,l
   1789 54                 7162 	ld	d,h
   178A F8 00              7163 	lda	hl,0(sp)
                           7164 ;	genPointerGet
                           7165 ;	AOP_STK for _SceneUpdateActors_b_sloc6_1_0
   178C 22                 7166 	ld	(hl+),a
   178D 72                 7167 	ld	(hl),d
   178E 5F                 7168 	ld	e,a
   178F 1A                 7169 	ld	a,(de)
   1790 47                 7170 	ld	b,a
                           7171 ;	genPlus
                           7172 ;	AOP_STK for _SceneUpdateActors_b_ptr_1_1
                           7173 ;	AOP_STK for _SceneUpdateActors_b_sloc5_1_0
                           7174 ;	genPlusIncr
                           7175 ;	Can't optimise plus by inc, falling back to the normal way
   1791 F8 0B              7176 	lda	hl,11(sp)
   1793 5E                 7177 	ld	e,(hl)
   1794 23                 7178 	inc	hl
   1795 56                 7179 	ld	d,(hl)
   1796 21 04 00           7180 	ld	hl,#0x0004
   1799 19                 7181 	add	hl,de
   179A 7D                 7182 	ld	a,l
   179B 54                 7183 	ld	d,h
   179C F8 02              7184 	lda	hl,2(sp)
                           7185 ;	genPointerGet
                           7186 ;	AOP_STK for _SceneUpdateActors_b_sloc5_1_0
                           7187 ;	AOP_STK for _SceneUpdateActors_b_sloc4_1_0
   179E 22                 7188 	ld	(hl+),a
   179F 72                 7189 	ld	(hl),d
   17A0 5F                 7190 	ld	e,a
   17A1 1A                 7191 	ld	a,(de)
   17A2 23                 7192 	inc	hl
   17A3 77                 7193 	ld	(hl),a
                           7194 ;	genIpush
                           7195 ; _saveRegsForCall: sendSetSize: 0 deInUse: 0 bcInUse: 1 deSending: 0
   17A4 C5                 7196 	push	bc
   17A5 79                 7197 	ld	a,c
   17A6 F5                 7198 	push	af
   17A7 33                 7199 	inc	sp
                           7200 ;	genIpush
                           7201 ;	AOP_STK for _SceneUpdateActors_b_sloc4_1_0
   17A8 7E                 7202 	ld	a,(hl)
   17A9 F5                 7203 	push	af
   17AA 33                 7204 	inc	sp
                           7205 ;	genCall
   17AB CD 00 00           7206 	call	__muluchar_rrx_s
                           7207 ;	AOP_STK for _SceneUpdateActors_b_sloc5_1_0
   17AE F8 07              7208 	lda	hl,7(sp)
   17B0 72                 7209 	ld	(hl),d
   17B1 2B                 7210 	dec	hl
   17B2 73                 7211 	ld	(hl),e
   17B3 E8 02              7212 	lda	sp,2(sp)
   17B5 E1                 7213 	pop	hl
   17B6 44                 7214 	ld	b,h
                           7215 ;	genCast
                           7216 ; Removed redundent load
   17B7 0E 00              7217 	ld	c,#0x00
                           7218 ;	genPlus
                           7219 ;	AOP_STK for _SceneUpdateActors_b_sloc5_1_0
                           7220 ;	Can't optimise plus by inc, falling back to the normal way
   17B9 58                 7221 	ld	e,b
   17BA 51                 7222 	ld	d,c
   17BB F8 02              7223 	lda	hl,2(sp)
   17BD 2A                 7224 	ld	a,(hl+)
   17BE 66                 7225 	ld	h,(hl)
   17BF 6F                 7226 	ld	l,a
   17C0 19                 7227 	add	hl,de
   17C1 45                 7228 	ld	b,l
   17C2 4C                 7229 	ld	c,h
                           7230 ;	genCast
   17C3 78                 7231 	ld	a,b
                           7232 ;	genAssign (pointer)
                           7233 ;	AOP_STK for _SceneUpdateActors_b_sloc6_1_0
   17C4 F8 00              7234 	lda	hl,0(sp)
   17C6 5E                 7235 	ld	e,(hl)
   17C7 23                 7236 	inc	hl
   17C8 56                 7237 	ld	d,(hl)
   17C9 12                 7238 	ld	(de),a
                           7239 ;	genLabel
   17CA                    7240 00160$:
                           7241 ;	src/Scene_b.c 562
                           7242 ;	genPlus
                           7243 ;	AOP_STK for _SceneUpdateActors_b_ptr_1_1
                           7244 ;	genPlusIncr
                           7245 ;	Can't optimise plus by inc, falling back to the normal way
   17CA F8 0B              7246 	lda	hl,11(sp)
   17CC 5E                 7247 	ld	e,(hl)
   17CD 23                 7248 	inc	hl
   17CE 56                 7249 	ld	d,(hl)
   17CF 21 04 00           7250 	ld	hl,#0x0004
   17D2 19                 7251 	add	hl,de
   17D3 4D                 7252 	ld	c,l
   17D4 44                 7253 	ld	b,h
                           7254 ;	genPointerGet
   17D5 0A                 7255 	ld	a,(bc)
                           7256 ;	genCmpEq
                           7257 ; genCmpEq: left 1, right 1, result 0
   17D6 4F                 7258 	ld	c,a
   17D7 FE 01              7259 	cp	a,#0x01
   17D9 C2 90 19           7260 	jp	nz,00178$
   17DC 18 03              7261 	jr	00332$
   17DE                    7262 00331$:
   17DE C3 90 19           7263 	jp	00178$
   17E1                    7264 00332$:
                           7265 ;	genPlus
                           7266 ;	AOP_STK for _SceneUpdateActors_b_ptr_1_1
                           7267 ;	genPlusIncr
   17E1 F8 0B              7268 	lda	hl,11(sp)
   17E3 4E                 7269 	ld	c,(hl)
   17E4 23                 7270 	inc	hl
   17E5 46                 7271 	ld	b,(hl)
   17E6 03                 7272 	inc	bc
   17E7 03                 7273 	inc	bc
                           7274 ;	genPointerGet
                           7275 ;	AOP_STK for _SceneUpdateActors_b_sloc6_1_0
   17E8 0A                 7276 	ld	a,(bc)
   17E9 F8 00              7277 	lda	hl,0(sp)
                           7278 ;	genRightShift
                           7279 ;	AOP_STK for _SceneUpdateActors_b_sloc6_1_0
                           7280 ;	AOP_STK for _SceneUpdateActors_b_sloc5_1_0
   17EB 77                 7281 	ld      (hl),a
                           7282 ; Removed redundent load
   17EC CB 3F              7283 	srl	a
   17EE CB 3F              7284 	srl	a
   17F0 CB 3F              7285 	srl	a
   17F2 23                 7286 	inc	hl
   17F3 23                 7287 	inc	hl
                           7288 ;	genCmpEq
                           7289 ;	AOP_STK for _SceneUpdateActors_b_sloc5_1_0
                           7290 ; genCmpEq: left 1, right 1, result 0
   17F4 77                 7291 	ld      (hl),a
                           7292 ; Removed redundent load
   17F5 B7                 7293 	or	a,a
   17F6 C2 90 19           7294 	jp	nz,00178$
   17F9 18 03              7295 	jr	00334$
   17FB                    7296 00333$:
   17FB C3 90 19           7297 	jp	00178$
   17FE                    7298 00334$:
                           7299 ;	src/Scene_b.c 564
                           7300 ;	genAssign (pointer)
   17FE 3E FE              7301 	ld	a,#0xFE
   1800 02                 7302 	ld	(bc),a
                           7303 ;	genGoto
   1801 C3 90 19           7304 	jp	00178$
                           7305 ;	genLabel
   1804                    7306 00177$:
                           7307 ;	src/Scene_b.c 570
                           7308 ;	genAssign
                           7309 ;	AOP_STK for _SceneUpdateActors_b_i_1_1
   1804 F8 0F              7310 	lda	hl,15(sp)
   1806 36 00              7311 	ld	(hl),#0x00
                           7312 ;	genLabel
   1808                    7313 00214$:
                           7314 ;	genCmpEq
                           7315 ;	AOP_STK for _SceneUpdateActors_b_i_1_1
                           7316 ;	AOP_STK for _SceneUpdateActors_b_len_1_1
                           7317 ; genCmpEq: left 1, right 1, result 0
   1808 F8 0E              7318 	lda	hl,14(sp)
   180A 2A                 7319 	ld	a,(hl+)
   180B BE                 7320 	cp	(hl)
   180C 20 03              7321 	jr	nz,00335$
   180E C3 90 19           7322 	jp	00178$
   1811                    7323 00335$:
                           7324 ;	src/Scene_b.c 573
                           7325 ;	genPlus
                           7326 ;	AOP_STK for _SceneUpdateActors_b_ptr_1_1
                           7327 ;	genPlusIncr
                           7328 ;	Can't optimise plus by inc, falling back to the normal way
   1811 F8 0B              7329 	lda	hl,11(sp)
   1813 5E                 7330 	ld	e,(hl)
   1814 23                 7331 	inc	hl
   1815 56                 7332 	ld	d,(hl)
   1816 21 0C 00           7333 	ld	hl,#0x000C
   1819 19                 7334 	add	hl,de
   181A 4D                 7335 	ld	c,l
   181B 44                 7336 	ld	b,h
                           7337 ;	genPointerGet
   181C 0A                 7338 	ld	a,(bc)
                           7339 ;	genIfx
   181D B7                 7340 	or	a,a
   181E CA 7B 19           7341 	jp	z,00175$
                           7342 ;	src/Scene_b.c 575
                           7343 ;	genPlus
                           7344 ;	AOP_STK for _SceneUpdateActors_b_ptr_1_1
                           7345 ;	genPlusIncr
                           7346 ;	Can't optimise plus by inc, falling back to the normal way
   1821 F8 0B              7347 	lda	hl,11(sp)
   1823 5E                 7348 	ld	e,(hl)
   1824 23                 7349 	inc	hl
   1825 56                 7350 	ld	d,(hl)
   1826 21 0D 00           7351 	ld	hl,#0x000D
   1829 19                 7352 	add	hl,de
   182A 4D                 7353 	ld	c,l
   182B 44                 7354 	ld	b,h
                           7355 ;	genPointerGet
   182C 0A                 7356 	ld	a,(bc)
                           7357 ;	genCmpEq
                           7358 ; genCmpEq: left 1, right 1, result 0
   182D 4F                 7359 	ld	c,a
   182E B7                 7360 	or	a,a
   182F C2 A4 18           7361 	jp	nz,00169$
   1832 18 03              7362 	jr	00337$
   1834                    7363 00336$:
   1834 C3 A4 18           7364 	jp	00169$
   1837                    7365 00337$:
                           7366 ;	src/Scene_b.c 577
                           7367 ;	genAnd
                           7368 ;	AOP_HL for _time
   1837 21 00 00           7369 	ld	hl,#_time
   183A 7E                 7370 	ld	a,(hl)
   183B E6 01              7371 	and	a,#0x01
                           7372 ;	genCmpEq
                           7373 ; genCmpEq: left 1, right 1, result 0
   183D 47                 7374 	ld	b,a
   183E B7                 7375 	or	a,a
   183F C2 44 19           7376 	jp	nz,00170$
   1842 18 03              7377 	jr	00339$
   1844                    7378 00338$:
   1844 C3 44 19           7379 	jp	00170$
   1847                    7380 00339$:
                           7381 ;	src/Scene_b.c 579
                           7382 ;	genPlus
                           7383 ;	AOP_STK for _SceneUpdateActors_b_ptr_1_1
                           7384 ;	AOP_STK for _SceneUpdateActors_b_sloc6_1_0
                           7385 ;	genPlusIncr
                           7386 ;	Can't optimise plus by inc, falling back to the normal way
   1847 F8 0B              7387 	lda	hl,11(sp)
   1849 5E                 7388 	ld	e,(hl)
   184A 23                 7389 	inc	hl
   184B 56                 7390 	ld	d,(hl)
   184C 21 01 00           7391 	ld	hl,#0x0001
   184F 19                 7392 	add	hl,de
   1850 7D                 7393 	ld	a,l
   1851 54                 7394 	ld	d,h
   1852 F8 00              7395 	lda	hl,0(sp)
                           7396 ;	genPointerGet
                           7397 ;	AOP_STK for _SceneUpdateActors_b_sloc6_1_0
   1854 22                 7398 	ld	(hl+),a
   1855 72                 7399 	ld	(hl),d
   1856 5F                 7400 	ld	e,a
   1857 1A                 7401 	ld	a,(de)
   1858 47                 7402 	ld	b,a
                           7403 ;	genPlus
                           7404 ;	AOP_STK for _SceneUpdateActors_b_ptr_1_1
                           7405 ;	AOP_STK for _SceneUpdateActors_b_sloc5_1_0
                           7406 ;	genPlusIncr
                           7407 ;	Can't optimise plus by inc, falling back to the normal way
   1859 F8 0B              7408 	lda	hl,11(sp)
   185B 5E                 7409 	ld	e,(hl)
   185C 23                 7410 	inc	hl
   185D 56                 7411 	ld	d,(hl)
   185E 21 03 00           7412 	ld	hl,#0x0003
   1861 19                 7413 	add	hl,de
   1862 7D                 7414 	ld	a,l
   1863 54                 7415 	ld	d,h
   1864 F8 02              7416 	lda	hl,2(sp)
                           7417 ;	genPointerGet
                           7418 ;	AOP_STK for _SceneUpdateActors_b_sloc5_1_0
                           7419 ;	AOP_STK for _SceneUpdateActors_b_sloc4_1_0
   1866 22                 7420 	ld	(hl+),a
   1867 72                 7421 	ld	(hl),d
   1868 5F                 7422 	ld	e,a
   1869 1A                 7423 	ld	a,(de)
   186A 23                 7424 	inc	hl
   186B 77                 7425 	ld	(hl),a
                           7426 ;	genPlus
                           7427 ;	AOP_STK for _SceneUpdateActors_b_sloc4_1_0
                           7428 ;	Can't optimise plus by inc, falling back to the normal way
   186C 78                 7429 	ld	a,b
   186D 86                 7430 	add	a,(hl)
                           7431 ;	genAssign (pointer)
                           7432 ;	AOP_STK for _SceneUpdateActors_b_sloc6_1_0
   186E F8 00              7433 	lda	hl,0(sp)
   1870 5E                 7434 	ld	e,(hl)
   1871 23                 7435 	inc	hl
   1872 56                 7436 	ld	d,(hl)
   1873 12                 7437 	ld	(de),a
                           7438 ;	src/Scene_b.c 580
                           7439 ;	genPlus
                           7440 ;	AOP_STK for _SceneUpdateActors_b_ptr_1_1
                           7441 ;	AOP_STK for _SceneUpdateActors_b_sloc6_1_0
                           7442 ;	genPlusIncr
                           7443 ;	Can't optimise plus by inc, falling back to the normal way
   1874 F8 0B              7444 	lda	hl,11(sp)
   1876 5E                 7445 	ld	e,(hl)
   1877 23                 7446 	inc	hl
   1878 56                 7447 	ld	d,(hl)
   1879 21 02 00           7448 	ld	hl,#0x0002
   187C 19                 7449 	add	hl,de
   187D 7D                 7450 	ld	a,l
   187E 54                 7451 	ld	d,h
   187F F8 00              7452 	lda	hl,0(sp)
                           7453 ;	genPointerGet
                           7454 ;	AOP_STK for _SceneUpdateActors_b_sloc6_1_0
   1881 22                 7455 	ld	(hl+),a
   1882 72                 7456 	ld	(hl),d
   1883 5F                 7457 	ld	e,a
   1884 1A                 7458 	ld	a,(de)
   1885 47                 7459 	ld	b,a
                           7460 ;	genPlus
                           7461 ;	AOP_STK for _SceneUpdateActors_b_ptr_1_1
                           7462 ;	AOP_STK for _SceneUpdateActors_b_sloc5_1_0
                           7463 ;	genPlusIncr
                           7464 ;	Can't optimise plus by inc, falling back to the normal way
   1886 F8 0B              7465 	lda	hl,11(sp)
   1888 5E                 7466 	ld	e,(hl)
   1889 23                 7467 	inc	hl
   188A 56                 7468 	ld	d,(hl)
   188B 21 04 00           7469 	ld	hl,#0x0004
   188E 19                 7470 	add	hl,de
   188F 7D                 7471 	ld	a,l
   1890 54                 7472 	ld	d,h
   1891 F8 02              7473 	lda	hl,2(sp)
                           7474 ;	genPointerGet
                           7475 ;	AOP_STK for _SceneUpdateActors_b_sloc5_1_0
                           7476 ;	AOP_STK for _SceneUpdateActors_b_sloc4_1_0
   1893 22                 7477 	ld	(hl+),a
   1894 72                 7478 	ld	(hl),d
   1895 5F                 7479 	ld	e,a
   1896 1A                 7480 	ld	a,(de)
   1897 23                 7481 	inc	hl
   1898 77                 7482 	ld	(hl),a
                           7483 ;	genPlus
                           7484 ;	AOP_STK for _SceneUpdateActors_b_sloc4_1_0
                           7485 ;	Can't optimise plus by inc, falling back to the normal way
   1899 78                 7486 	ld	a,b
   189A 86                 7487 	add	a,(hl)
                           7488 ;	genAssign (pointer)
                           7489 ;	AOP_STK for _SceneUpdateActors_b_sloc6_1_0
   189B F8 00              7490 	lda	hl,0(sp)
   189D 5E                 7491 	ld	e,(hl)
   189E 23                 7492 	inc	hl
   189F 56                 7493 	ld	d,(hl)
   18A0 12                 7494 	ld	(de),a
                           7495 ;	genGoto
   18A1 C3 44 19           7496 	jp	00170$
                           7497 ;	genLabel
   18A4                    7498 00169$:
                           7499 ;	src/Scene_b.c 585
                           7500 ;	genPlus
                           7501 ;	AOP_STK for _SceneUpdateActors_b_ptr_1_1
                           7502 ;	AOP_STK for _SceneUpdateActors_b_sloc6_1_0
                           7503 ;	genPlusIncr
                           7504 ;	Can't optimise plus by inc, falling back to the normal way
   18A4 F8 0B              7505 	lda	hl,11(sp)
   18A6 5E                 7506 	ld	e,(hl)
   18A7 23                 7507 	inc	hl
   18A8 56                 7508 	ld	d,(hl)
   18A9 21 01 00           7509 	ld	hl,#0x0001
   18AC 19                 7510 	add	hl,de
   18AD 7D                 7511 	ld	a,l
   18AE 54                 7512 	ld	d,h
   18AF F8 00              7513 	lda	hl,0(sp)
                           7514 ;	genPointerGet
                           7515 ;	AOP_STK for _SceneUpdateActors_b_sloc6_1_0
   18B1 22                 7516 	ld	(hl+),a
   18B2 72                 7517 	ld	(hl),d
   18B3 5F                 7518 	ld	e,a
   18B4 1A                 7519 	ld	a,(de)
   18B5 47                 7520 	ld	b,a
                           7521 ;	genPlus
                           7522 ;	AOP_STK for _SceneUpdateActors_b_ptr_1_1
                           7523 ;	AOP_STK for _SceneUpdateActors_b_sloc5_1_0
                           7524 ;	genPlusIncr
                           7525 ;	Can't optimise plus by inc, falling back to the normal way
   18B6 F8 0B              7526 	lda	hl,11(sp)
   18B8 5E                 7527 	ld	e,(hl)
   18B9 23                 7528 	inc	hl
   18BA 56                 7529 	ld	d,(hl)
   18BB 21 03 00           7530 	ld	hl,#0x0003
   18BE 19                 7531 	add	hl,de
   18BF 7D                 7532 	ld	a,l
   18C0 54                 7533 	ld	d,h
   18C1 F8 02              7534 	lda	hl,2(sp)
                           7535 ;	genPointerGet
                           7536 ;	AOP_STK for _SceneUpdateActors_b_sloc5_1_0
                           7537 ;	AOP_STK for _SceneUpdateActors_b_sloc4_1_0
   18C3 22                 7538 	ld	(hl+),a
   18C4 72                 7539 	ld	(hl),d
   18C5 5F                 7540 	ld	e,a
   18C6 1A                 7541 	ld	a,(de)
   18C7 23                 7542 	inc	hl
   18C8 77                 7543 	ld	(hl),a
                           7544 ;	genIpush
                           7545 ; _saveRegsForCall: sendSetSize: 0 deInUse: 0 bcInUse: 1 deSending: 0
   18C9 C5                 7546 	push	bc
   18CA 79                 7547 	ld	a,c
   18CB F5                 7548 	push	af
   18CC 33                 7549 	inc	sp
                           7550 ;	genIpush
                           7551 ;	AOP_STK for _SceneUpdateActors_b_sloc4_1_0
   18CD 7E                 7552 	ld	a,(hl)
   18CE F5                 7553 	push	af
   18CF 33                 7554 	inc	sp
                           7555 ;	genCall
   18D0 CD 00 00           7556 	call	__muluchar_rrx_s
                           7557 ;	AOP_STK for _SceneUpdateActors_b_sloc5_1_0
   18D3 F8 07              7558 	lda	hl,7(sp)
   18D5 72                 7559 	ld	(hl),d
   18D6 2B                 7560 	dec	hl
   18D7 73                 7561 	ld	(hl),e
   18D8 E8 02              7562 	lda	sp,2(sp)
   18DA C1                 7563 	pop	bc
                           7564 ;	genCast
                           7565 ;	AOP_STK for _SceneUpdateActors_b_sloc3_1_0
   18DB F8 05              7566 	lda	hl,5(sp)
   18DD 70                 7567 	ld	(hl),b
   18DE 23                 7568 	inc	hl
   18DF 36 00              7569 	ld	(hl),#0x00
                           7570 ;	genPlus
                           7571 ;	AOP_STK for _SceneUpdateActors_b_sloc3_1_0
                           7572 ;	AOP_STK for _SceneUpdateActors_b_sloc5_1_0
                           7573 ;	AOP_STK for _SceneUpdateActors_b_sloc0_1_0
                           7574 ;	Can't optimise plus by inc, falling back to the normal way
   18E1 2B                 7575 	dec	hl
   18E2 5E                 7576 	ld	e,(hl)
   18E3 23                 7577 	inc	hl
   18E4 56                 7578 	ld	d,(hl)
   18E5 F8 02              7579 	lda	hl,2(sp)
   18E7 2A                 7580 	ld	a,(hl+)
   18E8 66                 7581 	ld	h,(hl)
   18E9 6F                 7582 	ld	l,a
   18EA 19                 7583 	add	hl,de
   18EB 7D                 7584 	ld	a,l
   18EC 54                 7585 	ld	d,h
   18ED F8 09              7586 	lda	hl,9(sp)
   18EF 22                 7587 	ld	(hl+),a
   18F0 72                 7588 	ld	(hl),d
                           7589 ;	genCast
                           7590 ;	AOP_STK for _SceneUpdateActors_b_sloc0_1_0
   18F1 2B                 7591 	dec	hl
   18F2 7E                 7592 	ld	a,(hl)
                           7593 ;	genAssign (pointer)
                           7594 ;	AOP_STK for _SceneUpdateActors_b_sloc6_1_0
   18F3 F8 00              7595 	lda	hl,0(sp)
   18F5 5E                 7596 	ld	e,(hl)
   18F6 23                 7597 	inc	hl
   18F7 56                 7598 	ld	d,(hl)
   18F8 12                 7599 	ld	(de),a
                           7600 ;	src/Scene_b.c 586
                           7601 ;	genPlus
                           7602 ;	AOP_STK for _SceneUpdateActors_b_ptr_1_1
                           7603 ;	AOP_STK for _SceneUpdateActors_b_sloc6_1_0
                           7604 ;	genPlusIncr
                           7605 ;	Can't optimise plus by inc, falling back to the normal way
   18F9 F8 0B              7606 	lda	hl,11(sp)
   18FB 5E                 7607 	ld	e,(hl)
   18FC 23                 7608 	inc	hl
   18FD 56                 7609 	ld	d,(hl)
   18FE 21 02 00           7610 	ld	hl,#0x0002
   1901 19                 7611 	add	hl,de
   1902 7D                 7612 	ld	a,l
   1903 54                 7613 	ld	d,h
   1904 F8 00              7614 	lda	hl,0(sp)
                           7615 ;	genPointerGet
                           7616 ;	AOP_STK for _SceneUpdateActors_b_sloc6_1_0
   1906 22                 7617 	ld	(hl+),a
   1907 72                 7618 	ld	(hl),d
   1908 5F                 7619 	ld	e,a
   1909 1A                 7620 	ld	a,(de)
   190A 47                 7621 	ld	b,a
                           7622 ;	genPlus
                           7623 ;	AOP_STK for _SceneUpdateActors_b_ptr_1_1
                           7624 ;	AOP_STK for _SceneUpdateActors_b_sloc5_1_0
                           7625 ;	genPlusIncr
                           7626 ;	Can't optimise plus by inc, falling back to the normal way
   190B F8 0B              7627 	lda	hl,11(sp)
   190D 5E                 7628 	ld	e,(hl)
   190E 23                 7629 	inc	hl
   190F 56                 7630 	ld	d,(hl)
   1910 21 04 00           7631 	ld	hl,#0x0004
   1913 19                 7632 	add	hl,de
   1914 7D                 7633 	ld	a,l
   1915 54                 7634 	ld	d,h
   1916 F8 02              7635 	lda	hl,2(sp)
                           7636 ;	genPointerGet
                           7637 ;	AOP_STK for _SceneUpdateActors_b_sloc5_1_0
                           7638 ;	AOP_STK for _SceneUpdateActors_b_sloc4_1_0
   1918 22                 7639 	ld	(hl+),a
   1919 72                 7640 	ld	(hl),d
   191A 5F                 7641 	ld	e,a
   191B 1A                 7642 	ld	a,(de)
   191C 23                 7643 	inc	hl
   191D 77                 7644 	ld	(hl),a
                           7645 ;	genIpush
                           7646 ; _saveRegsForCall: sendSetSize: 0 deInUse: 0 bcInUse: 1 deSending: 0
   191E C5                 7647 	push	bc
   191F 79                 7648 	ld	a,c
   1920 F5                 7649 	push	af
   1921 33                 7650 	inc	sp
                           7651 ;	genIpush
                           7652 ;	AOP_STK for _SceneUpdateActors_b_sloc4_1_0
   1922 7E                 7653 	ld	a,(hl)
   1923 F5                 7654 	push	af
   1924 33                 7655 	inc	sp
                           7656 ;	genCall
   1925 CD 00 00           7657 	call	__muluchar_rrx_s
                           7658 ;	AOP_STK for _SceneUpdateActors_b_sloc5_1_0
   1928 F8 07              7659 	lda	hl,7(sp)
   192A 72                 7660 	ld	(hl),d
   192B 2B                 7661 	dec	hl
   192C 73                 7662 	ld	(hl),e
   192D E8 02              7663 	lda	sp,2(sp)
   192F E1                 7664 	pop	hl
   1930 44                 7665 	ld	b,h
                           7666 ;	genCast
                           7667 ; Removed redundent load
   1931 0E 00              7668 	ld	c,#0x00
                           7669 ;	genPlus
                           7670 ;	AOP_STK for _SceneUpdateActors_b_sloc5_1_0
                           7671 ;	Can't optimise plus by inc, falling back to the normal way
   1933 58                 7672 	ld	e,b
   1934 51                 7673 	ld	d,c
   1935 F8 02              7674 	lda	hl,2(sp)
   1937 2A                 7675 	ld	a,(hl+)
   1938 66                 7676 	ld	h,(hl)
   1939 6F                 7677 	ld	l,a
   193A 19                 7678 	add	hl,de
   193B 45                 7679 	ld	b,l
   193C 4C                 7680 	ld	c,h
                           7681 ;	genCast
   193D 78                 7682 	ld	a,b
                           7683 ;	genAssign (pointer)
                           7684 ;	AOP_STK for _SceneUpdateActors_b_sloc6_1_0
   193E F8 00              7685 	lda	hl,0(sp)
   1940 5E                 7686 	ld	e,(hl)
   1941 23                 7687 	inc	hl
   1942 56                 7688 	ld	d,(hl)
   1943 12                 7689 	ld	(de),a
                           7690 ;	genLabel
   1944                    7691 00170$:
                           7692 ;	src/Scene_b.c 589
                           7693 ;	genPlus
                           7694 ;	AOP_STK for _SceneUpdateActors_b_ptr_1_1
                           7695 ;	genPlusIncr
                           7696 ;	Can't optimise plus by inc, falling back to the normal way
   1944 F8 0B              7697 	lda	hl,11(sp)
   1946 5E                 7698 	ld	e,(hl)
   1947 23                 7699 	inc	hl
   1948 56                 7700 	ld	d,(hl)
   1949 21 04 00           7701 	ld	hl,#0x0004
   194C 19                 7702 	add	hl,de
   194D 4D                 7703 	ld	c,l
   194E 44                 7704 	ld	b,h
                           7705 ;	genPointerGet
   194F 0A                 7706 	ld	a,(bc)
                           7707 ;	genCmpEq
                           7708 ; genCmpEq: left 1, right 1, result 0
   1950 4F                 7709 	ld	c,a
   1951 FE 01              7710 	cp	a,#0x01
   1953 C2 7B 19           7711 	jp	nz,00175$
   1956 18 03              7712 	jr	00341$
   1958                    7713 00340$:
   1958 C3 7B 19           7714 	jp	00175$
   195B                    7715 00341$:
                           7716 ;	genPlus
                           7717 ;	AOP_STK for _SceneUpdateActors_b_ptr_1_1
                           7718 ;	genPlusIncr
   195B F8 0B              7719 	lda	hl,11(sp)
   195D 4E                 7720 	ld	c,(hl)
   195E 23                 7721 	inc	hl
   195F 46                 7722 	ld	b,(hl)
   1960 03                 7723 	inc	bc
   1961 03                 7724 	inc	bc
                           7725 ;	genPointerGet
                           7726 ;	AOP_STK for _SceneUpdateActors_b_sloc6_1_0
   1962 0A                 7727 	ld	a,(bc)
   1963 F8 00              7728 	lda	hl,0(sp)
                           7729 ;	genRightShift
                           7730 ;	AOP_STK for _SceneUpdateActors_b_sloc6_1_0
                           7731 ;	AOP_STK for _SceneUpdateActors_b_sloc5_1_0
   1965 77                 7732 	ld      (hl),a
                           7733 ; Removed redundent load
   1966 CB 3F              7734 	srl	a
   1968 CB 3F              7735 	srl	a
   196A CB 3F              7736 	srl	a
   196C 23                 7737 	inc	hl
   196D 23                 7738 	inc	hl
                           7739 ;	genCmpEq
                           7740 ;	AOP_STK for _SceneUpdateActors_b_sloc5_1_0
                           7741 ; genCmpEq: left 1, right 1, result 0
   196E 77                 7742 	ld      (hl),a
                           7743 ; Removed redundent load
   196F B7                 7744 	or	a,a
   1970 C2 7B 19           7745 	jp	nz,00175$
   1973 18 03              7746 	jr	00343$
   1975                    7747 00342$:
   1975 C3 7B 19           7748 	jp	00175$
   1978                    7749 00343$:
                           7750 ;	src/Scene_b.c 591
                           7751 ;	genAssign (pointer)
   1978 3E FE              7752 	ld	a,#0xFE
   197A 02                 7753 	ld	(bc),a
                           7754 ;	genLabel
   197B                    7755 00175$:
                           7756 ;	src/Scene_b.c 594
                           7757 ;	genPlus
                           7758 ;	AOP_STK for _SceneUpdateActors_b_ptr_1_1
                           7759 ;	genPlusIncr
                           7760 ;	Can't optimise plus by inc, falling back to the normal way
   197B F8 0B              7761 	lda	hl,11(sp)
   197D 5E                 7762 	ld	e,(hl)
   197E 23                 7763 	inc	hl
   197F 56                 7764 	ld	d,(hl)
   1980 21 16 00           7765 	ld	hl,#0x0016
   1983 19                 7766 	add	hl,de
   1984 7D                 7767 	ld	a,l
   1985 54                 7768 	ld	d,h
   1986 F8 0B              7769 	lda	hl,11(sp)
   1988 22                 7770 	ld	(hl+),a
   1989 72                 7771 	ld	(hl),d
                           7772 ;	src/Scene_b.c 570
                           7773 ;	genPlus
                           7774 ;	AOP_STK for _SceneUpdateActors_b_i_1_1
                           7775 ;	genPlusIncr
   198A F8 0F              7776 	lda	hl,15(sp)
   198C 34                 7777 	inc	(hl)
                           7778 ;	genGoto
   198D C3 08 18           7779 	jp	00214$
                           7780 ;	genLabel
   1990                    7781 00178$:
                           7782 ;	src/Scene_b.c 599
                           7783 ;	genAnd
                           7784 ;	AOP_HL for _time
   1990 21 00 00           7785 	ld	hl,#_time
   1993 7E                 7786 	ld	a,(hl)
   1994 E6 07              7787 	and	a,#0x07
                           7788 ;	genCmpEq
                           7789 ; genCmpEq: left 1, right 1, result 0
   1996 4F                 7790 	ld	c,a
   1997 B7                 7791 	or	a,a
   1998 C2 C3 1A           7792 	jp	nz,00222$
   199B 18 03              7793 	jr	00345$
   199D                    7794 00344$:
   199D C3 C3 1A           7795 	jp	00222$
   19A0                    7796 00345$:
                           7797 ;	src/Scene_b.c 601
                           7798 ;	genAssign
                           7799 ;	AOP_HL for _scene_num_actors
                           7800 ;	AOP_STK for _SceneUpdateActors_b_len_1_1
   19A0 21 11 00           7801 	ld	hl,#_scene_num_actors
   19A3 7E                 7802 	ld	a,(hl)
   19A4 F8 0E              7803 	lda	hl,14(sp)
   19A6 77                 7804 	ld	(hl),a
                           7805 ;	src/Scene_b.c 602
                           7806 ;	genAssign
                           7807 ;	AOP_STK for _SceneUpdateActors_b_ptr_1_1
   19A7 F8 0B              7808 	lda	hl,11(sp)
   19A9 36 00              7809 	ld	(hl),#<_actors
   19AB 23                 7810 	inc	hl
   19AC 36 00              7811 	ld	(hl),#>_actors
                           7812 ;	src/Scene_b.c 604
                           7813 ;	genAssign
                           7814 ;	AOP_STK for _SceneUpdateActors_b_i_1_1
   19AE F8 0F              7815 	lda	hl,15(sp)
   19B0 36 00              7816 	ld	(hl),#0x00
                           7817 ;	genLabel
   19B2                    7818 00218$:
                           7819 ;	genCmpEq
                           7820 ;	AOP_STK for _SceneUpdateActors_b_i_1_1
                           7821 ;	AOP_STK for _SceneUpdateActors_b_len_1_1
                           7822 ; genCmpEq: left 1, right 1, result 0
   19B2 F8 0E              7823 	lda	hl,14(sp)
   19B4 2A                 7824 	ld	a,(hl+)
   19B5 BE                 7825 	cp	(hl)
   19B6 20 03              7826 	jr	nz,00346$
   19B8 C3 C3 1A           7827 	jp	00222$
   19BB                    7828 00346$:
                           7829 ;	src/Scene_b.c 606
                           7830 ;	genPlus
                           7831 ;	AOP_STK for _SceneUpdateActors_b_ptr_1_1
                           7832 ;	genPlusIncr
                           7833 ;	Can't optimise plus by inc, falling back to the normal way
   19BB F8 0B              7834 	lda	hl,11(sp)
   19BD 5E                 7835 	ld	e,(hl)
   19BE 23                 7836 	inc	hl
   19BF 56                 7837 	ld	d,(hl)
   19C0 21 0E 00           7838 	ld	hl,#0x000E
   19C3 19                 7839 	add	hl,de
   19C4 4D                 7840 	ld	c,l
   19C5 44                 7841 	ld	b,h
                           7842 ;	genPointerGet
   19C6 0A                 7843 	ld	a,(bc)
                           7844 ;	genCmpEq
                           7845 ; genCmpEq: left 1, right 1, result 0
   19C7 4F                 7846 	ld	c,a
   19C8 FE 04              7847 	cp	a,#0x04
   19CA CA 29 1A           7848 	jp	z,00186$
   19CD                    7849 00347$:
                           7850 ;	genCmpEq
                           7851 ; genCmpEq: left 1, right 1, result 0
   19CD 79                 7852 	ld	a,c
   19CE FE 03              7853 	cp	a,#0x03
   19D0 C2 E3 19           7854 	jp	nz,00191$
   19D3 18 03              7855 	jr	00349$
   19D5                    7856 00348$:
   19D5 C3 E3 19           7857 	jp	00191$
   19D8                    7858 00349$:
                           7859 ;	genAnd
                           7860 ;	AOP_HL for _time
   19D8 21 00 00           7861 	ld	hl,#_time
   19DB 7E                 7862 	ld	a,(hl)
   19DC E6 0F              7863 	and	a,#0x0F
                           7864 ;	genCmpEq
                           7865 ; genCmpEq: left 1, right 1, result 0
   19DE 47                 7866 	ld	b,a
   19DF B7                 7867 	or	a,a
   19E0 CA 29 1A           7868 	jp	z,00186$
   19E3                    7869 00350$:
                           7870 ;	genLabel
   19E3                    7871 00191$:
                           7872 ;	genCmpEq
                           7873 ; genCmpEq: left 1, right 1, result 0
   19E3 79                 7874 	ld	a,c
   19E4 FE 02              7875 	cp	a,#0x02
   19E6 C2 F9 19           7876 	jp	nz,00193$
   19E9 18 03              7877 	jr	00352$
   19EB                    7878 00351$:
   19EB C3 F9 19           7879 	jp	00193$
   19EE                    7880 00352$:
                           7881 ;	genAnd
                           7882 ;	AOP_HL for _time
   19EE 21 00 00           7883 	ld	hl,#_time
   19F1 7E                 7884 	ld	a,(hl)
   19F2 E6 1F              7885 	and	a,#0x1F
                           7886 ;	genCmpEq
                           7887 ; genCmpEq: left 1, right 1, result 0
   19F4 47                 7888 	ld	b,a
   19F5 B7                 7889 	or	a,a
   19F6 CA 29 1A           7890 	jp	z,00186$
   19F9                    7891 00353$:
                           7892 ;	genLabel
   19F9                    7893 00193$:
                           7894 ;	genCmpEq
                           7895 ; genCmpEq: left 1, right 1, result 0
   19F9 79                 7896 	ld	a,c
   19FA FE 01              7897 	cp	a,#0x01
   19FC C2 0F 1A           7898 	jp	nz,00195$
   19FF 18 03              7899 	jr	00355$
   1A01                    7900 00354$:
   1A01 C3 0F 1A           7901 	jp	00195$
   1A04                    7902 00355$:
                           7903 ;	genAnd
                           7904 ;	AOP_HL for _time
   1A04 21 00 00           7905 	ld	hl,#_time
   1A07 7E                 7906 	ld	a,(hl)
   1A08 E6 3F              7907 	and	a,#0x3F
                           7908 ;	genCmpEq
                           7909 ; genCmpEq: left 1, right 1, result 0
   1A0A 47                 7910 	ld	b,a
   1A0B B7                 7911 	or	a,a
   1A0C CA 29 1A           7912 	jp	z,00186$
   1A0F                    7913 00356$:
                           7914 ;	genLabel
   1A0F                    7915 00195$:
                           7916 ;	genCmpEq
                           7917 ; genCmpEq: left 1, right 1, result 0
   1A0F 79                 7918 	ld	a,c
   1A10 B7                 7919 	or	a,a
   1A11 C2 AE 1A           7920 	jp	nz,00187$
   1A14 18 03              7921 	jr	00358$
   1A16                    7922 00357$:
   1A16 C3 AE 1A           7923 	jp	00187$
   1A19                    7924 00358$:
                           7925 ;	genAnd
                           7926 ;	AOP_HL for _time
   1A19 21 00 00           7927 	ld	hl,#_time
   1A1C 7E                 7928 	ld	a,(hl)
   1A1D E6 7F              7929 	and	a,#0x7F
                           7930 ;	genCmpEq
                           7931 ; genCmpEq: left 1, right 1, result 0
   1A1F 4F                 7932 	ld	c,a
   1A20 B7                 7933 	or	a,a
   1A21 C2 AE 1A           7934 	jp	nz,00187$
   1A24 18 03              7935 	jr	00360$
   1A26                    7936 00359$:
   1A26 C3 AE 1A           7937 	jp	00187$
   1A29                    7938 00360$:
                           7939 ;	genLabel
   1A29                    7940 00186$:
                           7941 ;	src/Scene_b.c 608
                           7942 ;	genPlus
                           7943 ;	AOP_STK for _SceneUpdateActors_b_ptr_1_1
                           7944 ;	genPlusIncr
                           7945 ;	Can't optimise plus by inc, falling back to the normal way
   1A29 F8 0B              7946 	lda	hl,11(sp)
   1A2B 5E                 7947 	ld	e,(hl)
   1A2C 23                 7948 	inc	hl
   1A2D 56                 7949 	ld	d,(hl)
   1A2E 21 0C 00           7950 	ld	hl,#0x000C
   1A31 19                 7951 	add	hl,de
   1A32 4D                 7952 	ld	c,l
   1A33 44                 7953 	ld	b,h
                           7954 ;	genPointerGet
   1A34 0A                 7955 	ld	a,(bc)
                           7956 ;	genIfx
   1A35 B7                 7957 	or	a,a
   1A36 CA 61 1A           7958 	jp	z,00185$
                           7959 ;	genMult
                           7960 ;	AOP_STK for _SceneUpdateActors_b_i_1_1
   1A39 F8 0F              7961 	lda	hl,15(sp)
   1A3B 5E                 7962 	ld	e,(hl)
   1A3C 16 00              7963 	ld	d,#0x00
   1A3E 6B                 7964 	ld	l,e
   1A3F 62                 7965 	ld	h,d
   1A40 29                 7966 	add	hl,hl
   1A41 29                 7967 	add	hl,hl
   1A42 19                 7968 	add	hl,de
   1A43 29                 7969 	add	hl,hl
   1A44 19                 7970 	add	hl,de
   1A45 29                 7971 	add	hl,hl
   1A46 4D                 7972 	ld	c,l
   1A47 44                 7973 	ld	b,h
                           7974 ;	genPlus
                           7975 ;	Can't optimise plus by inc, falling back to the normal way
   1A48 21 00 00           7976 	ld	hl,#_actors
   1A4B 09                 7977 	add	hl,bc
   1A4C 4D                 7978 	ld	c,l
   1A4D 44                 7979 	ld	b,h
                           7980 ;	genPlus
                           7981 ;	genPlusIncr
                           7982 ;	Can't optimise plus by inc, falling back to the normal way
   1A4E 79                 7983 	ld	a,c
   1A4F C6 0F              7984 	add	a,#0x0F
   1A51 4F                 7985 	ld	c,a
   1A52 78                 7986 	ld	a,b
   1A53 CE 00              7987 	adc	a,#0x00
   1A55 47                 7988 	ld	b,a
                           7989 ;	genPointerGet
   1A56 0A                 7990 	ld	a,(bc)
                           7991 ;	genCmpEq
                           7992 ; genCmpEq: left 1, right 1, result 0
   1A57 4F                 7993 	ld	c,a
   1A58 B7                 7994 	or	a,a
   1A59 C2 71 1A           7995 	jp	nz,00182$
   1A5C 18 03              7996 	jr	00362$
   1A5E                    7997 00361$:
   1A5E C3 71 1A           7998 	jp	00182$
   1A61                    7999 00362$:
                           8000 ;	genLabel
   1A61                    8001 00185$:
                           8002 ;	genPlus
                           8003 ;	AOP_STK for _SceneUpdateActors_b_ptr_1_1
                           8004 ;	genPlusIncr
                           8005 ;	Can't optimise plus by inc, falling back to the normal way
   1A61 F8 0B              8006 	lda	hl,11(sp)
   1A63 5E                 8007 	ld	e,(hl)
   1A64 23                 8008 	inc	hl
   1A65 56                 8009 	ld	d,(hl)
   1A66 21 08 00           8010 	ld	hl,#0x0008
   1A69 19                 8011 	add	hl,de
   1A6A 4D                 8012 	ld	c,l
   1A6B 44                 8013 	ld	b,h
                           8014 ;	genPointerGet
   1A6C 0A                 8015 	ld	a,(bc)
                           8016 ;	genIfx
   1A6D B7                 8017 	or	a,a
   1A6E CA AE 1A           8018 	jp	z,00187$
                           8019 ;	genLabel
   1A71                    8020 00182$:
                           8021 ;	src/Scene_b.c 610
                           8022 ;	genPlus
                           8023 ;	AOP_STK for _SceneUpdateActors_b_ptr_1_1
                           8024 ;	genPlusIncr
                           8025 ;	Can't optimise plus by inc, falling back to the normal way
   1A71 F8 0B              8026 	lda	hl,11(sp)
   1A73 5E                 8027 	ld	e,(hl)
   1A74 23                 8028 	inc	hl
   1A75 56                 8029 	ld	d,(hl)
   1A76 21 06 00           8030 	ld	hl,#0x0006
   1A79 19                 8031 	add	hl,de
   1A7A 4D                 8032 	ld	c,l
   1A7B 44                 8033 	ld	b,h
                           8034 ;	genPointerGet
                           8035 ;	AOP_STK for _SceneUpdateActors_b_sloc6_1_0
   1A7C 0A                 8036 	ld	a,(bc)
   1A7D F8 00              8037 	lda	hl,0(sp)
   1A7F 77                 8038 	ld	(hl),a
                           8039 ;	genPlus
                           8040 ;	AOP_STK for _SceneUpdateActors_b_ptr_1_1
                           8041 ;	AOP_STK for _SceneUpdateActors_b_sloc5_1_0
                           8042 ;	genPlusIncr
                           8043 ;	Can't optimise plus by inc, falling back to the normal way
   1A80 F8 0B              8044 	lda	hl,11(sp)
   1A82 5E                 8045 	ld	e,(hl)
   1A83 23                 8046 	inc	hl
   1A84 56                 8047 	ld	d,(hl)
   1A85 21 07 00           8048 	ld	hl,#0x0007
   1A88 19                 8049 	add	hl,de
   1A89 7D                 8050 	ld	a,l
   1A8A 54                 8051 	ld	d,h
   1A8B F8 02              8052 	lda	hl,2(sp)
                           8053 ;	genPointerGet
                           8054 ;	AOP_STK for _SceneUpdateActors_b_sloc5_1_0
                           8055 ;	AOP_STK for _SceneUpdateActors_b_sloc4_1_0
   1A8D 22                 8056 	ld	(hl+),a
   1A8E 72                 8057 	ld	(hl),d
   1A8F 5F                 8058 	ld	e,a
   1A90 1A                 8059 	ld	a,(de)
   1A91 23                 8060 	inc	hl
                           8061 ;	genMinus
                           8062 ;	AOP_STK for _SceneUpdateActors_b_sloc4_1_0
                           8063 ;	AOP_STK for _SceneUpdateActors_b_sloc5_1_0
   1A92 77                 8064 	ld      (hl),a
                           8065 ; Removed redundent load
   1A93 C6 FF              8066 	add	a,#0xFF
   1A95 2B                 8067 	dec	hl
   1A96 2B                 8068 	dec	hl
                           8069 ;	genCmpEq
                           8070 ;	AOP_STK for _SceneUpdateActors_b_sloc6_1_0
                           8071 ;	AOP_STK for _SceneUpdateActors_b_sloc5_1_0
                           8072 ; genCmpEq: left 1, right 1, result 0
                           8073 ; Removed redundent load
   1A97 32                 8074 	ld      (hl-),a
   1A98 2B                 8075 	dec	hl
   1A99 BE                 8076 	cp	(hl)
   1A9A 20 02              8077 	jr	nz,00363$
   1A9C 18 03              8078 	jr	00364$
   1A9E                    8079 00363$:
   1A9E C3 A7 1A           8080 	jp	00180$
   1AA1                    8081 00364$:
                           8082 ;	src/Scene_b.c 612
                           8083 ;	genAssign (pointer)
   1AA1 3E 00              8084 	ld	a,#0x00
   1AA3 02                 8085 	ld	(bc),a
                           8086 ;	genGoto
   1AA4 C3 AE 1A           8087 	jp	00187$
                           8088 ;	genLabel
   1AA7                    8089 00180$:
                           8090 ;	src/Scene_b.c 616
                           8091 ;	genPointerGet
                           8092 ;	AOP_STK for _SceneUpdateActors_b_sloc6_1_0
   1AA7 0A                 8093 	ld	a,(bc)
   1AA8 F8 00              8094 	lda	hl,0(sp)
                           8095 ;	genPlus
                           8096 ;	AOP_STK for _SceneUpdateActors_b_sloc6_1_0
                           8097 ;	genPlusIncr
                           8098 ;	Can't optimise plus by inc, falling back to the normal way
   1AAA 77                 8099 	ld      (hl),a
                           8100 ; Removed redundent load
   1AAB C6 01              8101 	add	a,#0x01
                           8102 ;	genAssign (pointer)
   1AAD 02                 8103 	ld	(bc),a
                           8104 ;	genLabel
   1AAE                    8105 00187$:
                           8106 ;	src/Scene_b.c 621
                           8107 ;	genPlus
                           8108 ;	AOP_STK for _SceneUpdateActors_b_ptr_1_1
                           8109 ;	genPlusIncr
                           8110 ;	Can't optimise plus by inc, falling back to the normal way
   1AAE F8 0B              8111 	lda	hl,11(sp)
   1AB0 5E                 8112 	ld	e,(hl)
   1AB1 23                 8113 	inc	hl
   1AB2 56                 8114 	ld	d,(hl)
   1AB3 21 16 00           8115 	ld	hl,#0x0016
   1AB6 19                 8116 	add	hl,de
   1AB7 7D                 8117 	ld	a,l
   1AB8 54                 8118 	ld	d,h
   1AB9 F8 0B              8119 	lda	hl,11(sp)
   1ABB 22                 8120 	ld	(hl+),a
   1ABC 72                 8121 	ld	(hl),d
                           8122 ;	src/Scene_b.c 604
                           8123 ;	genPlus
                           8124 ;	AOP_STK for _SceneUpdateActors_b_i_1_1
                           8125 ;	genPlusIncr
   1ABD F8 0F              8126 	lda	hl,15(sp)
   1ABF 34                 8127 	inc	(hl)
                           8128 ;	genGoto
   1AC0 C3 B2 19           8129 	jp	00218$
                           8130 ;	genLabel
   1AC3                    8131 00222$:
                           8132 ;	genEndFunction
   1AC3 E8 10              8133 	lda	sp,16(sp)
   1AC5 C9                 8134 	ret
   1AC6                    8135 ___SceneUpdateActors_b_end:
                           8136 ;	src/Scene_b.c 626
                           8137 ;	genLabel
                           8138 ;	genFunction
                           8139 ;	---------------------------------
                           8140 ; Function SceneUpdateActorMovement_b
                           8141 ; ---------------------------------
   1AC6                    8142 ___SceneUpdateActorMovement_b_start:
   1AC6                    8143 _SceneUpdateActorMovement_b:
   1AC6 E8 F3              8144 	lda	sp,-13(sp)
                           8145 ;	src/Scene_b.c 632
                           8146 ;	genAssign
                           8147 ;	(operands are equal 3)
                           8148 ;	genMult
                           8149 ;	AOP_STK for 
   1AC8 F8 0F              8150 	lda	hl,15(sp)
   1ACA 5E                 8151 	ld	e,(hl)
   1ACB 16 00              8152 	ld	d,#0x00
   1ACD 6B                 8153 	ld	l,e
   1ACE 62                 8154 	ld	h,d
   1ACF 29                 8155 	add	hl,hl
   1AD0 29                 8156 	add	hl,hl
   1AD1 19                 8157 	add	hl,de
   1AD2 29                 8158 	add	hl,hl
   1AD3 19                 8159 	add	hl,de
   1AD4 29                 8160 	add	hl,hl
   1AD5 4D                 8161 	ld	c,l
   1AD6 44                 8162 	ld	b,h
                           8163 ;	genPlus
                           8164 ;	Can't optimise plus by inc, falling back to the normal way
   1AD7 21 00 00           8165 	ld	hl,#_actors
   1ADA 09                 8166 	add	hl,bc
   1ADB 4D                 8167 	ld	c,l
   1ADC 44                 8168 	ld	b,h
                           8169 ;	genPlus
                           8170 ;	AOP_STK for _SceneUpdateActorMovement_b_sloc0_1_0
                           8171 ;	genPlusIncr
                           8172 ;	Can't optimise plus by inc, falling back to the normal way
   1ADD 21 03 00           8173 	ld	hl,#0x0003
   1AE0 09                 8174 	add	hl,bc
   1AE1 7D                 8175 	ld	a,l
   1AE2 54                 8176 	ld	d,h
   1AE3 F8 06              8177 	lda	hl,6(sp)
   1AE5 22                 8178 	ld	(hl+),a
   1AE6 72                 8179 	ld	(hl),d
                           8180 ;	genIpush
                           8181 ; _saveRegsForCall: sendSetSize: 0 deInUse: 0 bcInUse: 1 deSending: 0
   1AE7 C5                 8182 	push	bc
   1AE8 21 02 00           8183 	ld	hl,#0x0002
   1AEB E5                 8184 	push	hl
                           8185 ;	genIpush
                           8186 ;	AOP_HL for _update_dir
   1AEC 21 A1 00           8187 	ld	hl,#_update_dir
   1AEF 2A                 8188 	ld	a,(hl+)
   1AF0 66                 8189 	ld	h,(hl)
   1AF1 6F                 8190 	ld	l,a
   1AF2 E5                 8191 	push	hl
                           8192 ;	genIpush
                           8193 ;	AOP_STK for _SceneUpdateActorMovement_b_sloc0_1_0
   1AF3 F8 0C              8194 	lda	hl,12(sp)
   1AF5 2A                 8195 	ld	a,(hl+)
   1AF6 66                 8196 	ld	h,(hl)
   1AF7 6F                 8197 	ld	l,a
   1AF8 E5                 8198 	push	hl
                           8199 ;	genCall
   1AF9 CD 00 00           8200 	call	_memcpy
   1AFC E8 06              8201 	lda	sp,6(sp)
   1AFE C1                 8202 	pop	bc
                           8203 ;	src/Scene_b.c 634
                           8204 ;	genIpush
                           8205 ; _saveRegsForCall: sendSetSize: 0 deInUse: 0 bcInUse: 1 deSending: 0
   1AFF C5                 8206 	push	bc
                           8207 ;	AOP_STK for 
   1B00 F8 11              8208 	lda	hl,17(sp)
   1B02 7E                 8209 	ld	a,(hl)
   1B03 F5                 8210 	push	af
   1B04 33                 8211 	inc	sp
                           8212 ;	genCall
   1B05 CD 6F 24           8213 	call	_SceneRenderActor_b
   1B08 E8 01              8214 	lda	sp,1(sp)
   1B0A C1                 8215 	pop	bc
                           8216 ;	src/Scene_b.c 637
                           8217 ;	genCmpEq
                           8218 ;	AOP_HL for _script_ptr
                           8219 ; genCmpEq: left 2, right 2, result 0
   1B0B 21 00 00           8220 	ld	hl,#_script_ptr
   1B0E 2A                 8221 	ld	a,(hl+)
   1B0F B6                 8222 	or	a,(hl)
   1B10 CA 38 1B           8223 	jp	z,00104$
   1B13                    8224 00144$:
                           8225 ;	genAnd
                           8226 ;	AOP_HL for _actor_move_settings
   1B13 21 00 00           8227 	ld	hl,#_actor_move_settings
   1B16 7E                 8228 	ld	a,(hl)
   1B17 E6 40              8229 	and	a,#0x40
   1B19 20 03              8230 	jr	nz,00145$
   1B1B C3 38 1B           8231 	jp	00104$
   1B1E                    8232 00145$:
                           8233 ;	src/Scene_b.c 639
                           8234 ;	genCmpEq
                           8235 ;	AOP_STK for 
                           8236 ; genCmpEq: left 1, right 1, result 0
   1B1E F8 0F              8237 	lda	hl,15(sp)
   1B20 7E                 8238 	ld	a,(hl)
   1B21 B7                 8239 	or	a,a
   1B22 C2 2F 1B           8240 	jp	nz,00102$
   1B25 18 03              8241 	jr	00147$
   1B27                    8242 00146$:
   1B27 C3 2F 1B           8243 	jp	00102$
   1B2A                    8244 00147$:
                           8245 ;	src/Scene_b.c 641
                           8246 ;	genAssign
                           8247 ;	AOP_HL for _check_triggers
   1B2A 21 0E 00           8248 	ld	hl,#_check_triggers
   1B2D 36 01              8249 	ld	(hl),#0x01
                           8250 ;	genLabel
   1B2F                    8251 00102$:
                           8252 ;	src/Scene_b.c 643
                           8253 ;	genPlus
                           8254 ;	genPlusIncr
   1B2F 21 0C 00           8255 	ld	hl,#0x000C
   1B32 09                 8256 	add	hl,bc
                           8257 ;	genAssign (pointer)
   1B33 36 01              8258 	ld	(hl),#0x01
                           8259 ;	src/Scene_b.c 644
                           8260 ;	genRet
   1B35 C3 BC 1D           8261 	jp	00127$
                           8262 ;	genLabel
   1B38                    8263 00104$:
                           8264 ;	src/Scene_b.c 647
                           8265 ;	genPlus
                           8266 ;	AOP_STK for _SceneUpdateActorMovement_b_sloc1_1_0
                           8267 ;	genPlusIncr
                           8268 ;	Can't optimise plus by inc, falling back to the normal way
   1B38 21 01 00           8269 	ld	hl,#0x0001
   1B3B 09                 8270 	add	hl,bc
   1B3C 7D                 8271 	ld	a,l
   1B3D 54                 8272 	ld	d,h
   1B3E F8 04              8273 	lda	hl,4(sp)
                           8274 ;	genPointerGet
                           8275 ;	AOP_STK for _SceneUpdateActorMovement_b_sloc1_1_0
                           8276 ;	AOP_STK for _SceneUpdateActorMovement_b_sloc2_1_0
   1B40 22                 8277 	ld	(hl+),a
   1B41 72                 8278 	ld	(hl),d
   1B42 5F                 8279 	ld	e,a
   1B43 1A                 8280 	ld	a,(de)
   1B44 2B                 8281 	dec	hl
   1B45 2B                 8282 	dec	hl
                           8283 ;	genRightShift
                           8284 ;	AOP_STK for _SceneUpdateActorMovement_b_sloc2_1_0
                           8285 ;	AOP_STK for _SceneUpdateActorMovement_b_sloc1_1_0
   1B46 77                 8286 	ld      (hl),a
                           8287 ; Removed redundent load
   1B47 CB 3F              8288 	srl	a
   1B49 CB 3F              8289 	srl	a
   1B4B CB 3F              8290 	srl	a
   1B4D 23                 8291 	inc	hl
                           8292 ;	genPointerGet
                           8293 ;	AOP_STK for _SceneUpdateActorMovement_b_sloc0_1_0
                           8294 ;	AOP_STK for _SceneUpdateActorMovement_b_sloc2_1_0
   1B4E 22                 8295 	ld	(hl+),a
   1B4F 23                 8296 	inc	hl
   1B50 5E                 8297 	ld	e,(hl)
   1B51 23                 8298 	inc	hl
   1B52 56                 8299 	ld	d,(hl)
   1B53 1A                 8300 	ld	a,(de)
   1B54 F8 03              8301 	lda	hl,3(sp)
                           8302 ;	genPlus
                           8303 ;	AOP_STK for _SceneUpdateActorMovement_b_sloc1_1_0
                           8304 ;	AOP_STK for _SceneUpdateActorMovement_b_sloc2_1_0
                           8305 ;	AOP_STK for _SceneUpdateActorMovement_b_next_tx_1_1
                           8306 ;	Can't optimise plus by inc, falling back to the normal way
   1B56 22                 8307 	ld	(hl+),a
   1B57 7E                 8308 	ld	a,(hl)
   1B58 2B                 8309 	dec	hl
   1B59 86                 8310 	add	a,(hl)
   1B5A F8 0C              8311 	lda	hl,12(sp)
   1B5C 77                 8312 	ld	(hl),a
                           8313 ;	genAssign
                           8314 ;	AOP_STK for _SceneUpdateActorMovement_b_next_tx_1_1
                           8315 ;	(registers are the same)
                           8316 ;	src/Scene_b.c 648
                           8317 ;	genPlus
                           8318 ;	AOP_STK for _SceneUpdateActorMovement_b_sloc1_1_0
                           8319 ;	genPlusIncr
                           8320 ;	Can't optimise plus by inc, falling back to the normal way
   1B5D 21 02 00           8321 	ld	hl,#0x0002
   1B60 09                 8322 	add	hl,bc
   1B61 7D                 8323 	ld	a,l
   1B62 54                 8324 	ld	d,h
   1B63 F8 04              8325 	lda	hl,4(sp)
                           8326 ;	genPointerGet
                           8327 ;	AOP_STK for _SceneUpdateActorMovement_b_sloc1_1_0
                           8328 ;	AOP_STK for _SceneUpdateActorMovement_b_sloc2_1_0
   1B65 22                 8329 	ld	(hl+),a
   1B66 72                 8330 	ld	(hl),d
   1B67 5F                 8331 	ld	e,a
   1B68 1A                 8332 	ld	a,(de)
   1B69 2B                 8333 	dec	hl
   1B6A 2B                 8334 	dec	hl
                           8335 ;	genRightShift
                           8336 ;	AOP_STK for _SceneUpdateActorMovement_b_sloc2_1_0
                           8337 ;	AOP_STK for _SceneUpdateActorMovement_b_sloc3_1_0
   1B6B 77                 8338 	ld      (hl),a
                           8339 ; Removed redundent load
   1B6C CB 3F              8340 	srl	a
   1B6E CB 3F              8341 	srl	a
   1B70 CB 3F              8342 	srl	a
   1B72 2B                 8343 	dec	hl
   1B73 77                 8344 	ld	(hl),a
                           8345 ;	genPlus
                           8346 ;	AOP_STK for _SceneUpdateActorMovement_b_sloc4_1_0
                           8347 ;	genPlusIncr
                           8348 ;	Can't optimise plus by inc, falling back to the normal way
   1B74 21 04 00           8349 	ld	hl,#0x0004
   1B77 09                 8350 	add	hl,bc
   1B78 7D                 8351 	ld	a,l
   1B79 54                 8352 	ld	d,h
   1B7A F8 00              8353 	lda	hl,0(sp)
                           8354 ;	genPointerGet
                           8355 ;	AOP_STK for _SceneUpdateActorMovement_b_sloc4_1_0
                           8356 ;	AOP_STK for _SceneUpdateActorMovement_b_sloc2_1_0
   1B7C 22                 8357 	ld	(hl+),a
   1B7D 72                 8358 	ld	(hl),d
   1B7E 5F                 8359 	ld	e,a
   1B7F 1A                 8360 	ld	a,(de)
   1B80 23                 8361 	inc	hl
   1B81 23                 8362 	inc	hl
                           8363 ;	genPlus
                           8364 ;	AOP_STK for _SceneUpdateActorMovement_b_sloc3_1_0
                           8365 ;	AOP_STK for _SceneUpdateActorMovement_b_sloc2_1_0
                           8366 ;	AOP_STK for _SceneUpdateActorMovement_b_next_ty_1_1
                           8367 ;	Can't optimise plus by inc, falling back to the normal way
   1B82 32                 8368 	ld      (hl-),a
   1B83 2A                 8369 	ld	a,(hl+)
   1B84 86                 8370 	add	a,(hl)
   1B85 F8 0B              8371 	lda	hl,11(sp)
   1B87 77                 8372 	ld	(hl),a
                           8373 ;	genAssign
                           8374 ;	AOP_STK for _SceneUpdateActorMovement_b_next_ty_1_1
                           8375 ;	(registers are the same)
                           8376 ;	src/Scene_b.c 651
                           8377 ;	genIpush
                           8378 ; _saveRegsForCall: sendSetSize: 0 deInUse: 0 bcInUse: 1 deSending: 0
   1B88 C5                 8379 	push	bc
                           8380 ;	AOP_STK for _SceneUpdateActorMovement_b_next_ty_1_1
   1B89 7E                 8381 	ld	a,(hl)
   1B8A F5                 8382 	push	af
   1B8B 33                 8383 	inc	sp
                           8384 ;	genIpush
                           8385 ;	AOP_STK for _SceneUpdateActorMovement_b_next_tx_1_1
   1B8C 23                 8386 	inc	hl
   1B8D 7E                 8387 	ld	a,(hl)
   1B8E F5                 8388 	push	af
   1B8F 33                 8389 	inc	sp
                           8390 ;	genIpush
                           8391 ;	AOP_STK for 
   1B90 F8 13              8392 	lda	hl,19(sp)
   1B92 7E                 8393 	ld	a,(hl)
   1B93 F5                 8394 	push	af
   1B94 33                 8395 	inc	sp
                           8396 ;	genCall
   1B95 CD 53 27           8397 	call	_SceneNpcAt_b
                           8398 ;	AOP_STK for _SceneUpdateActorMovement_b_npc_1_1
   1B98 F8 0F              8399 	lda	hl,15(sp)
   1B9A 73                 8400 	ld	(hl),e
   1B9B E8 03              8401 	lda	sp,3(sp)
   1B9D C1                 8402 	pop	bc
                           8403 ;	genAssign
                           8404 ;	AOP_STK for _SceneUpdateActorMovement_b_npc_1_1
                           8405 ;	(registers are the same)
                           8406 ;	src/Scene_b.c 652
                           8407 ;	genCmpEq
                           8408 ;	AOP_STK for _SceneUpdateActorMovement_b_npc_1_1
                           8409 ;	AOP_HL for _scene_num_actors
                           8410 ; genCmpEq: left 1, right 1, result 0
   1B9E 21 11 00           8411 	ld	hl,#_scene_num_actors
   1BA1 7E                 8412 	ld	a,(hl)
   1BA2 F8 0A              8413 	lda	hl,10(sp)
   1BA4 BE                 8414 	cp	(hl)
   1BA5 20 03              8415 	jr	nz,00148$
   1BA7 C3 B3 1B           8416 	jp	00107$
   1BAA                    8417 00148$:
                           8418 ;	src/Scene_b.c 654
                           8419 ;	genPlus
                           8420 ;	genPlusIncr
   1BAA 21 0C 00           8421 	ld	hl,#0x000C
   1BAD 09                 8422 	add	hl,bc
                           8423 ;	genAssign (pointer)
   1BAE 36 00              8424 	ld	(hl),#0x00
                           8425 ;	src/Scene_b.c 655
                           8426 ;	genRet
   1BB0 C3 BC 1D           8427 	jp	00127$
                           8428 ;	genLabel
   1BB3                    8429 00107$:
                           8430 ;	src/Scene_b.c 659
                           8431 ;	genPointerGet
                           8432 ;	AOP_STK for _SceneUpdateActorMovement_b_sloc0_1_0
                           8433 ;	AOP_STK for _SceneUpdateActorMovement_b_sloc3_1_0
   1BB3 F8 06              8434 	lda	hl,6(sp)
   1BB5 5E                 8435 	ld	e,(hl)
   1BB6 23                 8436 	inc	hl
   1BB7 56                 8437 	ld	d,(hl)
   1BB8 1A                 8438 	ld	a,(de)
   1BB9 F8 02              8439 	lda	hl,2(sp)
                           8440 ;	genCmpEq
                           8441 ;	AOP_STK for _SceneUpdateActorMovement_b_sloc3_1_0
                           8442 ; genCmpEq: left 1, right 1, result 0
   1BBB 77                 8443 	ld      (hl),a
                           8444 ; Removed redundent load
   1BBC FE FF              8445 	cp	a,#0xFF
   1BBE C2 DB 1B           8446 	jp	nz,00109$
   1BC1 18 03              8447 	jr	00150$
   1BC3                    8448 00149$:
   1BC3 C3 DB 1B           8449 	jp	00109$
   1BC6                    8450 00150$:
                           8451 ;	genCmpEq
                           8452 ;	AOP_STK for _SceneUpdateActorMovement_b_next_tx_1_1
                           8453 ; genCmpEq: left 1, right 1, result 0
   1BC6 F8 0C              8454 	lda	hl,12(sp)
   1BC8 7E                 8455 	ld	a,(hl)
   1BC9 B7                 8456 	or	a,a
   1BCA C2 DB 1B           8457 	jp	nz,00109$
   1BCD 18 03              8458 	jr	00152$
   1BCF                    8459 00151$:
   1BCF C3 DB 1B           8460 	jp	00109$
   1BD2                    8461 00152$:
                           8462 ;	src/Scene_b.c 661
                           8463 ;	genPlus
                           8464 ;	genPlusIncr
   1BD2 21 0C 00           8465 	ld	hl,#0x000C
   1BD5 09                 8466 	add	hl,bc
                           8467 ;	genAssign (pointer)
   1BD6 36 00              8468 	ld	(hl),#0x00
                           8469 ;	src/Scene_b.c 662
                           8470 ;	genRet
   1BD8 C3 BC 1D           8471 	jp	00127$
                           8472 ;	genLabel
   1BDB                    8473 00109$:
                           8474 ;	src/Scene_b.c 666
                           8475 ;	genPointerGet
                           8476 ;	AOP_STK for _SceneUpdateActorMovement_b_sloc0_1_0
                           8477 ;	AOP_STK for _SceneUpdateActorMovement_b_sloc3_1_0
   1BDB F8 06              8478 	lda	hl,6(sp)
   1BDD 5E                 8479 	ld	e,(hl)
   1BDE 23                 8480 	inc	hl
   1BDF 56                 8481 	ld	d,(hl)
   1BE0 1A                 8482 	ld	a,(de)
   1BE1 F8 02              8483 	lda	hl,2(sp)
                           8484 ;	genCmpEq
                           8485 ;	AOP_STK for _SceneUpdateActorMovement_b_sloc3_1_0
                           8486 ; genCmpEq: left 1, right 1, result 0
   1BE3 77                 8487 	ld      (hl),a
                           8488 ; Removed redundent load
   1BE4 FE 01              8489 	cp	a,#0x01
   1BE6 C2 05 1C           8490 	jp	nz,00112$
   1BE9 18 03              8491 	jr	00154$
   1BEB                    8492 00153$:
   1BEB C3 05 1C           8493 	jp	00112$
   1BEE                    8494 00154$:
                           8495 ;	genCmpEq
                           8496 ;	AOP_STK for _SceneUpdateActorMovement_b_next_tx_1_1
                           8497 ;	AOP_HL for _scene_width
                           8498 ; genCmpEq: left 1, right 1, result 0
   1BEE 21 00 00           8499 	ld	hl,#_scene_width
   1BF1 7E                 8500 	ld	a,(hl)
   1BF2 F8 0C              8501 	lda	hl,12(sp)
   1BF4 BE                 8502 	cp	(hl)
   1BF5 20 02              8503 	jr	nz,00155$
   1BF7 18 03              8504 	jr	00156$
   1BF9                    8505 00155$:
   1BF9 C3 05 1C           8506 	jp	00112$
   1BFC                    8507 00156$:
                           8508 ;	src/Scene_b.c 668
                           8509 ;	genPlus
                           8510 ;	genPlusIncr
   1BFC 21 0C 00           8511 	ld	hl,#0x000C
   1BFF 09                 8512 	add	hl,bc
                           8513 ;	genAssign (pointer)
   1C00 36 00              8514 	ld	(hl),#0x00
                           8515 ;	src/Scene_b.c 669
                           8516 ;	genRet
   1C02 C3 BC 1D           8517 	jp	00127$
                           8518 ;	genLabel
   1C05                    8519 00112$:
                           8520 ;	src/Scene_b.c 673
                           8521 ;	genPointerGet
                           8522 ;	AOP_STK for _SceneUpdateActorMovement_b_sloc4_1_0
                           8523 ;	AOP_STK for _SceneUpdateActorMovement_b_sloc3_1_0
   1C05 F8 00              8524 	lda	hl,0(sp)
   1C07 5E                 8525 	ld	e,(hl)
   1C08 23                 8526 	inc	hl
   1C09 56                 8527 	ld	d,(hl)
   1C0A 1A                 8528 	ld	a,(de)
   1C0B 23                 8529 	inc	hl
                           8530 ;	genCmpEq
                           8531 ;	AOP_STK for _SceneUpdateActorMovement_b_sloc3_1_0
                           8532 ; genCmpEq: left 1, right 1, result 0
   1C0C 77                 8533 	ld      (hl),a
                           8534 ; Removed redundent load
   1C0D FE FF              8535 	cp	a,#0xFF
   1C0F C2 2C 1C           8536 	jp	nz,00115$
   1C12 18 03              8537 	jr	00158$
   1C14                    8538 00157$:
   1C14 C3 2C 1C           8539 	jp	00115$
   1C17                    8540 00158$:
                           8541 ;	genCmpEq
                           8542 ;	AOP_STK for _SceneUpdateActorMovement_b_next_ty_1_1
                           8543 ; genCmpEq: left 1, right 1, result 0
   1C17 F8 0B              8544 	lda	hl,11(sp)
   1C19 7E                 8545 	ld	a,(hl)
   1C1A B7                 8546 	or	a,a
   1C1B C2 2C 1C           8547 	jp	nz,00115$
   1C1E 18 03              8548 	jr	00160$
   1C20                    8549 00159$:
   1C20 C3 2C 1C           8550 	jp	00115$
   1C23                    8551 00160$:
                           8552 ;	src/Scene_b.c 675
                           8553 ;	genPlus
                           8554 ;	genPlusIncr
   1C23 21 0C 00           8555 	ld	hl,#0x000C
   1C26 09                 8556 	add	hl,bc
                           8557 ;	genAssign (pointer)
   1C27 36 00              8558 	ld	(hl),#0x00
                           8559 ;	src/Scene_b.c 676
                           8560 ;	genRet
   1C29 C3 BC 1D           8561 	jp	00127$
                           8562 ;	genLabel
   1C2C                    8563 00115$:
                           8564 ;	src/Scene_b.c 680
                           8565 ;	genCmpEq
                           8566 ;	AOP_STK for _SceneUpdateActorMovement_b_sloc3_1_0
                           8567 ; genCmpEq: left 1, right 1, result 0
   1C2C F8 02              8568 	lda	hl,2(sp)
   1C2E 7E                 8569 	ld	a,(hl)
   1C2F FE 01              8570 	cp	a,#0x01
   1C31 C2 66 1C           8571 	jp	nz,00118$
   1C34 18 03              8572 	jr	00162$
   1C36                    8573 00161$:
   1C36 C3 66 1C           8574 	jp	00118$
   1C39                    8575 00162$:
                           8576 ;	genPlus
                           8577 ;	AOP_HL for _scene_height
                           8578 ;	AOP_STK for _SceneUpdateActorMovement_b_sloc4_1_0
                           8579 ;	genPlusIncr
                           8580 ;	Can't optimise plus by inc, falling back to the normal way
   1C39 21 00 00           8581 	ld	hl,#_scene_height
   1C3C 7E                 8582 	ld	a,(hl)
   1C3D C6 01              8583 	add	a,#0x01
   1C3F F8 00              8584 	lda	hl,0(sp)
                           8585 ;	genCmpEq
                           8586 ;	AOP_STK for _SceneUpdateActorMovement_b_next_ty_1_1
                           8587 ;	AOP_STK for _SceneUpdateActorMovement_b_sloc4_1_0
                           8588 ; genCmpEq: left 1, right 1, result 0
   1C41 77                 8589 	ld      (hl),a
                           8590 ; Removed redundent load
   1C42 F8 0B              8591 	lda	hl,11(sp)
   1C44 BE                 8592 	cp	(hl)
   1C45 20 03              8593 	jr	nz,00163$
   1C47 C3 5D 1C           8594 	jp	00117$
   1C4A                    8595 00163$:
                           8596 ;	genPointerGet
                           8597 ;	AOP_STK for _SceneUpdateActorMovement_b_sloc1_1_0
                           8598 ;	AOP_STK for _SceneUpdateActorMovement_b_sloc4_1_0
   1C4A F8 04              8599 	lda	hl,4(sp)
   1C4C 5E                 8600 	ld	e,(hl)
   1C4D 23                 8601 	inc	hl
   1C4E 56                 8602 	ld	d,(hl)
   1C4F 1A                 8603 	ld	a,(de)
   1C50 F8 00              8604 	lda	hl,0(sp)
                           8605 ;	genCmpEq
                           8606 ;	AOP_STK for _SceneUpdateActorMovement_b_sloc4_1_0
                           8607 ; genCmpEq: left 1, right 1, result 0
   1C52 77                 8608 	ld      (hl),a
                           8609 ; Removed redundent load
   1C53 FE FE              8610 	cp	a,#0xFE
   1C55 C2 66 1C           8611 	jp	nz,00118$
   1C58 18 03              8612 	jr	00165$
   1C5A                    8613 00164$:
   1C5A C3 66 1C           8614 	jp	00118$
   1C5D                    8615 00165$:
                           8616 ;	genLabel
   1C5D                    8617 00117$:
                           8618 ;	src/Scene_b.c 682
                           8619 ;	genPlus
                           8620 ;	genPlusIncr
   1C5D 21 0C 00           8621 	ld	hl,#0x000C
   1C60 09                 8622 	add	hl,bc
                           8623 ;	genAssign (pointer)
   1C61 36 00              8624 	ld	(hl),#0x00
                           8625 ;	src/Scene_b.c 683
                           8626 ;	genRet
   1C63 C3 BC 1D           8627 	jp	00127$
                           8628 ;	genLabel
   1C66                    8629 00118$:
                           8630 ;	src/Scene_b.c 687
                           8631 ;	genCast
                           8632 ;	AOP_HL for _scene_width
                           8633 ;	AOP_STK for _SceneUpdateActorMovement_b_sloc4_1_0
   1C66 21 00 00           8634 	ld	hl,#_scene_width
   1C69 7E                 8635 	ld	a,(hl)
   1C6A F8 00              8636 	lda	hl,0(sp)
   1C6C 22                 8637 	ld	(hl+),a
   1C6D 36 00              8638 	ld	(hl),#0x00
                           8639 ;	genMinus
                           8640 ;	AOP_STK for _SceneUpdateActorMovement_b_next_ty_1_1
                           8641 ;	AOP_STK for _SceneUpdateActorMovement_b_sloc3_1_0
   1C6F F8 0B              8642 	lda	hl,11(sp)
   1C71 7E                 8643 	ld	a,(hl)
   1C72 C6 FF              8644 	add	a,#0xFF
   1C74 F8 02              8645 	lda	hl,2(sp)
   1C76 77                 8646 	ld	(hl),a
                           8647 ;	genCast
                           8648 ;	AOP_STK for _SceneUpdateActorMovement_b_sloc3_1_0
                           8649 ;	AOP_STK for _SceneUpdateActorMovement_b_sloc1_1_0
   1C77 2A                 8650 	ld	a,(hl+)
   1C78 23                 8651 	inc	hl
   1C79 22                 8652 	ld	(hl+),a
   1C7A 36 00              8653 	ld	(hl),#0x00
                           8654 ;	genIpush
                           8655 ; _saveRegsForCall: sendSetSize: 0 deInUse: 0 bcInUse: 1 deSending: 0
   1C7C C5                 8656 	push	bc
                           8657 ;	AOP_STK for _SceneUpdateActorMovement_b_sloc1_1_0
   1C7D 2B                 8658 	dec	hl
   1C7E 2A                 8659 	ld	a,(hl+)
   1C7F 66                 8660 	ld	h,(hl)
   1C80 6F                 8661 	ld	l,a
   1C81 E5                 8662 	push	hl
                           8663 ;	genIpush
                           8664 ;	AOP_STK for _SceneUpdateActorMovement_b_sloc4_1_0
   1C82 F8 04              8665 	lda	hl,4(sp)
   1C84 2A                 8666 	ld	a,(hl+)
   1C85 66                 8667 	ld	h,(hl)
   1C86 6F                 8668 	ld	l,a
   1C87 E5                 8669 	push	hl
                           8670 ;	genCall
   1C88 CD 00 00           8671 	call	__muluint_rrx_s
                           8672 ;	AOP_STK for _SceneUpdateActorMovement_b_sloc4_1_0
   1C8B F8 07              8673 	lda	hl,7(sp)
   1C8D 72                 8674 	ld	(hl),d
   1C8E 2B                 8675 	dec	hl
   1C8F 73                 8676 	ld	(hl),e
   1C90 E8 04              8677 	lda	sp,4(sp)
   1C92 C1                 8678 	pop	bc
                           8679 ;	genMinus
                           8680 ;	AOP_STK for _SceneUpdateActorMovement_b_next_tx_1_1
                           8681 ;	AOP_STK for _SceneUpdateActorMovement_b_sloc3_1_0
   1C93 F8 0C              8682 	lda	hl,12(sp)
   1C95 7E                 8683 	ld	a,(hl)
   1C96 C6 FF              8684 	add	a,#0xFF
   1C98 F8 02              8685 	lda	hl,2(sp)
   1C9A 77                 8686 	ld	(hl),a
                           8687 ;	genCast
                           8688 ;	AOP_STK for _SceneUpdateActorMovement_b_sloc3_1_0
                           8689 ;	AOP_STK for _SceneUpdateActorMovement_b_sloc1_1_0
   1C9B 2A                 8690 	ld	a,(hl+)
   1C9C 23                 8691 	inc	hl
   1C9D 22                 8692 	ld	(hl+),a
   1C9E 36 00              8693 	ld	(hl),#0x00
                           8694 ;	genPlus
                           8695 ;	AOP_STK for _SceneUpdateActorMovement_b_sloc4_1_0
                           8696 ;	AOP_STK for _SceneUpdateActorMovement_b_sloc1_1_0
                           8697 ;	AOP_STK for _SceneUpdateActorMovement_b_collision_index_1_1
                           8698 ;	Can't optimise plus by inc, falling back to the normal way
   1CA0 F8 00              8699 	lda	hl,0(sp)
   1CA2 5E                 8700 	ld	e,(hl)
   1CA3 23                 8701 	inc	hl
   1CA4 56                 8702 	ld	d,(hl)
   1CA5 F8 04              8703 	lda	hl,4(sp)
   1CA7 2A                 8704 	ld	a,(hl+)
   1CA8 66                 8705 	ld	h,(hl)
   1CA9 6F                 8706 	ld	l,a
   1CAA 19                 8707 	add	hl,de
   1CAB 7D                 8708 	ld	a,l
   1CAC 54                 8709 	ld	d,h
   1CAD F8 08              8710 	lda	hl,8(sp)
   1CAF 22                 8711 	ld	(hl+),a
   1CB0 72                 8712 	ld	(hl),d
                           8713 ;	genAssign
                           8714 ;	AOP_STK for _SceneUpdateActorMovement_b_collision_index_1_1
                           8715 ;	(registers are the same)
                           8716 ;	src/Scene_b.c 688
                           8717 ;	genRightShift
                           8718 ;	AOP_STK for _SceneUpdateActorMovement_b_collision_index_1_1
                           8719 ;	AOP_STK for _SceneUpdateActorMovement_b_sloc4_1_0
   1CB1 2B                 8720 	dec	hl
   1CB2 7E                 8721 	ld	a,(hl)
   1CB3 F8 00              8722 	lda	hl,0(sp)
   1CB5 77                 8723 	ld	(hl),a
   1CB6 F8 09              8724 	lda	hl,9(sp)
   1CB8 7E                 8725 	ld	a,(hl)
   1CB9 F8 01              8726 	lda	hl,1(sp)
   1CBB 77                 8727 	ld	(hl),a
   1CBC CB 3E              8728 	srl	(hl)
   1CBE 2B                 8729 	dec	hl
   1CBF CB 1E              8730 	rr	(hl)
   1CC1 23                 8731 	inc	hl
   1CC2 CB 3E              8732 	srl	(hl)
   1CC4 2B                 8733 	dec	hl
   1CC5 CB 1E              8734 	rr	(hl)
   1CC7 23                 8735 	inc	hl
   1CC8 CB 3E              8736 	srl	(hl)
   1CCA 2B                 8737 	dec	hl
   1CCB CB 1E              8738 	rr	(hl)
                           8739 ;	genPlus
                           8740 ;	AOP_STK for _SceneUpdateActorMovement_b_sloc4_1_0
                           8741 ;	AOP_STK for _SceneUpdateActorMovement_b_sloc1_1_0
                           8742 ;	Can't optimise plus by inc, falling back to the normal way
   1CCD 11 16 00           8743 	ld	de,#_scene_col_tiles
   1CD0 2A                 8744 	ld	a,(hl+)
   1CD1 66                 8745 	ld	h,(hl)
   1CD2 6F                 8746 	ld	l,a
   1CD3 19                 8747 	add	hl,de
   1CD4 7D                 8748 	ld	a,l
   1CD5 54                 8749 	ld	d,h
   1CD6 F8 04              8750 	lda	hl,4(sp)
                           8751 ;	genPointerGet
                           8752 ;	AOP_STK for _SceneUpdateActorMovement_b_sloc1_1_0
                           8753 ;	AOP_STK for _SceneUpdateActorMovement_b_sloc4_1_0
   1CD8 22                 8754 	ld	(hl+),a
   1CD9 72                 8755 	ld	(hl),d
   1CDA 5F                 8756 	ld	e,a
   1CDB 1A                 8757 	ld	a,(de)
   1CDC F8 00              8758 	lda	hl,0(sp)
   1CDE 77                 8759 	ld	(hl),a
                           8760 ;	genAnd
                           8761 ;	AOP_STK for _SceneUpdateActorMovement_b_collision_index_1_1
                           8762 ;	AOP_STK for _SceneUpdateActorMovement_b_sloc1_1_0
   1CDF F8 08              8763 	lda	hl,8(sp)
   1CE1 7E                 8764 	ld	a,(hl)
   1CE2 E6 07              8765 	and	a,#0x07
   1CE4 F8 04              8766 	lda	hl,4(sp)
   1CE6 22                 8767 	ld	(hl+),a
   1CE7 36 00              8768 	ld	(hl),#0x00
                           8769 ;	genLeftShift
                           8770 ;	AOP_STK for _SceneUpdateActorMovement_b_sloc1_1_0
   1CE9 2B                 8771 	dec	hl
   1CEA 7E                 8772 	ld	a,(hl)
   1CEB 3C                 8773 	inc	a
                           8774 ;	AOP_STK for _SceneUpdateActorMovement_b_sloc3_1_0
   1CEC 2B                 8775 	dec	hl
   1CED 2B                 8776 	dec	hl
   1CEE 36 01              8777 	ld	(hl),#0x01
   1CF0 18 04              8778 	jr	00169$
   1CF2                    8779 00168$:
   1CF2 F8 02              8780 	lda	hl,2(sp)
   1CF4 CB 26              8781 	sla	(hl)
   1CF6                    8782 00169$:
   1CF6 3D                 8783 	dec	a
   1CF7 20 F9              8784 	jr	nz,00168$
                           8785 ;	genCast
                           8786 ;	AOP_STK for _SceneUpdateActorMovement_b_sloc4_1_0
                           8787 ;	AOP_STK for _SceneUpdateActorMovement_b_sloc1_1_0
   1CF9 F8 00              8788 	lda	hl,0(sp)
   1CFB 7E                 8789 	ld	a,(hl)
   1CFC F8 04              8790 	lda	hl,4(sp)
   1CFE 22                 8791 	ld	(hl+),a
   1CFF 36 00              8792 	ld	(hl),#0x00
                           8793 ;	genCast
                           8794 ;	AOP_STK for _SceneUpdateActorMovement_b_sloc3_1_0
                           8795 ;	AOP_STK for _SceneUpdateActorMovement_b_sloc4_1_0
   1D01 F8 02              8796 	lda	hl,2(sp)
   1D03 7E                 8797 	ld	a,(hl)
   1D04 2B                 8798 	dec	hl
   1D05 2B                 8799 	dec	hl
   1D06 22                 8800 	ld	(hl+),a
   1D07 36 00              8801 	ld	(hl),#0x00
                           8802 ;	genAnd
                           8803 ;	AOP_STK for _SceneUpdateActorMovement_b_sloc1_1_0
                           8804 ;	AOP_STK for _SceneUpdateActorMovement_b_sloc4_1_0
                           8805 ;	AOP_STK for _SceneUpdateActorMovement_b_sloc0_1_0
   1D09 F8 04              8806 	lda	hl,4(sp)
   1D0B 7E                 8807 	ld	a,(hl)
   1D0C F8 00              8808 	lda	hl,0(sp)
   1D0E A6                 8809 	and	a,(hl)
   1D0F F8 06              8810 	lda	hl,6(sp)
   1D11 32                 8811 	ld      (hl-),a
   1D12 7E                 8812 	ld	a,(hl)
   1D13 F8 01              8813 	lda	hl,1(sp)
   1D15 A6                 8814 	and	a,(hl)
   1D16 F8 07              8815 	lda	hl,7(sp)
                           8816 ;	genIfx
                           8817 ;	AOP_STK for _SceneUpdateActorMovement_b_sloc0_1_0
   1D18 32                 8818 	ld      (hl-),a
   1D19 2A                 8819 	ld	a,(hl+)
   1D1A B6                 8820 	or	a,(hl)
   1D1B CA 27 1D           8821 	jp	z,00122$
                           8822 ;	src/Scene_b.c 690
                           8823 ;	genPlus
                           8824 ;	genPlusIncr
   1D1E 21 0C 00           8825 	ld	hl,#0x000C
   1D21 09                 8826 	add	hl,bc
                           8827 ;	genAssign (pointer)
   1D22 36 00              8828 	ld	(hl),#0x00
                           8829 ;	src/Scene_b.c 691
                           8830 ;	genRet
   1D24 C3 BC 1D           8831 	jp	00127$
                           8832 ;	genLabel
   1D27                    8833 00122$:
                           8834 ;	src/Scene_b.c 695
                           8835 ;	genPlus
                           8836 ;	AOP_STK for _SceneUpdateActorMovement_b_collision_index_1_1
                           8837 ;	genPlusIncr
   1D27 F8 08              8838 	lda	hl,8(sp)
   1D29 34                 8839 	inc	(hl)
   1D2A 20 02              8840 	jr	nz,00170$
   1D2C 23                 8841 	inc	hl
   1D2D 34                 8842 	inc	(hl)
   1D2E                    8843 00170$:
                           8844 ;	src/Scene_b.c 696
                           8845 ;	genRightShift
                           8846 ;	AOP_STK for _SceneUpdateActorMovement_b_collision_index_1_1
                           8847 ;	AOP_STK for _SceneUpdateActorMovement_b_sloc4_1_0
   1D2E F8 08              8848 	lda	hl,8(sp)
   1D30 7E                 8849 	ld	a,(hl)
   1D31 F8 00              8850 	lda	hl,0(sp)
   1D33 77                 8851 	ld	(hl),a
   1D34 F8 09              8852 	lda	hl,9(sp)
   1D36 7E                 8853 	ld	a,(hl)
   1D37 F8 01              8854 	lda	hl,1(sp)
   1D39 77                 8855 	ld	(hl),a
   1D3A CB 3E              8856 	srl	(hl)
   1D3C 2B                 8857 	dec	hl
   1D3D CB 1E              8858 	rr	(hl)
   1D3F 23                 8859 	inc	hl
   1D40 CB 3E              8860 	srl	(hl)
   1D42 2B                 8861 	dec	hl
   1D43 CB 1E              8862 	rr	(hl)
   1D45 23                 8863 	inc	hl
   1D46 CB 3E              8864 	srl	(hl)
   1D48 2B                 8865 	dec	hl
   1D49 CB 1E              8866 	rr	(hl)
                           8867 ;	genPlus
                           8868 ;	AOP_STK for _SceneUpdateActorMovement_b_sloc4_1_0
                           8869 ;	AOP_STK for _SceneUpdateActorMovement_b_sloc1_1_0
                           8870 ;	Can't optimise plus by inc, falling back to the normal way
   1D4B 11 16 00           8871 	ld	de,#_scene_col_tiles
   1D4E 2A                 8872 	ld	a,(hl+)
   1D4F 66                 8873 	ld	h,(hl)
   1D50 6F                 8874 	ld	l,a
   1D51 19                 8875 	add	hl,de
   1D52 7D                 8876 	ld	a,l
   1D53 54                 8877 	ld	d,h
   1D54 F8 04              8878 	lda	hl,4(sp)
                           8879 ;	genPointerGet
                           8880 ;	AOP_STK for _SceneUpdateActorMovement_b_sloc1_1_0
                           8881 ;	AOP_STK for _SceneUpdateActorMovement_b_sloc4_1_0
   1D56 22                 8882 	ld	(hl+),a
   1D57 72                 8883 	ld	(hl),d
   1D58 5F                 8884 	ld	e,a
   1D59 1A                 8885 	ld	a,(de)
   1D5A F8 00              8886 	lda	hl,0(sp)
   1D5C 77                 8887 	ld	(hl),a
                           8888 ;	genAnd
                           8889 ;	AOP_STK for _SceneUpdateActorMovement_b_collision_index_1_1
                           8890 ;	AOP_STK for _SceneUpdateActorMovement_b_sloc1_1_0
   1D5D F8 08              8891 	lda	hl,8(sp)
   1D5F 7E                 8892 	ld	a,(hl)
   1D60 E6 07              8893 	and	a,#0x07
   1D62 F8 04              8894 	lda	hl,4(sp)
   1D64 22                 8895 	ld	(hl+),a
   1D65 36 00              8896 	ld	(hl),#0x00
                           8897 ;	genLeftShift
                           8898 ;	AOP_STK for _SceneUpdateActorMovement_b_sloc1_1_0
   1D67 2B                 8899 	dec	hl
   1D68 7E                 8900 	ld	a,(hl)
   1D69 3C                 8901 	inc	a
                           8902 ;	AOP_STK for _SceneUpdateActorMovement_b_sloc3_1_0
   1D6A 2B                 8903 	dec	hl
   1D6B 2B                 8904 	dec	hl
   1D6C 36 01              8905 	ld	(hl),#0x01
   1D6E 18 04              8906 	jr	00174$
   1D70                    8907 00173$:
   1D70 F8 02              8908 	lda	hl,2(sp)
   1D72 CB 26              8909 	sla	(hl)
   1D74                    8910 00174$:
   1D74 3D                 8911 	dec	a
   1D75 20 F9              8912 	jr	nz,00173$
                           8913 ;	genCast
                           8914 ;	AOP_STK for _SceneUpdateActorMovement_b_sloc4_1_0
                           8915 ;	AOP_STK for _SceneUpdateActorMovement_b_sloc1_1_0
   1D77 F8 00              8916 	lda	hl,0(sp)
   1D79 7E                 8917 	ld	a,(hl)
   1D7A F8 04              8918 	lda	hl,4(sp)
   1D7C 22                 8919 	ld	(hl+),a
   1D7D 36 00              8920 	ld	(hl),#0x00
                           8921 ;	genCast
                           8922 ;	AOP_STK for _SceneUpdateActorMovement_b_sloc3_1_0
                           8923 ;	AOP_STK for _SceneUpdateActorMovement_b_sloc4_1_0
   1D7F F8 02              8924 	lda	hl,2(sp)
   1D81 7E                 8925 	ld	a,(hl)
   1D82 2B                 8926 	dec	hl
   1D83 2B                 8927 	dec	hl
   1D84 22                 8928 	ld	(hl+),a
   1D85 36 00              8929 	ld	(hl),#0x00
                           8930 ;	genAnd
                           8931 ;	AOP_STK for _SceneUpdateActorMovement_b_sloc1_1_0
                           8932 ;	AOP_STK for _SceneUpdateActorMovement_b_sloc4_1_0
                           8933 ;	AOP_STK for _SceneUpdateActorMovement_b_sloc0_1_0
   1D87 F8 04              8934 	lda	hl,4(sp)
   1D89 7E                 8935 	ld	a,(hl)
   1D8A F8 00              8936 	lda	hl,0(sp)
   1D8C A6                 8937 	and	a,(hl)
   1D8D F8 06              8938 	lda	hl,6(sp)
   1D8F 32                 8939 	ld      (hl-),a
   1D90 7E                 8940 	ld	a,(hl)
   1D91 F8 01              8941 	lda	hl,1(sp)
   1D93 A6                 8942 	and	a,(hl)
   1D94 F8 07              8943 	lda	hl,7(sp)
                           8944 ;	genIfx
                           8945 ;	AOP_STK for _SceneUpdateActorMovement_b_sloc0_1_0
   1D96 32                 8946 	ld      (hl-),a
   1D97 2A                 8947 	ld	a,(hl+)
   1D98 B6                 8948 	or	a,(hl)
   1D99 CA A5 1D           8949 	jp	z,00124$
                           8950 ;	src/Scene_b.c 698
                           8951 ;	genPlus
                           8952 ;	genPlusIncr
   1D9C 21 0C 00           8953 	ld	hl,#0x000C
   1D9F 09                 8954 	add	hl,bc
                           8955 ;	genAssign (pointer)
   1DA0 36 00              8956 	ld	(hl),#0x00
                           8957 ;	src/Scene_b.c 699
                           8958 ;	genRet
   1DA2 C3 BC 1D           8959 	jp	00127$
                           8960 ;	genLabel
   1DA5                    8961 00124$:
                           8962 ;	src/Scene_b.c 702
                           8963 ;	genCmpEq
                           8964 ;	AOP_STK for 
                           8965 ; genCmpEq: left 1, right 1, result 0
   1DA5 F8 0F              8966 	lda	hl,15(sp)
   1DA7 7E                 8967 	ld	a,(hl)
   1DA8 B7                 8968 	or	a,a
   1DA9 C2 B6 1D           8969 	jp	nz,00126$
   1DAC 18 03              8970 	jr	00176$
   1DAE                    8971 00175$:
   1DAE C3 B6 1D           8972 	jp	00126$
   1DB1                    8973 00176$:
                           8974 ;	src/Scene_b.c 704
                           8975 ;	genAssign
                           8976 ;	AOP_HL for _check_triggers
   1DB1 21 0E 00           8977 	ld	hl,#_check_triggers
   1DB4 36 01              8978 	ld	(hl),#0x01
                           8979 ;	genLabel
   1DB6                    8980 00126$:
                           8981 ;	src/Scene_b.c 706
                           8982 ;	genPlus
                           8983 ;	genPlusIncr
   1DB6 21 0C 00           8984 	ld	hl,#0x000C
   1DB9 09                 8985 	add	hl,bc
                           8986 ;	genAssign (pointer)
   1DBA 36 01              8987 	ld	(hl),#0x01
                           8988 ;	genLabel
   1DBC                    8989 00127$:
                           8990 ;	genEndFunction
   1DBC E8 0D              8991 	lda	sp,13(sp)
   1DBE C9                 8992 	ret
   1DBF                    8993 ___SceneUpdateActorMovement_b_end:
                           8994 ;	src/Scene_b.c 709
                           8995 ;	genLabel
                           8996 ;	genFunction
                           8997 ;	---------------------------------
                           8998 ; Function SceneUpdateTimer_b
                           8999 ; ---------------------------------
   1DBF                    9000 ___SceneUpdateTimer_b_start:
   1DBF                    9001 _SceneUpdateTimer_b:
                           9002 	
                           9003 ;	src/Scene_b.c 712
                           9004 ;	genIfx
                           9005 ;	AOP_HL for _scene_loaded
   1DBF AF                 9006 	xor	a,a
   1DC0 21 0F 00           9007 	ld	hl,#_scene_loaded
   1DC3 B6                 9008 	or	a,(hl)
   1DC4 CA CF 1D           9009 	jp	z,00101$
                           9010 ;	genIfx
                           9011 ;	AOP_HL for _scene_input_ready
   1DC7 AF                 9012 	xor	a,a
   1DC8 21 10 00           9013 	ld	hl,#_scene_input_ready
   1DCB B6                 9014 	or	a,(hl)
   1DCC C2 D2 1D           9015 	jp	nz,00102$
                           9016 ;	genLabel
   1DCF                    9017 00101$:
                           9018 ;	src/Scene_b.c 714
                           9019 ;	genRet
   1DCF C3 6A 1E           9020 	jp	00121$
                           9021 ;	genLabel
   1DD2                    9022 00102$:
                           9023 ;	src/Scene_b.c 718
                           9024 ;	genCmpEq
                           9025 ;	AOP_HL for _script_ptr
                           9026 ; genCmpEq: left 2, right 2, result 0
   1DD2 21 00 00           9027 	ld	hl,#_script_ptr
   1DD5 2A                 9028 	ld	a,(hl+)
   1DD6 B6                 9029 	or	a,(hl)
   1DD7 C2 F4 1D           9030 	jp	nz,00104$
   1DDA 18 03              9031 	jr	00133$
   1DDC                    9032 00132$:
   1DDC C3 F4 1D           9033 	jp	00104$
   1DDF                    9034 00133$:
                           9035 ;	genCmpEq
                           9036 ;	AOP_HL for _emote_timer
                           9037 ; genCmpEq: left 1, right 1, result 0
   1DDF 21 14 00           9038 	ld	hl,#_emote_timer
   1DE2 7E                 9039 	ld	a,(hl)
   1DE3 B7                 9040 	or	a,a
   1DE4 C2 F4 1D           9041 	jp	nz,00104$
   1DE7 18 03              9042 	jr	00135$
   1DE9                    9043 00134$:
   1DE9 C3 F4 1D           9044 	jp	00104$
   1DEC                    9045 00135$:
                           9046 ;	genIfx
                           9047 ;	AOP_HL for _fade_running
   1DEC AF                 9048 	xor	a,a
   1DED 21 00 00           9049 	ld	hl,#_fade_running
   1DF0 B6                 9050 	or	a,(hl)
   1DF1 CA F7 1D           9051 	jp	z,00105$
                           9052 ;	genLabel
   1DF4                    9053 00104$:
                           9054 ;	src/Scene_b.c 720
                           9055 ;	genRet
   1DF4 C3 6A 1E           9056 	jp	00121$
                           9057 ;	genLabel
   1DF7                    9058 00105$:
                           9059 ;	src/Scene_b.c 724
                           9060 ;	genCall
                           9061 ; _saveRegsForCall: sendSetSize: 0 deInUse: 0 bcInUse: 0 deSending: 0
   1DF7 CD 00 00           9062 	call	_UIIsClosed
   1DFA 4B                 9063 	ld	c,e
                           9064 ;	genIfx
   1DFB AF                 9065 	xor	a,a
   1DFC B1                 9066 	or	a,c
                           9067 ;	src/Scene_b.c 726
                           9068 ;	genRet
                           9069 ;	genLabel
   1DFD CA 6A 1E           9070 	jp	z,00121$
   1E00                    9071 00109$:
                           9072 ;	src/Scene_b.c 730
                           9073 ;	genCmpEq
                           9074 ;	AOP_HL for _timer_script_duration
                           9075 ; genCmpEq: left 1, right 1, result 0
   1E00 21 00 00           9076 	ld	hl,#_timer_script_duration
   1E03 7E                 9077 	ld	a,(hl)
   1E04 B7                 9078 	or	a,a
   1E05 CA 6A 1E           9079 	jp	z,00121$
   1E08                    9080 00136$:
                           9081 ;	src/Scene_b.c 732
                           9082 ;	genCmpEq
                           9083 ;	AOP_HL for _timer_script_time
                           9084 ; genCmpEq: left 1, right 1, result 0
   1E08 21 00 00           9085 	ld	hl,#_timer_script_time
   1E0B 7E                 9086 	ld	a,(hl)
   1E0C B7                 9087 	or	a,a
   1E0D C2 56 1E           9088 	jp	nz,00117$
   1E10 18 03              9089 	jr	00138$
   1E12                    9090 00137$:
   1E12 C3 56 1E           9091 	jp	00117$
   1E15                    9092 00138$:
                           9093 ;	src/Scene_b.c 735
                           9094 ;	genPlus
                           9095 ;	genPlusIncr
   1E15 01 01 00           9096 	ld	bc,#_actors + 1
                           9097 ;	genPointerGet
   1E18 0A                 9098 	ld	a,(bc)
                           9099 ;	genAnd
   1E19 4F                 9100 	ld	c,a
   1E1A E6 07              9101 	and	a,#0x07
                           9102 ;	genCmpEq
                           9103 ; genCmpEq: left 1, right 1, result 0
   1E1C 4F                 9104 	ld	c,a
   1E1D B7                 9105 	or	a,a
   1E1E C2 38 1E           9106 	jp	nz,00110$
   1E21 18 03              9107 	jr	00140$
   1E23                    9108 00139$:
   1E23 C3 38 1E           9109 	jp	00110$
   1E26                    9110 00140$:
                           9111 ;	genPlus
                           9112 ;	genPlusIncr
   1E26 01 02 00           9113 	ld	bc,#_actors + 2
                           9114 ;	genPointerGet
   1E29 0A                 9115 	ld	a,(bc)
                           9116 ;	genAnd
   1E2A 4F                 9117 	ld	c,a
   1E2B E6 07              9118 	and	a,#0x07
                           9119 ;	genCmpEq
                           9120 ; genCmpEq: left 1, right 1, result 0
   1E2D 47                 9121 	ld	b,a
   1E2E B7                 9122 	or	a,a
   1E2F CA 3B 1E           9123 	jp	z,00111$
   1E32                    9124 00141$:
                           9125 ;	genCmpEq
                           9126 ; genCmpEq: left 1, right 1, result 0
   1E32 79                 9127 	ld	a,c
   1E33 FE FE              9128 	cp	a,#0xFE
   1E35 CA 3B 1E           9129 	jp	z,00111$
   1E38                    9130 00142$:
                           9131 ;	genLabel
   1E38                    9132 00110$:
                           9133 ;	src/Scene_b.c 737
                           9134 ;	genRet
   1E38 C3 6A 1E           9135 	jp	00121$
                           9136 ;	genLabel
   1E3B                    9137 00111$:
                           9138 ;	src/Scene_b.c 740
                           9139 ;	genAnd
                           9140 ;	AOP_HL for _last_joy
   1E3B 21 A3 00           9141 	ld	hl,#_last_joy
   1E3E 7E                 9142 	ld	a,(hl)
   1E3F E6 F0              9143 	and	a,#0xF0
   1E41 77                 9144 	ld	(hl),a
                           9145 ;	src/Scene_b.c 741
                           9146 ;	genIpush
                           9147 ; _saveRegsForCall: sendSetSize: 0 deInUse: 0 bcInUse: 0 deSending: 0
   1E42 21 00 00           9148 	ld	hl,#_timer_script_ptr
   1E45 E5                 9149 	push	hl
                           9150 ;	genCall
   1E46 CD 00 00           9151 	call	_ScriptStart
   1E49 E8 02              9152 	lda	sp,2(sp)
                           9153 ;	src/Scene_b.c 744
                           9154 ;	genAssign
                           9155 ;	AOP_HL for _timer_script_duration
                           9156 ;	AOP_HL for _timer_script_time
   1E4B 21 00 00           9157 	ld	hl,#_timer_script_duration
   1E4E 7E                 9158 	ld	a,(hl)
   1E4F 21 00 00           9159 	ld	hl,#_timer_script_time
   1E52 77                 9160 	ld	(hl),a
                           9161 ;	genGoto
   1E53 C3 6A 1E           9162 	jp	00121$
                           9163 ;	genLabel
   1E56                    9164 00117$:
                           9165 ;	src/Scene_b.c 749
                           9166 ;	genAnd
                           9167 ;	AOP_HL for _time
   1E56 21 00 00           9168 	ld	hl,#_time
   1E59 7E                 9169 	ld	a,(hl)
   1E5A E6 0F              9170 	and	a,#0x0F
                           9171 ;	genCmpEq
                           9172 ; genCmpEq: left 1, right 1, result 0
   1E5C 4F                 9173 	ld	c,a
   1E5D B7                 9174 	or	a,a
   1E5E C2 6A 1E           9175 	jp	nz,00121$
   1E61 18 03              9176 	jr	00144$
   1E63                    9177 00143$:
   1E63 C3 6A 1E           9178 	jp	00121$
   1E66                    9179 00144$:
                           9180 ;	src/Scene_b.c 751
                           9181 ;	genMinus
                           9182 ;	AOP_HL for _timer_script_time
   1E66 21 00 00           9183 	ld	hl,#_timer_script_time
   1E69 35                 9184 	dec	(hl)
                           9185 ;	genLabel
   1E6A                    9186 00121$:
                           9187 ;	genEndFunction
                           9188 	
   1E6A C9                 9189 	ret
   1E6B                    9190 ___SceneUpdateTimer_b_end:
                           9191 ;	src/Scene_b.c 757
                           9192 ;	genLabel
                           9193 ;	genFunction
                           9194 ;	---------------------------------
                           9195 ; Function SceneHandleTriggers_b
                           9196 ; ---------------------------------
   1E6B                    9197 ___SceneHandleTriggers_b_start:
   1E6B                    9198 _SceneHandleTriggers_b:
   1E6B E8 FD              9199 	lda	sp,-3(sp)
                           9200 ;	src/Scene_b.c 761
                           9201 ;	genIfx
                           9202 ;	AOP_HL for _check_triggers
   1E6D AF                 9203 	xor	a,a
   1E6E 21 0E 00           9204 	ld	hl,#_check_triggers
   1E71 B6                 9205 	or	a,(hl)
   1E72 CA 1D 1F           9206 	jp	z,00109$
                           9207 ;	genCmpEq
                           9208 ;	AOP_HL for _script_ptr
                           9209 ; genCmpEq: left 2, right 2, result 0
   1E75 21 00 00           9210 	ld	hl,#_script_ptr
   1E78 2A                 9211 	ld	a,(hl+)
   1E79 B6                 9212 	or	a,(hl)
   1E7A C2 1D 1F           9213 	jp	nz,00109$
   1E7D 18 03              9214 	jr	00117$
   1E7F                    9215 00116$:
   1E7F C3 1D 1F           9216 	jp	00109$
   1E82                    9217 00117$:
                           9218 ;	genPlus
                           9219 ;	genPlusIncr
   1E82 01 01 00           9220 	ld	bc,#_actors + 1
                           9221 ;	genPointerGet
   1E85 0A                 9222 	ld	a,(bc)
                           9223 ;	genAnd
   1E86 4F                 9224 	ld	c,a
   1E87 E6 07              9225 	and	a,#0x07
                           9226 ;	genCmpEq
                           9227 ; genCmpEq: left 1, right 1, result 0
   1E89 47                 9228 	ld	b,a
   1E8A B7                 9229 	or	a,a
   1E8B C2 1D 1F           9230 	jp	nz,00109$
   1E8E 18 03              9231 	jr	00119$
   1E90                    9232 00118$:
   1E90 C3 1D 1F           9233 	jp	00109$
   1E93                    9234 00119$:
                           9235 ;	genPlus
                           9236 ;	AOP_STK for _SceneHandleTriggers_b_sloc0_1_0
                           9237 ;	genPlusIncr
                           9238 ;	Can't optimise plus by inc, falling back to the normal way
   1E93 11 00 00           9239 	ld	de,#_actors
   1E96 21 02 00           9240 	ld	hl,#0x0002
   1E99 19                 9241 	add	hl,de
   1E9A 7D                 9242 	ld	a,l
   1E9B 54                 9243 	ld	d,h
   1E9C F8 00              9244 	lda	hl,0(sp)
                           9245 ;	genPointerGet
                           9246 ;	AOP_STK for _SceneHandleTriggers_b_sloc0_1_0
   1E9E 22                 9247 	ld	(hl+),a
   1E9F 72                 9248 	ld	(hl),d
   1EA0 5F                 9249 	ld	e,a
   1EA1 1A                 9250 	ld	a,(de)
                           9251 ;	genAnd
                           9252 ;	AOP_STK for _SceneHandleTriggers_b_sloc0_1_0
   1EA2 47                 9253 	ld	b,a
   1EA3 E6 07              9254 	and	a,#0x07
   1EA5 2B                 9255 	dec	hl
                           9256 ;	genCmpEq
                           9257 ;	AOP_STK for _SceneHandleTriggers_b_sloc0_1_0
                           9258 ; genCmpEq: left 1, right 1, result 0
   1EA6 77                 9259 	ld      (hl),a
                           9260 ; Removed redundent load
   1EA7 B7                 9261 	or	a,a
   1EA8 CA B6 1E           9262 	jp	z,00103$
   1EAB                    9263 00120$:
                           9264 ;	genCmpEq
                           9265 ; genCmpEq: left 1, right 1, result 0
   1EAB 78                 9266 	ld	a,b
   1EAC FE FE              9267 	cp	a,#0xFE
   1EAE C2 1D 1F           9268 	jp	nz,00109$
   1EB1 18 03              9269 	jr	00122$
   1EB3                    9270 00121$:
   1EB3 C3 1D 1F           9271 	jp	00109$
   1EB6                    9272 00122$:
                           9273 ;	genLabel
   1EB6                    9274 00103$:
                           9275 ;	src/Scene_b.c 763
                           9276 ;	genAssign
                           9277 ;	AOP_HL for _check_triggers
   1EB6 21 0E 00           9278 	ld	hl,#_check_triggers
   1EB9 36 00              9279 	ld	(hl),#0x00
                           9280 ;	src/Scene_b.c 766
                           9281 ;	genCmpEq
                           9282 ;	AOP_STK for _SceneHandleTriggers_b_trigger_tile_offset_1_1
                           9283 ; genCmpEq: left 1, right 1, result 1
   1EBB 78                 9284 	ld	a,b
   1EBC FE FE              9285 	cp	a,#0xFE
   1EBE C2 C5 1E           9286 	jp	nz,00123$
   1EC1 3E 01              9287 	ld	a,#0x01
   1EC3 18 01              9288 	jr	00124$
   1EC5                    9289 00123$:
   1EC5 AF                 9290 	xor	a,a
   1EC6                    9291 00124$:
   1EC6 F8 02              9292 	lda	hl,2(sp)
   1EC8 77                 9293 	ld	(hl),a
                           9294 ;	src/Scene_b.c 770
                           9295 ;	genRightShift
                           9296 ; Removed redundent load
   1EC9 CB 38              9297 	srl	b
   1ECB CB 38              9298 	srl	b
   1ECD CB 38              9299 	srl	b
                           9300 ;	genPlus
                           9301 ;	AOP_STK for _SceneHandleTriggers_b_trigger_tile_offset_1_1
                           9302 ;	Can't optimise plus by inc, falling back to the normal way
   1ECF 7E                 9303 	ld	a,(hl)
   1ED0 80                 9304 	add	a,b
   1ED1 47                 9305 	ld	b,a
                           9306 ;	src/Scene_b.c 769
                           9307 ;	genRightShift
                           9308 ; Removed redundent load
   1ED2 CB 39              9309 	srl	c
   1ED4 CB 39              9310 	srl	c
   1ED6 CB 39              9311 	srl	c
                           9312 ;	genIpush
                           9313 ; _saveRegsForCall: sendSetSize: 0 deInUse: 0 bcInUse: 0 deSending: 0
   1ED8 78                 9314 	ld	a,b
   1ED9 F5                 9315 	push	af
   1EDA 33                 9316 	inc	sp
                           9317 ;	genIpush
   1EDB 79                 9318 	ld	a,c
   1EDC F5                 9319 	push	af
   1EDD 33                 9320 	inc	sp
                           9321 ;	genCall
   1EDE CD 3A 28           9322 	call	_SceneTriggerAt_b
   1EE1 4B                 9323 	ld	c,e
   1EE2 E8 02              9324 	lda	sp,2(sp)
                           9325 ;	genAssign
                           9326 ;	(registers are the same)
                           9327 ;	src/Scene_b.c 772
                           9328 ;	genCmpEq
                           9329 ;	AOP_HL for _scene_num_triggers
                           9330 ; genCmpEq: left 1, right 1, result 0
   1EE4 21 12 00           9331 	ld	hl,#_scene_num_triggers
   1EE7 7E                 9332 	ld	a,(hl)
   1EE8 B9                 9333 	cp	c
   1EE9 20 03              9334 	jr	nz,00125$
   1EEB C3 1D 1F           9335 	jp	00109$
   1EEE                    9336 00125$:
                           9337 ;	src/Scene_b.c 774
                           9338 ;	genPlus
                           9339 ;	genPlusIncr
   1EEE 21 0C 00           9340 	ld	hl,#_actors + 12
                           9341 ;	genAssign (pointer)
   1EF1 36 00              9342 	ld	(hl),#0x00
                           9343 ;	src/Scene_b.c 775
                           9344 ;	genAnd
                           9345 ;	AOP_HL for _last_joy
   1EF3 21 A3 00           9346 	ld	hl,#_last_joy
   1EF6 7E                 9347 	ld	a,(hl)
   1EF7 E6 F0              9348 	and	a,#0xF0
   1EF9 77                 9349 	ld	(hl),a
                           9350 ;	src/Scene_b.c 776
                           9351 ;	genAssign
                           9352 ;	AOP_HL for _script_actor
   1EFA 21 00 00           9353 	ld	hl,#_script_actor
   1EFD 36 00              9354 	ld	(hl),#0x00
                           9355 ;	src/Scene_b.c 777
                           9356 ;	genMult
   1EFF 59                 9357 	ld	e,c
   1F00 16 00              9358 	ld	d,#0x00
   1F02 6B                 9359 	ld	l,e
   1F03 62                 9360 	ld	h,d
   1F04 29                 9361 	add	hl,hl
   1F05 29                 9362 	add	hl,hl
   1F06 29                 9363 	add	hl,hl
   1F07 19                 9364 	add	hl,de
   1F08 4D                 9365 	ld	c,l
   1F09 44                 9366 	ld	b,h
                           9367 ;	genPlus
                           9368 ;	Can't optimise plus by inc, falling back to the normal way
   1F0A 21 00 00           9369 	ld	hl,#_triggers
   1F0D 09                 9370 	add	hl,bc
   1F0E 4D                 9371 	ld	c,l
   1F0F 44                 9372 	ld	b,h
                           9373 ;	genPlus
                           9374 ;	genPlusIncr
   1F10 21 06 00           9375 	ld	hl,#0x0006
   1F13 09                 9376 	add	hl,bc
                           9377 ;	genIpush
                           9378 ; _saveRegsForCall: sendSetSize: 0 deInUse: 0 bcInUse: 0 deSending: 0
   1F14 E5                 9379 	push	hl
                           9380 ;	genCall
   1F15 CD 00 00           9381 	call	_ScriptStart
   1F18 E8 02              9382 	lda	sp,2(sp)
                           9383 ;	src/Scene_b.c 778
                           9384 ;	genCall
                           9385 ; _saveRegsForCall: sendSetSize: 0 deInUse: 0 bcInUse: 0 deSending: 0
   1F1A CD 00 00           9386 	call	_ScriptRunnerUpdate
                           9387 ;	genLabel
   1F1D                    9388 00109$:
                           9389 ;	genEndFunction
   1F1D E8 03              9390 	lda	sp,3(sp)
   1F1F C9                 9391 	ret
   1F20                    9392 ___SceneHandleTriggers_b_end:
                           9393 ;	src/Scene_b.c 783
                           9394 ;	genLabel
                           9395 ;	genFunction
                           9396 ;	---------------------------------
                           9397 ; Function SceneUpdateCameraShake_b
                           9398 ; ---------------------------------
   1F20                    9399 ___SceneUpdateCameraShake_b_start:
   1F20                    9400 _SceneUpdateCameraShake_b:
                           9401 	
                           9402 ;	src/Scene_b.c 786
                           9403 ;	genCmpEq
                           9404 ;	AOP_HL for _shake_time
                           9405 ; genCmpEq: left 1, right 1, result 0
   1F20 21 00 00           9406 	ld	hl,#_shake_time
   1F23 7E                 9407 	ld	a,(hl)
   1F24 B7                 9408 	or	a,a
   1F25 CA 3B 1F           9409 	jp	z,00105$
   1F28                    9410 00109$:
                           9411 ;	src/Scene_b.c 788
                           9412 ;	genMinus
                           9413 ;	AOP_HL for _shake_time
   1F28 21 00 00           9414 	ld	hl,#_shake_time
   1F2B 35                 9415 	dec	(hl)
                           9416 ;	src/Scene_b.c 789
                           9417 ;	genCmpEq
                           9418 ;	AOP_HL for _shake_time
                           9419 ; genCmpEq: left 1, right 1, result 0
   1F2C 7E                 9420 	ld	a,(hl)
   1F2D B7                 9421 	or	a,a
   1F2E C2 3B 1F           9422 	jp	nz,00105$
   1F31 18 03              9423 	jr	00111$
   1F33                    9424 00110$:
   1F33 C3 3B 1F           9425 	jp	00105$
   1F36                    9426 00111$:
                           9427 ;	src/Scene_b.c 791
                           9428 ;	genAssign
                           9429 ;	AOP_HL for _script_action_complete
   1F36 21 00 00           9430 	ld	hl,#_script_action_complete
   1F39 36 01              9431 	ld	(hl),#0x01
                           9432 ;	genLabel
   1F3B                    9433 00105$:
                           9434 ;	genEndFunction
                           9435 	
   1F3B C9                 9436 	ret
   1F3C                    9437 ___SceneUpdateCameraShake_b_end:
                           9438 ;	src/Scene_b.c 796
                           9439 ;	genLabel
                           9440 ;	genFunction
                           9441 ;	---------------------------------
                           9442 ; Function SceneUpdateEmoteBubble_b
                           9443 ; ---------------------------------
   1F3C                    9444 ___SceneUpdateEmoteBubble_b_start:
   1F3C                    9445 _SceneUpdateEmoteBubble_b:
                           9446 	
                           9447 ;	src/Scene_b.c 799
                           9448 ;	genCmpEq
                           9449 ;	AOP_HL for _emote_timer
                           9450 ; genCmpEq: left 1, right 1, result 0
   1F3C 21 14 00           9451 	ld	hl,#_emote_timer
   1F3F 7E                 9452 	ld	a,(hl)
   1F40 B7                 9453 	or	a,a
   1F41 CA 78 1F           9454 	jp	z,00106$
   1F44                    9455 00110$:
                           9456 ;	src/Scene_b.c 802
                           9457 ;	genCmpEq
                           9458 ;	AOP_HL for _emote_timer
                           9459 ; genCmpEq: left 1, right 1, result 0
   1F44 21 14 00           9460 	ld	hl,#_emote_timer
   1F47 7E                 9461 	ld	a,(hl)
   1F48 FE 3C              9462 	cp	a,#0x3C
   1F4A C2 74 1F           9463 	jp	nz,00102$
   1F4D 18 03              9464 	jr	00112$
   1F4F                    9465 00111$:
   1F4F C3 74 1F           9466 	jp	00102$
   1F52                    9467 00112$:
                           9468 ;	src/Scene_b.c 805
                           9469 ;	genAssign
                           9470 ;	AOP_HL for _emote_timer
   1F52 21 14 00           9471 	ld	hl,#_emote_timer
   1F55 36 00              9472 	ld	(hl),#0x00
                           9473 ;	src/Scene_b.c 808
                           9474 ;	genIpush
                           9475 ; _saveRegsForCall: sendSetSize: 0 deInUse: 0 bcInUse: 0 deSending: 0
   1F57 21 00 00           9476 	ld	hl,#0x0000
   1F5A E5                 9477 	push	hl
                           9478 ;	genIpush
   1F5B 3E 00              9479 	ld	a,#0x00
   1F5D F5                 9480 	push	af
   1F5E 33                 9481 	inc	sp
                           9482 ;	genCall
   1F5F CD 00 00           9483 	call	_move_sprite
   1F62 E8 03              9484 	lda	sp,3(sp)
                           9485 ;	genIpush
                           9486 ; _saveRegsForCall: sendSetSize: 0 deInUse: 0 bcInUse: 0 deSending: 0
   1F64 21 00 00           9487 	ld	hl,#0x0000
   1F67 E5                 9488 	push	hl
                           9489 ;	genIpush
   1F68 3E 01              9490 	ld	a,#0x01
   1F6A F5                 9491 	push	af
   1F6B 33                 9492 	inc	sp
                           9493 ;	genCall
   1F6C CD 00 00           9494 	call	_move_sprite
   1F6F E8 03              9495 	lda	sp,3(sp)
                           9496 ;	genGoto
   1F71 C3 78 1F           9497 	jp	00106$
                           9498 ;	genLabel
   1F74                    9499 00102$:
                           9500 ;	src/Scene_b.c 813
                           9501 ;	genPlus
                           9502 ;	AOP_HL for _emote_timer
                           9503 ;	genPlusIncr
   1F74 21 14 00           9504 	ld	hl,#_emote_timer
   1F77 34                 9505 	inc	(hl)
                           9506 ;	genLabel
   1F78                    9507 00106$:
                           9508 ;	genEndFunction
                           9509 	
   1F78 C9                 9510 	ret
   1F79                    9511 ___SceneUpdateEmoteBubble_b_end:
                           9512 ;	src/Scene_b.c 822
                           9513 ;	genLabel
                           9514 ;	genFunction
                           9515 ;	---------------------------------
                           9516 ; Function SceneHandleInput
                           9517 ; ---------------------------------
   1F79                    9518 ___SceneHandleInput_start:
   1F79                    9519 _SceneHandleInput:
   1F79 E8 F7              9520 	lda	sp,-9(sp)
                           9521 ;	src/Scene_b.c 828
                           9522 ;	genIfx
                           9523 ;	AOP_HL for _scene_loaded
   1F7B AF                 9524 	xor	a,a
   1F7C 21 0F 00           9525 	ld	hl,#_scene_loaded
   1F7F B6                 9526 	or	a,(hl)
   1F80 CA 8B 1F           9527 	jp	z,00103$
                           9528 ;	genIfx
                           9529 ;	AOP_HL for _scene_input_ready
   1F83 AF                 9530 	xor	a,a
   1F84 21 10 00           9531 	ld	hl,#_scene_input_ready
   1F87 B6                 9532 	or	a,(hl)
   1F88 C2 AA 1F           9533 	jp	nz,00104$
                           9534 ;	genLabel
   1F8B                    9535 00103$:
                           9536 ;	src/Scene_b.c 832
                           9537 ;	genIfx
                           9538 ;	AOP_HL for _scene_loaded
   1F8B AF                 9539 	xor	a,a
   1F8C 21 0F 00           9540 	ld	hl,#_scene_loaded
   1F8F B6                 9541 	or	a,(hl)
   1F90 CA A7 1F           9542 	jp	z,00102$
                           9543 ;	src/Scene_b.c 834
                           9544 ;	genAnd
                           9545 ;	AOP_HL for _joy
   1F93 21 00 00           9546 	ld	hl,#_joy
   1F96 7E                 9547 	ld	a,(hl)
   1F97 E6 F0              9548 	and	a,#0xF0
                           9549 ;	genCmpEq
                           9550 ;	AOP_HL for _scene_input_ready
                           9551 ; genCmpEq: left 1, right 1, result 1
   1F99 4F                 9552 	ld	c,a
   1F9A B7                 9553 	or	a,a
   1F9B C2 A2 1F           9554 	jp	nz,00173$
   1F9E 3E 01              9555 	ld	a,#0x01
   1FA0 18 01              9556 	jr	00174$
   1FA2                    9557 00173$:
   1FA2 AF                 9558 	xor	a,a
   1FA3                    9559 00174$:
   1FA3 21 10 00           9560 	ld	hl,#_scene_input_ready
   1FA6 77                 9561 	ld	(hl),a
                           9562 ;	genLabel
   1FA7                    9563 00102$:
                           9564 ;	src/Scene_b.c 836
                           9565 ;	genRet
   1FA7 C3 6D 22           9566 	jp	00149$
                           9567 ;	genLabel
   1FAA                    9568 00104$:
                           9569 ;	src/Scene_b.c 840
                           9570 ;	genCall
                           9571 ; _saveRegsForCall: sendSetSize: 0 deInUse: 0 bcInUse: 0 deSending: 0
   1FAA CD 00 00           9572 	call	_UIOnInteract
                           9573 ;	src/Scene_b.c 843
                           9574 ;	genPlus
                           9575 ;	genPlusIncr
   1FAD 01 01 00           9576 	ld	bc,#_actors + 1
                           9577 ;	genPointerGet
                           9578 ;	AOP_STK for _SceneHandleInput_sloc1_1_0
   1FB0 0A                 9579 	ld	a,(bc)
   1FB1 F8 04              9580 	lda	hl,4(sp)
                           9581 ;	genAnd
                           9582 ;	AOP_STK for _SceneHandleInput_sloc1_1_0
   1FB3 77                 9583 	ld      (hl),a
                           9584 ; Removed redundent load
   1FB4 E6 07              9585 	and	a,#0x07
                           9586 ;	genCmpEq
                           9587 ; genCmpEq: left 1, right 1, result 0
   1FB6 47                 9588 	ld	b,a
   1FB7 B7                 9589 	or	a,a
   1FB8 C2 DE 1F           9590 	jp	nz,00106$
   1FBB 18 03              9591 	jr	00176$
   1FBD                    9592 00175$:
   1FBD C3 DE 1F           9593 	jp	00106$
   1FC0                    9594 00176$:
                           9595 ;	genPlus
                           9596 ;	AOP_STK for _SceneHandleInput_sloc0_1_0
                           9597 ;	genPlusIncr
                           9598 ;	Can't optimise plus by inc, falling back to the normal way
   1FC0 11 00 00           9599 	ld	de,#_actors
   1FC3 21 02 00           9600 	ld	hl,#0x0002
   1FC6 19                 9601 	add	hl,de
   1FC7 7D                 9602 	ld	a,l
   1FC8 54                 9603 	ld	d,h
   1FC9 F8 05              9604 	lda	hl,5(sp)
                           9605 ;	genPointerGet
                           9606 ;	AOP_STK for _SceneHandleInput_sloc0_1_0
   1FCB 22                 9607 	ld	(hl+),a
   1FCC 72                 9608 	ld	(hl),d
   1FCD 5F                 9609 	ld	e,a
   1FCE 1A                 9610 	ld	a,(de)
                           9611 ;	genAnd
                           9612 ;	AOP_STK for _SceneHandleInput_sloc0_1_0
   1FCF 47                 9613 	ld	b,a
   1FD0 E6 07              9614 	and	a,#0x07
   1FD2 2B                 9615 	dec	hl
                           9616 ;	genCmpEq
                           9617 ;	AOP_STK for _SceneHandleInput_sloc0_1_0
                           9618 ; genCmpEq: left 1, right 1, result 0
   1FD3 77                 9619 	ld      (hl),a
                           9620 ; Removed redundent load
   1FD4 B7                 9621 	or	a,a
   1FD5 CA E1 1F           9622 	jp	z,00107$
   1FD8                    9623 00177$:
                           9624 ;	genCmpEq
                           9625 ; genCmpEq: left 1, right 1, result 0
   1FD8 78                 9626 	ld	a,b
   1FD9 FE FE              9627 	cp	a,#0xFE
   1FDB CA E1 1F           9628 	jp	z,00107$
   1FDE                    9629 00178$:
                           9630 ;	genLabel
   1FDE                    9631 00106$:
                           9632 ;	src/Scene_b.c 845
                           9633 ;	genRet
   1FDE C3 6D 22           9634 	jp	00149$
                           9635 ;	genLabel
   1FE1                    9636 00107$:
                           9637 ;	src/Scene_b.c 849
                           9638 ;	genCmpEq
                           9639 ;	AOP_HL for _script_ptr
                           9640 ; genCmpEq: left 2, right 2, result 0
   1FE1 21 00 00           9641 	ld	hl,#_script_ptr
   1FE4 2A                 9642 	ld	a,(hl+)
   1FE5 B6                 9643 	or	a,(hl)
   1FE6 C2 03 20           9644 	jp	nz,00110$
   1FE9 18 03              9645 	jr	00180$
   1FEB                    9646 00179$:
   1FEB C3 03 20           9647 	jp	00110$
   1FEE                    9648 00180$:
                           9649 ;	genCmpEq
                           9650 ;	AOP_HL for _emote_timer
                           9651 ; genCmpEq: left 1, right 1, result 0
   1FEE 21 14 00           9652 	ld	hl,#_emote_timer
   1FF1 7E                 9653 	ld	a,(hl)
   1FF2 B7                 9654 	or	a,a
   1FF3 C2 03 20           9655 	jp	nz,00110$
   1FF6 18 03              9656 	jr	00182$
   1FF8                    9657 00181$:
   1FF8 C3 03 20           9658 	jp	00110$
   1FFB                    9659 00182$:
                           9660 ;	genIfx
                           9661 ;	AOP_HL for _fade_running
   1FFB AF                 9662 	xor	a,a
   1FFC 21 00 00           9663 	ld	hl,#_fade_running
   1FFF B6                 9664 	or	a,(hl)
   2000 CA 0B 20           9665 	jp	z,00111$
                           9666 ;	genLabel
   2003                    9667 00110$:
                           9668 ;	src/Scene_b.c 851
                           9669 ;	genPlus
                           9670 ;	genPlusIncr
   2003 21 0C 00           9671 	ld	hl,#_actors + 12
                           9672 ;	genAssign (pointer)
   2006 36 00              9673 	ld	(hl),#0x00
                           9674 ;	src/Scene_b.c 852
                           9675 ;	genRet
   2008 C3 6D 22           9676 	jp	00149$
                           9677 ;	genLabel
   200B                    9678 00111$:
                           9679 ;	src/Scene_b.c 855
                           9680 ;	genCmpEq
                           9681 ;	AOP_HL for _joy
                           9682 ; genCmpEq: left 1, right 1, result 0
   200B 21 00 00           9683 	ld	hl,#_joy
   200E 7E                 9684 	ld	a,(hl)
   200F B7                 9685 	or	a,a
   2010 CA 81 20           9686 	jp	z,00119$
   2013                    9687 00183$:
                           9688 ;	genCmpEq
                           9689 ;	AOP_HL for _joy
                           9690 ;	AOP_HL for _last_joy
                           9691 ; genCmpEq: left 1, right 1, result 0
   2013 21 A3 00           9692 	ld	hl,#_last_joy
   2016 7E                 9693 	ld	a,(hl)
   2017 21 00 00           9694 	ld	hl,#_joy
   201A BE                 9695 	cp	(hl)
   201B 20 03              9696 	jr	nz,00184$
   201D C3 81 20           9697 	jp	00119$
   2020                    9698 00184$:
                           9699 ;	src/Scene_b.c 858
                           9700 ;	genAssign
                           9701 ;	AOP_HL for _joy
                           9702 ;	AOP_STK for _SceneHandleInput_input_joy_1_1
   2020 21 00 00           9703 	ld	hl,#_joy
   2023 7E                 9704 	ld	a,(hl)
   2024 F8 08              9705 	lda	hl,8(sp)
   2026 77                 9706 	ld	(hl),a
                           9707 ;	src/Scene_b.c 859
                           9708 ;	genAssign
   2027 0E 00              9709 	ld	c,#0x00
                           9710 ;	genLabel
   2029                    9711 00145$:
                           9712 ;	genCmpEq
                           9713 ; genCmpEq: left 1, right 1, result 0
   2029 79                 9714 	ld	a,c
   202A FE 08              9715 	cp	a,#0x08
   202C CA 81 20           9716 	jp	z,00119$
   202F                    9717 00185$:
                           9718 ;	src/Scene_b.c 861
                           9719 ;	genAnd
                           9720 ;	AOP_STK for _SceneHandleInput_input_joy_1_1
   202F F8 08              9721 	lda	hl,8(sp)
   2031 7E                 9722 	ld	a,(hl)
   2032 E6 01              9723 	and	a,#0x01
   2034 20 03              9724 	jr	nz,00186$
   2036 C3 77 20           9725 	jp	00117$
   2039                    9726 00186$:
                           9727 ;	src/Scene_b.c 863
                           9728 ;	genMult
                           9729 ;	AOP_STK for _SceneHandleInput_sloc0_1_0
   2039 59                 9730 	ld	e,c
   203A 16 00              9731 	ld	d,#0x00
   203C 6B                 9732 	ld	l,e
   203D 62                 9733 	ld	h,d
   203E 29                 9734 	add	hl,hl
   203F 19                 9735 	add	hl,de
   2040 7D                 9736 	ld	a,l
   2041 54                 9737 	ld	d,h
   2042 F8 05              9738 	lda	hl,5(sp)
   2044 22                 9739 	ld	(hl+),a
   2045 72                 9740 	ld	(hl),d
                           9741 ;	genPlus
                           9742 ;	AOP_STK for _SceneHandleInput_sloc0_1_0
                           9743 ;	AOP_STK for _SceneHandleInput_sloc2_1_0
                           9744 ;	Can't optimise plus by inc, falling back to the normal way
   2046 11 00 00           9745 	ld	de,#_input_script_ptrs
   2049 2B                 9746 	dec	hl
   204A 2A                 9747 	ld	a,(hl+)
   204B 66                 9748 	ld	h,(hl)
   204C 6F                 9749 	ld	l,a
   204D 19                 9750 	add	hl,de
   204E 7D                 9751 	ld	a,l
   204F 54                 9752 	ld	d,h
   2050 F8 02              9753 	lda	hl,2(sp)
                           9754 ;	genPointerGet
                           9755 ;	AOP_STK for _SceneHandleInput_sloc2_1_0
   2052 22                 9756 	ld	(hl+),a
   2053 72                 9757 	ld	(hl),d
   2054 5F                 9758 	ld	e,a
   2055 1A                 9759 	ld	a,(de)
                           9760 ;	genIfx
   2056 B7                 9761 	or	a,a
   2057 CA 77 20           9762 	jp	z,00117$
                           9763 ;	src/Scene_b.c 865
                           9764 ;	genPlus
                           9765 ;	genPlusIncr
   205A 21 0C 00           9766 	ld	hl,#_actors + 12
                           9767 ;	genAssign (pointer)
   205D 36 00              9768 	ld	(hl),#0x00
                           9769 ;	src/Scene_b.c 866
                           9770 ;	genAssign
                           9771 ;	AOP_HL for _joy
                           9772 ;	AOP_HL for _last_joy
   205F 21 00 00           9773 	ld	hl,#_joy
   2062 7E                 9774 	ld	a,(hl)
   2063 21 A3 00           9775 	ld	hl,#_last_joy
   2066 77                 9776 	ld	(hl),a
                           9777 ;	src/Scene_b.c 867
                           9778 ;	genIpush
                           9779 ; _saveRegsForCall: sendSetSize: 0 deInUse: 0 bcInUse: 1 deSending: 0
   2067 C5                 9780 	push	bc
                           9781 ;	AOP_STK for _SceneHandleInput_sloc2_1_0
   2068 F8 04              9782 	lda	hl,4(sp)
   206A 2A                 9783 	ld	a,(hl+)
   206B 66                 9784 	ld	h,(hl)
   206C 6F                 9785 	ld	l,a
   206D E5                 9786 	push	hl
                           9787 ;	genCall
   206E CD 00 00           9788 	call	_ScriptStart
   2071 E8 02              9789 	lda	sp,2(sp)
   2073 C1                 9790 	pop	bc
                           9791 ;	src/Scene_b.c 868
                           9792 ;	genRet
   2074 C3 6D 22           9793 	jp	00149$
                           9794 ;	genLabel
   2077                    9795 00117$:
                           9796 ;	src/Scene_b.c 871
                           9797 ;	genRightShift
                           9798 ;	AOP_STK for _SceneHandleInput_input_joy_1_1
   2077 F8 08              9799 	lda	hl,8(sp)
   2079 7E                 9800 	ld	a,(hl)
   207A CB 3F              9801 	srl	a
   207C 77                 9802 	ld	(hl),a
                           9803 ;	src/Scene_b.c 859
                           9804 ;	genPlus
                           9805 ;	genPlusIncr
                           9806 ; Removed redundent load
   207D 0C                 9807 	inc	c
                           9808 ;	genGoto
   207E C3 29 20           9809 	jp	00145$
                           9810 ;	genLabel
   2081                    9811 00119$:
                           9812 ;	src/Scene_b.c 875
                           9813 ;	genAnd
                           9814 ;	AOP_HL for _joy
   2081 21 00 00           9815 	ld	hl,#_joy
   2084 7E                 9816 	ld	a,(hl)
   2085 E6 10              9817 	and	a,#0x10
   2087 20 03              9818 	jr	nz,00187$
   2089 C3 E5 21           9819 	jp	00142$
   208C                    9820 00187$:
                           9821 ;	genAnd
                           9822 ;	AOP_HL for _prev_joy
   208C 21 00 00           9823 	ld	hl,#_prev_joy
   208F 7E                 9824 	ld	a,(hl)
   2090 E6 10              9825 	and	a,#0x10
   2092 20 03              9826 	jr	nz,00188$
   2094 C3 9A 20           9827 	jp	00189$
   2097                    9828 00188$:
   2097 C3 E5 21           9829 	jp	00142$
   209A                    9830 00189$:
                           9831 ;	src/Scene_b.c 877
                           9832 ;	genAssign
                           9833 ;	AOP_HL for _joy
                           9834 ;	AOP_HL for _last_joy
   209A 21 00 00           9835 	ld	hl,#_joy
   209D 7E                 9836 	ld	a,(hl)
   209E 21 A3 00           9837 	ld	hl,#_last_joy
   20A1 77                 9838 	ld	(hl),a
                           9839 ;	src/Scene_b.c 878
                           9840 ;	genPlus
                           9841 ;	AOP_STK for _SceneHandleInput_sloc2_1_0
                           9842 ;	genPlusIncr
                           9843 ;	Can't optimise plus by inc, falling back to the normal way
   20A2 11 00 00           9844 	ld	de,#_actors
   20A5 21 0C 00           9845 	ld	hl,#0x000C
   20A8 19                 9846 	add	hl,de
   20A9 7D                 9847 	ld	a,l
   20AA 54                 9848 	ld	d,h
   20AB F8 02              9849 	lda	hl,2(sp)
   20AD 22                 9850 	ld	(hl+),a
   20AE 72                 9851 	ld	(hl),d
                           9852 ;	genAssign (pointer)
                           9853 ;	AOP_STK for _SceneHandleInput_sloc2_1_0
   20AF 2B                 9854 	dec	hl
   20B0 5E                 9855 	ld	e,(hl)
   20B1 23                 9856 	inc	hl
   20B2 56                 9857 	ld	d,(hl)
   20B3 3E 00              9858 	ld	a,#0x00
   20B5 12                 9859 	ld	(de),a
                           9860 ;	src/Scene_b.c 879
                           9861 ;	genRightShift
                           9862 ;	AOP_STK for _SceneHandleInput_sloc1_1_0
   20B6 23                 9863 	inc	hl
   20B7 4E                 9864 	ld	c,(hl)
   20B8 CB 39              9865 	srl	c
   20BA CB 39              9866 	srl	c
   20BC CB 39              9867 	srl	c
                           9868 ;	genPlus
                           9869 ;	AOP_STK for _SceneHandleInput_sloc0_1_0
                           9870 ;	genPlusIncr
                           9871 ;	Can't optimise plus by inc, falling back to the normal way
   20BE 11 00 00           9872 	ld	de,#_actors
   20C1 21 03 00           9873 	ld	hl,#0x0003
   20C4 19                 9874 	add	hl,de
   20C5 7D                 9875 	ld	a,l
   20C6 54                 9876 	ld	d,h
   20C7 F8 05              9877 	lda	hl,5(sp)
                           9878 ;	genPointerGet
                           9879 ;	AOP_STK for _SceneHandleInput_sloc0_1_0
                           9880 ;	AOP_STK for _SceneHandleInput_sloc1_1_0
   20C9 22                 9881 	ld	(hl+),a
   20CA 72                 9882 	ld	(hl),d
   20CB 5F                 9883 	ld	e,a
   20CC 1A                 9884 	ld	a,(de)
   20CD 2B                 9885 	dec	hl
   20CE 2B                 9886 	dec	hl
   20CF 77                 9887 	ld	(hl),a
                           9888 ;	genPlus
                           9889 ;	AOP_STK for _SceneHandleInput_sloc1_1_0
                           9890 ;	Can't optimise plus by inc, falling back to the normal way
   20D0 79                 9891 	ld	a,c
   20D1 86                 9892 	add	a,(hl)
   20D2 4F                 9893 	ld	c,a
                           9894 ;	genAssign
                           9895 ;	(registers are the same)
                           9896 ;	src/Scene_b.c 880
                           9897 ;	genRightShift
                           9898 ; Removed redundent load
   20D3 CB 38              9899 	srl	b
   20D5 CB 38              9900 	srl	b
   20D7 CB 38              9901 	srl	b
                           9902 ;	genPlus
                           9903 ;	AOP_STK for _SceneHandleInput_sloc0_1_0
                           9904 ;	genPlusIncr
                           9905 ;	Can't optimise plus by inc, falling back to the normal way
   20D9 11 00 00           9906 	ld	de,#_actors
   20DC 21 04 00           9907 	ld	hl,#0x0004
   20DF 19                 9908 	add	hl,de
   20E0 7D                 9909 	ld	a,l
   20E1 54                 9910 	ld	d,h
   20E2 F8 05              9911 	lda	hl,5(sp)
                           9912 ;	genPointerGet
                           9913 ;	AOP_STK for _SceneHandleInput_sloc0_1_0
                           9914 ;	AOP_STK for _SceneHandleInput_sloc1_1_0
   20E4 22                 9915 	ld	(hl+),a
   20E5 72                 9916 	ld	(hl),d
   20E6 5F                 9917 	ld	e,a
   20E7 1A                 9918 	ld	a,(de)
   20E8 2B                 9919 	dec	hl
   20E9 2B                 9920 	dec	hl
   20EA 77                 9921 	ld	(hl),a
                           9922 ;	genPlus
                           9923 ;	AOP_STK for _SceneHandleInput_sloc1_1_0
                           9924 ;	Can't optimise plus by inc, falling back to the normal way
   20EB 78                 9925 	ld	a,b
   20EC 86                 9926 	add	a,(hl)
                           9927 ;	genAssign
                           9928 ;	(registers are the same)
                           9929 ;	src/Scene_b.c 881
                           9930 ;	genIpush
                           9931 ; _saveRegsForCall: sendSetSize: 0 deInUse: 0 bcInUse: 0 deSending: 0
   20ED 47                 9932 	ld	b,a
   20EE F5                 9933 	push	af
   20EF 33                 9934 	inc	sp
                           9935 ;	genIpush
   20F0 79                 9936 	ld	a,c
   20F1 F5                 9937 	push	af
   20F2 33                 9938 	inc	sp
                           9939 ;	genIpush
   20F3 3E 00              9940 	ld	a,#0x00
   20F5 F5                 9941 	push	af
   20F6 33                 9942 	inc	sp
                           9943 ;	genCall
   20F7 CD 53 27           9944 	call	_SceneNpcAt_b
   20FA 4B                 9945 	ld	c,e
   20FB E8 03              9946 	lda	sp,3(sp)
                           9947 ;	genAssign
                           9948 ;	AOP_STK for _SceneHandleInput_npc_1_1
   20FD F8 07              9949 	lda	hl,7(sp)
   20FF 71                 9950 	ld	(hl),c
                           9951 ;	src/Scene_b.c 882
                           9952 ;	genCmpEq
                           9953 ;	AOP_STK for _SceneHandleInput_npc_1_1
                           9954 ;	AOP_HL for _scene_num_actors
                           9955 ; genCmpEq: left 1, right 1, result 0
   2100 21 11 00           9956 	ld	hl,#_scene_num_actors
   2103 7E                 9957 	ld	a,(hl)
   2104 F8 07              9958 	lda	hl,7(sp)
   2106 BE                 9959 	cp	(hl)
   2107 20 03              9960 	jr	nz,00190$
   2109 C3 6D 22           9961 	jp	00149$
   210C                    9962 00190$:
                           9963 ;	src/Scene_b.c 884
                           9964 ;	genAssign (pointer)
                           9965 ;	AOP_STK for _SceneHandleInput_sloc2_1_0
   210C F8 02              9966 	lda	hl,2(sp)
   210E 5E                 9967 	ld	e,(hl)
   210F 23                 9968 	inc	hl
   2110 56                 9969 	ld	d,(hl)
   2111 3E 00              9970 	ld	a,#0x00
   2113 12                 9971 	ld	(de),a
                           9972 ;	src/Scene_b.c 885
                           9973 ;	genMult
                           9974 ;	AOP_STK for _SceneHandleInput_npc_1_1
                           9975 ;	AOP_STK for _SceneHandleInput_sloc2_1_0
   2114 F8 07              9976 	lda	hl,7(sp)
   2116 5E                 9977 	ld	e,(hl)
   2117 16 00              9978 	ld	d,#0x00
   2119 6B                 9979 	ld	l,e
   211A 62                 9980 	ld	h,d
   211B 29                 9981 	add	hl,hl
   211C 29                 9982 	add	hl,hl
   211D 19                 9983 	add	hl,de
   211E 29                 9984 	add	hl,hl
   211F 19                 9985 	add	hl,de
   2120 29                 9986 	add	hl,hl
   2121 7D                 9987 	ld	a,l
   2122 54                 9988 	ld	d,h
   2123 F8 02              9989 	lda	hl,2(sp)
   2125 22                 9990 	ld	(hl+),a
   2126 72                 9991 	ld	(hl),d
                           9992 ;	genPlus
                           9993 ;	AOP_STK for _SceneHandleInput_sloc2_1_0
                           9994 ;	Can't optimise plus by inc, falling back to the normal way
   2127 11 00 00           9995 	ld	de,#_actors
   212A 2B                 9996 	dec	hl
   212B 2A                 9997 	ld	a,(hl+)
   212C 66                 9998 	ld	h,(hl)
   212D 6F                 9999 	ld	l,a
   212E 19                10000 	add	hl,de
   212F 45                10001 	ld	b,l
   2130 4C                10002 	ld	c,h
                          10003 ;	genPlus
                          10004 ;	AOP_STK for _SceneHandleInput_sloc0_1_0
                          10005 ;	genPlusIncr
                          10006 ;	Can't optimise plus by inc, falling back to the normal way
   2131 58                10007 	ld	e,b
   2132 51                10008 	ld	d,c
   2133 21 15 00          10009 	ld	hl,#0x0015
   2136 19                10010 	add	hl,de
   2137 7D                10011 	ld	a,l
   2138 54                10012 	ld	d,h
   2139 F8 05             10013 	lda	hl,5(sp)
                          10014 ;	genPointerGet
                          10015 ;	AOP_STK for _SceneHandleInput_sloc0_1_0
                          10016 ;	AOP_STK for _SceneHandleInput_sloc1_1_0
   213B 22                10017 	ld	(hl+),a
   213C 72                10018 	ld	(hl),d
   213D 5F                10019 	ld	e,a
   213E 1A                10020 	ld	a,(de)
   213F 2B                10021 	dec	hl
   2140 2B                10022 	dec	hl
                          10023 ;	genCmpEq
                          10024 ;	AOP_STK for _SceneHandleInput_sloc1_1_0
                          10025 ; genCmpEq: left 1, right 1, result 0
   2141 77                10026 	ld      (hl),a
                          10027 ; Removed redundent load
   2142 FE 01             10028 	cp	a,#0x01
   2144 CA B7 21          10029 	jp	z,00122$
   2147                   10030 00191$:
                          10031 ;	genCmpEq
                          10032 ;	AOP_STK for _SceneHandleInput_sloc1_1_0
                          10033 ; genCmpEq: left 1, right 1, result 0
   2147 F8 04             10034 	lda	hl,4(sp)
   2149 7E                10035 	ld	a,(hl)
   214A FE 06             10036 	cp	a,#0x06
   214C CA B7 21          10037 	jp	z,00122$
   214F                   10038 00192$:
                          10039 ;	src/Scene_b.c 887
                          10040 ;	genPlus
                          10041 ;	AOP_STK for _SceneHandleInput_sloc0_1_0
                          10042 ;	genPlusIncr
                          10043 ;	Can't optimise plus by inc, falling back to the normal way
   214F 58                10044 	ld	e,b
   2150 51                10045 	ld	d,c
   2151 21 03 00          10046 	ld	hl,#0x0003
   2154 19                10047 	add	hl,de
   2155 7D                10048 	ld	a,l
   2156 54                10049 	ld	d,h
   2157 F8 05             10050 	lda	hl,5(sp)
   2159 22                10051 	ld	(hl+),a
   215A 72                10052 	ld	(hl),d
                          10053 ;	genPlus
                          10054 ;	AOP_STK for _SceneHandleInput_sloc3_1_0
                          10055 ;	genPlusIncr
                          10056 ;	Can't optimise plus by inc, falling back to the normal way
   215B 11 00 00          10057 	ld	de,#_actors
   215E 21 03 00          10058 	ld	hl,#0x0003
   2161 19                10059 	add	hl,de
   2162 7D                10060 	ld	a,l
   2163 54                10061 	ld	d,h
   2164 F8 00             10062 	lda	hl,0(sp)
                          10063 ;	genPointerGet
                          10064 ;	AOP_STK for _SceneHandleInput_sloc3_1_0
                          10065 ;	AOP_STK for _SceneHandleInput_sloc1_1_0
   2166 22                10066 	ld	(hl+),a
   2167 72                10067 	ld	(hl),d
   2168 5F                10068 	ld	e,a
   2169 1A                10069 	ld	a,(de)
   216A F8 04             10070 	lda	hl,4(sp)
   216C 77                10071 	ld	(hl),a
                          10072 ;	genUminus
                          10073 ;	AOP_STK for _SceneHandleInput_sloc1_1_0
                          10074 ;	AOP_STK for _SceneHandleInput_sloc3_1_0
   216D AF                10075 	xor     a,a
   216E 9E                10076 	sbc	a,(hl)
   216F F8 00             10077 	lda	hl,0(sp)
   2171 77                10078 	ld	(hl),a
                          10079 ;	genAssign (pointer)
                          10080 ;	AOP_STK for _SceneHandleInput_sloc0_1_0
                          10081 ;	AOP_STK for _SceneHandleInput_sloc3_1_0
   2172 F8 05             10082 	lda	hl,5(sp)
   2174 5E                10083 	ld	e,(hl)
   2175 23                10084 	inc	hl
   2176 56                10085 	ld	d,(hl)
   2177 F8 00             10086 	lda	hl,0(sp)
   2179 7E                10087 	ld	a,(hl)
   217A 12                10088 	ld	(de),a
                          10089 ;	src/Scene_b.c 888
                          10090 ;	genPlus
                          10091 ;	AOP_STK for _SceneHandleInput_sloc2_1_0
                          10092 ;	AOP_STK for _SceneHandleInput_sloc3_1_0
                          10093 ;	Can't optimise plus by inc, falling back to the normal way
   217B 11 00 00          10094 	ld	de,#_actors
   217E 23                10095 	inc	hl
   217F 23                10096 	inc	hl
   2180 2A                10097 	ld	a,(hl+)
   2181 66                10098 	ld	h,(hl)
   2182 6F                10099 	ld	l,a
   2183 19                10100 	add	hl,de
   2184 7D                10101 	ld	a,l
   2185 54                10102 	ld	d,h
   2186 F8 00             10103 	lda	hl,0(sp)
   2188 22                10104 	ld	(hl+),a
   2189 72                10105 	ld	(hl),d
                          10106 ;	genPlus
                          10107 ;	AOP_STK for _SceneHandleInput_sloc3_1_0
                          10108 ;	AOP_STK for _SceneHandleInput_sloc2_1_0
                          10109 ;	genPlusIncr
                          10110 ;	Can't optimise plus by inc, falling back to the normal way
   218A 2B                10111 	dec	hl
   218B 5E                10112 	ld	e,(hl)
   218C 23                10113 	inc	hl
   218D 56                10114 	ld	d,(hl)
   218E 21 04 00          10115 	ld	hl,#0x0004
   2191 19                10116 	add	hl,de
   2192 7D                10117 	ld	a,l
   2193 54                10118 	ld	d,h
   2194 F8 02             10119 	lda	hl,2(sp)
   2196 22                10120 	ld	(hl+),a
   2197 72                10121 	ld	(hl),d
                          10122 ;	genPlus
                          10123 ;	AOP_STK for _SceneHandleInput_sloc3_1_0
                          10124 ;	genPlusIncr
                          10125 ;	Can't optimise plus by inc, falling back to the normal way
   2198 11 00 00          10126 	ld	de,#_actors
   219B 21 04 00          10127 	ld	hl,#0x0004
   219E 19                10128 	add	hl,de
   219F 7D                10129 	ld	a,l
   21A0 54                10130 	ld	d,h
   21A1 F8 00             10131 	lda	hl,0(sp)
                          10132 ;	genPointerGet
                          10133 ;	AOP_STK for _SceneHandleInput_sloc3_1_0
                          10134 ;	AOP_STK for _SceneHandleInput_sloc1_1_0
   21A3 22                10135 	ld	(hl+),a
   21A4 72                10136 	ld	(hl),d
   21A5 5F                10137 	ld	e,a
   21A6 1A                10138 	ld	a,(de)
   21A7 F8 04             10139 	lda	hl,4(sp)
   21A9 77                10140 	ld	(hl),a
                          10141 ;	genUminus
                          10142 ;	AOP_STK for _SceneHandleInput_sloc1_1_0
                          10143 ;	AOP_STK for _SceneHandleInput_sloc3_1_0
   21AA AF                10144 	xor     a,a
   21AB 9E                10145 	sbc	a,(hl)
   21AC F8 00             10146 	lda	hl,0(sp)
                          10147 ;	genAssign (pointer)
                          10148 ;	AOP_STK for _SceneHandleInput_sloc2_1_0
                          10149 ;	AOP_STK for _SceneHandleInput_sloc3_1_0
   21AE 22                10150 	ld	(hl+),a
   21AF 23                10151 	inc	hl
   21B0 5E                10152 	ld	e,(hl)
   21B1 23                10153 	inc	hl
   21B2 56                10154 	ld	d,(hl)
   21B3 F8 00             10155 	lda	hl,0(sp)
   21B5 7E                10156 	ld	a,(hl)
   21B6 12                10157 	ld	(de),a
                          10158 ;	genLabel
   21B7                   10159 00122$:
                          10160 ;	src/Scene_b.c 890
                          10161 ;	genPlus
                          10162 ;	genPlusIncr
                          10163 ;	Can't optimise plus by inc, falling back to the normal way
   21B7 78                10164 	ld	a,b
   21B8 C6 0C             10165 	add	a,#0x0C
   21BA 6F                10166 	ld	l,a
   21BB 79                10167 	ld	a,c
   21BC CE 00             10168 	adc	a,#0x00
   21BE 67                10169 	ld	h,a
                          10170 ;	genAssign (pointer)
   21BF 36 00             10171 	ld	(hl),#0x00
                          10172 ;	src/Scene_b.c 891
                          10173 ;	genIpush
                          10174 ; _saveRegsForCall: sendSetSize: 0 deInUse: 0 bcInUse: 1 deSending: 0
   21C1 C5                10175 	push	bc
                          10176 ;	AOP_STK for _SceneHandleInput_npc_1_1
   21C2 F8 09             10177 	lda	hl,9(sp)
   21C4 7E                10178 	ld	a,(hl)
   21C5 F5                10179 	push	af
   21C6 33                10180 	inc	sp
                          10181 ;	genCall
   21C7 CD 6F 24          10182 	call	_SceneRenderActor_b
   21CA E8 01             10183 	lda	sp,1(sp)
   21CC C1                10184 	pop	bc
                          10185 ;	src/Scene_b.c 892
                          10186 ;	genAssign
                          10187 ;	AOP_STK for _SceneHandleInput_npc_1_1
                          10188 ;	AOP_HL for _script_actor
   21CD F8 07             10189 	lda	hl,7(sp)
   21CF 7E                10190 	ld	a,(hl)
   21D0 21 00 00          10191 	ld	hl,#_script_actor
   21D3 77                10192 	ld	(hl),a
                          10193 ;	src/Scene_b.c 893
                          10194 ;	genPlus
                          10195 ;	genPlusIncr
                          10196 ;	Can't optimise plus by inc, falling back to the normal way
   21D4 78                10197 	ld	a,b
   21D5 C6 12             10198 	add	a,#0x12
   21D7 6F                10199 	ld	l,a
   21D8 79                10200 	ld	a,c
   21D9 CE 00             10201 	adc	a,#0x00
   21DB 67                10202 	ld	h,a
                          10203 ;	genIpush
                          10204 ; _saveRegsForCall: sendSetSize: 0 deInUse: 0 bcInUse: 0 deSending: 0
   21DC E5                10205 	push	hl
                          10206 ;	genCall
   21DD CD 00 00          10207 	call	_ScriptStart
   21E0 E8 02             10208 	lda	sp,2(sp)
                          10209 ;	genGoto
   21E2 C3 6D 22          10210 	jp	00149$
                          10211 ;	genLabel
   21E5                   10212 00142$:
                          10213 ;	src/Scene_b.c 896
                          10214 ;	genPlus
                          10215 ;	genPlusIncr
   21E5 01 0C 00          10216 	ld	bc,#_actors + 12
                          10217 ;	genPointerGet
   21E8 0A                10218 	ld	a,(bc)
                          10219 ;	genIfx
   21E9 B7                10220 	or	a,a
   21EA C2 FA 21          10221 	jp	nz,00138$
                          10222 ;	genCmpEq
                          10223 ;	AOP_HL for _joy
                          10224 ;	AOP_HL for _last_joy
                          10225 ; genCmpEq: left 1, right 1, result 0
   21ED 21 A3 00          10226 	ld	hl,#_last_joy
   21F0 7E                10227 	ld	a,(hl)
   21F1 21 00 00          10228 	ld	hl,#_joy
   21F4 BE                10229 	cp	(hl)
   21F5 20 03             10230 	jr	nz,00193$
   21F7 C3 6D 22          10231 	jp	00149$
   21FA                   10232 00193$:
                          10233 ;	genLabel
   21FA                   10234 00138$:
                          10235 ;	src/Scene_b.c 898
                          10236 ;	genAssign
                          10237 ;	AOP_HL for _joy
                          10238 ;	AOP_HL for _last_joy
   21FA 21 00 00          10239 	ld	hl,#_joy
   21FD 7E                10240 	ld	a,(hl)
   21FE 21 A3 00          10241 	ld	hl,#_last_joy
   2201 77                10242 	ld	(hl),a
                          10243 ;	src/Scene_b.c 900
                          10244 ;	genAnd
                          10245 ;	AOP_HL for _joy
   2202 21 00 00          10246 	ld	hl,#_joy
   2205 7E                10247 	ld	a,(hl)
   2206 E6 02             10248 	and	a,#0x02
   2208 20 03             10249 	jr	nz,00194$
   220A C3 19 22          10250 	jp	00136$
   220D                   10251 00194$:
                          10252 ;	src/Scene_b.c 902
                          10253 ;	genAddrOf
                          10254 ;	AOP_HL for _update_dir
   220D 11 68 00          10255 	ld	de,#_dir_left
   2210 21 A1 00          10256 	ld	hl,#_update_dir
   2213 73                10257 	ld	(hl),e
   2214 23                10258 	inc	hl
   2215 72                10259 	ld	(hl),d
                          10260 ;	genGoto
   2216 C3 64 22          10261 	jp	00137$
                          10262 ;	genLabel
   2219                   10263 00136$:
                          10264 ;	src/Scene_b.c 904
                          10265 ;	genAnd
                          10266 ;	AOP_HL for _joy
   2219 21 00 00          10267 	ld	hl,#_joy
   221C 7E                10268 	ld	a,(hl)
   221D E6 01             10269 	and	a,#0x01
   221F 20 03             10270 	jr	nz,00195$
   2221 C3 30 22          10271 	jp	00133$
   2224                   10272 00195$:
                          10273 ;	src/Scene_b.c 906
                          10274 ;	genAddrOf
                          10275 ;	AOP_HL for _update_dir
   2224 11 6A 00          10276 	ld	de,#_dir_right
   2227 21 A1 00          10277 	ld	hl,#_update_dir
   222A 73                10278 	ld	(hl),e
   222B 23                10279 	inc	hl
   222C 72                10280 	ld	(hl),d
                          10281 ;	genGoto
   222D C3 64 22          10282 	jp	00137$
                          10283 ;	genLabel
   2230                   10284 00133$:
                          10285 ;	src/Scene_b.c 908
                          10286 ;	genAnd
                          10287 ;	AOP_HL for _joy
   2230 21 00 00          10288 	ld	hl,#_joy
   2233 7E                10289 	ld	a,(hl)
   2234 E6 04             10290 	and	a,#0x04
   2236 20 03             10291 	jr	nz,00196$
   2238 C3 47 22          10292 	jp	00130$
   223B                   10293 00196$:
                          10294 ;	src/Scene_b.c 910
                          10295 ;	genAddrOf
                          10296 ;	AOP_HL for _update_dir
   223B 11 64 00          10297 	ld	de,#_dir_up
   223E 21 A1 00          10298 	ld	hl,#_update_dir
   2241 73                10299 	ld	(hl),e
   2242 23                10300 	inc	hl
   2243 72                10301 	ld	(hl),d
                          10302 ;	genGoto
   2244 C3 64 22          10303 	jp	00137$
                          10304 ;	genLabel
   2247                   10305 00130$:
                          10306 ;	src/Scene_b.c 912
                          10307 ;	genAnd
                          10308 ;	AOP_HL for _joy
   2247 21 00 00          10309 	ld	hl,#_joy
   224A 7E                10310 	ld	a,(hl)
   224B E6 08             10311 	and	a,#0x08
   224D 20 03             10312 	jr	nz,00197$
   224F C3 5E 22          10313 	jp	00127$
   2252                   10314 00197$:
                          10315 ;	src/Scene_b.c 914
                          10316 ;	genAddrOf
                          10317 ;	AOP_HL for _update_dir
   2252 11 66 00          10318 	ld	de,#_dir_down
   2255 21 A1 00          10319 	ld	hl,#_update_dir
   2258 73                10320 	ld	(hl),e
   2259 23                10321 	inc	hl
   225A 72                10322 	ld	(hl),d
                          10323 ;	genGoto
   225B C3 64 22          10324 	jp	00137$
                          10325 ;	genLabel
   225E                   10326 00127$:
                          10327 ;	src/Scene_b.c 918
                          10328 ;	genAssign (pointer)
   225E 3E 00             10329 	ld	a,#0x00
   2260 02                10330 	ld	(bc),a
                          10331 ;	src/Scene_b.c 919
                          10332 ;	genRet
   2261 C3 6D 22          10333 	jp	00149$
                          10334 ;	genLabel
   2264                   10335 00137$:
                          10336 ;	src/Scene_b.c 922
                          10337 ;	genIpush
                          10338 ; _saveRegsForCall: sendSetSize: 0 deInUse: 0 bcInUse: 0 deSending: 0
   2264 3E 00             10339 	ld	a,#0x00
   2266 F5                10340 	push	af
   2267 33                10341 	inc	sp
                          10342 ;	genCall
   2268 CD C6 1A          10343 	call	_SceneUpdateActorMovement_b
   226B E8 01             10344 	lda	sp,1(sp)
                          10345 ;	genLabel
   226D                   10346 00149$:
                          10347 ;	genEndFunction
   226D E8 09             10348 	lda	sp,9(sp)
   226F C9                10349 	ret
   2270                   10350 ___SceneHandleInput_end:
                          10351 ;	src/Scene_b.c 930
                          10352 ;	genLabel
                          10353 ;	genFunction
                          10354 ;	---------------------------------
                          10355 ; Function SceneRender
                          10356 ; ---------------------------------
   2270                   10357 ___SceneRender_start:
   2270                   10358 _SceneRender:
                          10359 	
                          10360 ;	src/Scene_b.c 932
                          10361 ;	genCall
                          10362 ; _saveRegsForCall: sendSetSize: 0 deInUse: 0 bcInUse: 0 deSending: 0
   2270 CD 7A 22          10363 	call	_SceneRenderCameraShake_b
                          10364 ;	src/Scene_b.c 933
                          10365 ;	genCall
                          10366 ; _saveRegsForCall: sendSetSize: 0 deInUse: 0 bcInUse: 0 deSending: 0
   2273 CD A5 22          10367 	call	_SceneRenderActors_b
                          10368 ;	src/Scene_b.c 934
                          10369 ;	genCall
                          10370 ; _saveRegsForCall: sendSetSize: 0 deInUse: 0 bcInUse: 0 deSending: 0
   2276 CD 2D 26          10371 	call	_SceneRenderEmoteBubble_b
                          10372 ;	genLabel
   2279                   10373 00101$:
                          10374 ;	genEndFunction
                          10375 	
   2279 C9                10376 	ret
   227A                   10377 ___SceneRender_end:
                          10378 ;	src/Scene_b.c 937
                          10379 ;	genLabel
                          10380 ;	genFunction
                          10381 ;	---------------------------------
                          10382 ; Function SceneRenderCameraShake_b
                          10383 ; ---------------------------------
   227A                   10384 ___SceneRenderCameraShake_b_start:
   227A                   10385 _SceneRenderCameraShake_b:
   227A E8 FD             10386 	lda	sp,-3(sp)
                          10387 ;	src/Scene_b.c 940
                          10388 ;	genCmpEq
                          10389 ;	AOP_HL for _shake_time
                          10390 ; genCmpEq: left 1, right 1, result 0
   227C 21 00 00          10391 	ld	hl,#_shake_time
   227F 7E                10392 	ld	a,(hl)
   2280 B7                10393 	or	a,a
   2281 CA A2 22          10394 	jp	z,00103$
   2284                   10395 00106$:
                          10396 ;	src/Scene_b.c 942
                          10397 ;	genAssign
   2284 01 43 FF          10398 	ld	bc,#0xFF43
                          10399 ;	genAssign
                          10400 ;	AOP_STK for _SceneRenderCameraShake_b_sloc0_1_0
   2287 F8 01             10401 	lda	hl,1(sp)
   2289 36 43             10402 	ld	(hl),#0x43
   228B 23                10403 	inc	hl
   228C 36 FF             10404 	ld	(hl),#0xFF
                          10405 ;	genPointerGet
                          10406 ;	AOP_STK for _SceneRenderCameraShake_b_sloc0_1_0
                          10407 ;	AOP_STK for _SceneRenderCameraShake_b_sloc1_1_0
   228E 2B                10408 	dec	hl
   228F 5E                10409 	ld	e,(hl)
   2290 23                10410 	inc	hl
   2291 56                10411 	ld	d,(hl)
   2292 1A                10412 	ld	a,(de)
   2293 2B                10413 	dec	hl
   2294 2B                10414 	dec	hl
   2295 77                10415 	ld	(hl),a
                          10416 ;	genAnd
                          10417 ;	AOP_HL for _shake_time
                          10418 ;	AOP_STK for _SceneRenderCameraShake_b_sloc0_1_0
   2296 21 00 00          10419 	ld	hl,#_shake_time
   2299 7E                10420 	ld	a,(hl)
   229A E6 05             10421 	and	a,#0x05
   229C F8 01             10422 	lda	hl,1(sp)
                          10423 ;	genPlus
                          10424 ;	AOP_STK for _SceneRenderCameraShake_b_sloc1_1_0
                          10425 ;	AOP_STK for _SceneRenderCameraShake_b_sloc0_1_0
                          10426 ;	Can't optimise plus by inc, falling back to the normal way
   229E 32                10427 	ld      (hl-),a
   229F 2A                10428 	ld	a,(hl+)
   22A0 86                10429 	add	a,(hl)
                          10430 ;	genAssign (pointer)
   22A1 02                10431 	ld	(bc),a
                          10432 ;	genLabel
   22A2                   10433 00103$:
                          10434 ;	genEndFunction
   22A2 E8 03             10435 	lda	sp,3(sp)
   22A4 C9                10436 	ret
   22A5                   10437 ___SceneRenderCameraShake_b_end:
                          10438 ;	src/Scene_b.c 946
                          10439 ;	genLabel
                          10440 ;	genFunction
                          10441 ;	---------------------------------
                          10442 ; Function SceneRenderActors_b
                          10443 ; ---------------------------------
   22A5                   10444 ___SceneRenderActors_b_start:
   22A5                   10445 _SceneRenderActors_b:
   22A5 E8 F7             10446 	lda	sp,-9(sp)
                          10447 ;	src/Scene_b.c 951
                          10448 ;	genAnd
                          10449 ;	AOP_HL for _time
   22A7 21 00 00          10450 	ld	hl,#_time
   22AA 7E                10451 	ld	a,(hl)
   22AB E6 07             10452 	and	a,#0x07
                          10453 ;	genCmpEq
                          10454 ; genCmpEq: left 1, right 1, result 0
   22AD 4F                10455 	ld	c,a
   22AE FE 01             10456 	cp	a,#0x01
   22B0 C2 7D 23          10457 	jp	nz,00105$
   22B3 18 03             10458 	jr	00132$
   22B5                   10459 00131$:
   22B5 C3 7D 23          10460 	jp	00105$
   22B8                   10461 00132$:
                          10462 ;	src/Scene_b.c 953
                          10463 ;	genAssign
                          10464 ;	AOP_STK for _SceneRenderActors_b_ptr_1_1
   22B8 F8 03             10465 	lda	hl,3(sp)
   22BA 36 00             10466 	ld	(hl),#<_actors
   22BC 23                10467 	inc	hl
   22BD 36 00             10468 	ld	(hl),#>_actors
                          10469 ;	src/Scene_b.c 956
                          10470 ;	genAssign
                          10471 ;	AOP_STK for _SceneRenderActors_b_i_1_1
   22BF F8 08             10472 	lda	hl,8(sp)
   22C1 36 00             10473 	ld	(hl),#0x00
                          10474 ;	genLabel
   22C3                   10475 00112$:
                          10476 ;	genCmpEq
                          10477 ;	AOP_STK for _SceneRenderActors_b_i_1_1
                          10478 ;	AOP_HL for _scene_num_actors
                          10479 ; genCmpEq: left 1, right 1, result 0
   22C3 21 11 00          10480 	ld	hl,#_scene_num_actors
   22C6 7E                10481 	ld	a,(hl)
   22C7 F8 08             10482 	lda	hl,8(sp)
   22C9 BE                10483 	cp	(hl)
   22CA 20 03             10484 	jr	nz,00133$
   22CC C3 7D 23          10485 	jp	00105$
   22CF                   10486 00133$:
                          10487 ;	src/Scene_b.c 958
                          10488 ;	genLeftShift
                          10489 ;	AOP_STK for _SceneRenderActors_b_i_1_1
   22CF F8 08             10490 	lda	hl,8(sp)
   22D1 7E                10491 	ld	a,(hl)
   22D2 87                10492 	add	a,a
                          10493 ;	genPlus
                          10494 ;	AOP_STK for _SceneRenderActors_b_s_1_1
                          10495 ;	genPlusIncr
                          10496 ;	Can't optimise plus by inc, falling back to the normal way
   22D3 4F                10497 	ld	c,a
   22D4 C6 02             10498 	add	a,#0x02
   22D6 2B                10499 	dec	hl
   22D7 77                10500 	ld	(hl),a
                          10501 ;	src/Scene_b.c 959
                          10502 ;	genPointerGet
                          10503 ;	AOP_STK for _SceneRenderActors_b_ptr_1_1
   22D8 F8 03             10504 	lda	hl,3(sp)
   22DA 5E                10505 	ld	e,(hl)
   22DB 23                10506 	inc	hl
   22DC 56                10507 	ld	d,(hl)
   22DD 1A                10508 	ld	a,(de)
   22DE 47                10509 	ld	b,a
                          10510 ;	genPlus
                          10511 ;	AOP_STK for _SceneRenderActors_b_ptr_1_1
                          10512 ;	AOP_STK for _SceneRenderActors_b_sloc0_1_0
                          10513 ;	genPlusIncr
                          10514 ;	Can't optimise plus by inc, falling back to the normal way
   22DF 2B                10515 	dec	hl
   22E0 5E                10516 	ld	e,(hl)
   22E1 23                10517 	inc	hl
   22E2 56                10518 	ld	d,(hl)
   22E3 21 06 00          10519 	ld	hl,#0x0006
   22E6 19                10520 	add	hl,de
   22E7 7D                10521 	ld	a,l
   22E8 54                10522 	ld	d,h
   22E9 F8 01             10523 	lda	hl,1(sp)
                          10524 ;	genPointerGet
                          10525 ;	AOP_STK for _SceneRenderActors_b_sloc0_1_0
                          10526 ;	AOP_STK for _SceneRenderActors_b_sloc1_1_0
   22EB 22                10527 	ld	(hl+),a
   22EC 72                10528 	ld	(hl),d
   22ED 5F                10529 	ld	e,a
   22EE 1A                10530 	ld	a,(de)
   22EF 2B                10531 	dec	hl
   22F0 2B                10532 	dec	hl
   22F1 77                10533 	ld	(hl),a
                          10534 ;	genPlus
                          10535 ;	AOP_STK for _SceneRenderActors_b_sloc1_1_0
                          10536 ;	Can't optimise plus by inc, falling back to the normal way
   22F2 78                10537 	ld	a,b
   22F3 86                10538 	add	a,(hl)
   22F4 47                10539 	ld	b,a
                          10540 ;	genPlus
                          10541 ;	AOP_STK for _SceneRenderActors_b_ptr_1_1
                          10542 ;	AOP_STK for _SceneRenderActors_b_sloc0_1_0
                          10543 ;	genPlusIncr
                          10544 ;	Can't optimise plus by inc, falling back to the normal way
   22F5 F8 03             10545 	lda	hl,3(sp)
   22F7 5E                10546 	ld	e,(hl)
   22F8 23                10547 	inc	hl
   22F9 56                10548 	ld	d,(hl)
   22FA 21 0B 00          10549 	ld	hl,#0x000B
   22FD 19                10550 	add	hl,de
   22FE 7D                10551 	ld	a,l
   22FF 54                10552 	ld	d,h
   2300 F8 01             10553 	lda	hl,1(sp)
                          10554 ;	genPointerGet
                          10555 ;	AOP_STK for _SceneRenderActors_b_sloc0_1_0
                          10556 ;	AOP_STK for _SceneRenderActors_b_sloc1_1_0
   2302 22                10557 	ld	(hl+),a
   2303 72                10558 	ld	(hl),d
   2304 5F                10559 	ld	e,a
   2305 1A                10560 	ld	a,(de)
   2306 2B                10561 	dec	hl
   2307 2B                10562 	dec	hl
   2308 77                10563 	ld	(hl),a
                          10564 ;	genPlus
                          10565 ;	AOP_STK for _SceneRenderActors_b_sloc1_1_0
                          10566 ;	Can't optimise plus by inc, falling back to the normal way
   2309 78                10567 	ld	a,b
   230A 86                10568 	add	a,(hl)
                          10569 ;	genLeftShift
                          10570 ;	AOP_STK for _SceneRenderActors_b_x_1_1
   230B 47                10571 	ld	b,a
   230C 87                10572 	add	a,a
   230D 87                10573 	add	a,a
   230E F8 06             10574 	lda	hl,6(sp)
   2310 77                10575 	ld	(hl),a
                          10576 ;	src/Scene_b.c 960
                          10577 ;	genPlus
                          10578 ;	AOP_STK for _SceneRenderActors_b_ptr_1_1
                          10579 ;	genPlusIncr
                          10580 ;	Can't optimise plus by inc, falling back to the normal way
   2311 F8 03             10581 	lda	hl,3(sp)
   2313 5E                10582 	ld	e,(hl)
   2314 23                10583 	inc	hl
   2315 56                10584 	ld	d,(hl)
   2316 21 0A 00          10585 	ld	hl,#0x000A
   2319 19                10586 	add	hl,de
   231A 45                10587 	ld	b,l
   231B 4C                10588 	ld	c,h
                          10589 ;	genPointerGet
   231C 58                10590 	ld	e,b
   231D 51                10591 	ld	d,c
   231E 1A                10592 	ld	a,(de)
                          10593 ;	genIfx
   231F B7                10594 	or	a,a
   2320 CA 47 23          10595 	jp	z,00102$
                          10596 ;	src/Scene_b.c 962
                          10597 ;	genPlus
                          10598 ;	AOP_STK for _SceneRenderActors_b_s_1_1
                          10599 ;	genPlusIncr
   2323 F8 07             10600 	lda	hl,7(sp)
   2325 4E                10601 	ld	c,(hl)
   2326 0C                10602 	inc	c
                          10603 ;	genIpush
                          10604 ; _saveRegsForCall: sendSetSize: 0 deInUse: 0 bcInUse: 0 deSending: 0
                          10605 ;	AOP_STK for _SceneRenderActors_b_x_1_1
   2327 2B                10606 	dec	hl
   2328 7E                10607 	ld	a,(hl)
   2329 F5                10608 	push	af
   232A 33                10609 	inc	sp
                          10610 ;	genIpush
   232B 79                10611 	ld	a,c
   232C F5                10612 	push	af
   232D 33                10613 	inc	sp
                          10614 ;	genCall
   232E CD 00 00          10615 	call	_set_sprite_tile
   2331 E8 02             10616 	lda	sp,2(sp)
                          10617 ;	src/Scene_b.c 963
                          10618 ;	genPlus
                          10619 ;	AOP_STK for _SceneRenderActors_b_x_1_1
                          10620 ;	genPlusIncr
   2333 F8 06             10621 	lda	hl,6(sp)
   2335 4E                10622 	ld	c,(hl)
   2336 0C                10623 	inc	c
   2337 0C                10624 	inc	c
                          10625 ;	genIpush
                          10626 ; _saveRegsForCall: sendSetSize: 0 deInUse: 0 bcInUse: 0 deSending: 0
   2338 79                10627 	ld	a,c
   2339 F5                10628 	push	af
   233A 33                10629 	inc	sp
                          10630 ;	genIpush
                          10631 ;	AOP_STK for _SceneRenderActors_b_s_1_1
   233B 23                10632 	inc	hl
   233C 7E                10633 	ld	a,(hl)
   233D F5                10634 	push	af
   233E 33                10635 	inc	sp
                          10636 ;	genCall
   233F CD 00 00          10637 	call	_set_sprite_tile
   2342 E8 02             10638 	lda	sp,2(sp)
                          10639 ;	genGoto
   2344 C3 68 23          10640 	jp	00103$
                          10641 ;	genLabel
   2347                   10642 00102$:
                          10643 ;	src/Scene_b.c 967
                          10644 ;	genIpush
                          10645 ; _saveRegsForCall: sendSetSize: 0 deInUse: 0 bcInUse: 0 deSending: 0
                          10646 ;	AOP_STK for _SceneRenderActors_b_x_1_1
   2347 F8 06             10647 	lda	hl,6(sp)
   2349 7E                10648 	ld	a,(hl)
   234A F5                10649 	push	af
   234B 33                10650 	inc	sp
                          10651 ;	genIpush
                          10652 ;	AOP_STK for _SceneRenderActors_b_s_1_1
   234C 23                10653 	inc	hl
   234D 7E                10654 	ld	a,(hl)
   234E F5                10655 	push	af
   234F 33                10656 	inc	sp
                          10657 ;	genCall
   2350 CD 00 00          10658 	call	_set_sprite_tile
   2353 E8 02             10659 	lda	sp,2(sp)
                          10660 ;	src/Scene_b.c 968
                          10661 ;	genPlus
                          10662 ;	AOP_STK for _SceneRenderActors_b_x_1_1
                          10663 ;	genPlusIncr
   2355 F8 06             10664 	lda	hl,6(sp)
   2357 4E                10665 	ld	c,(hl)
   2358 0C                10666 	inc	c
   2359 0C                10667 	inc	c
                          10668 ;	genPlus
                          10669 ;	AOP_STK for _SceneRenderActors_b_s_1_1
                          10670 ;	genPlusIncr
   235A 23                10671 	inc	hl
   235B 46                10672 	ld	b,(hl)
   235C 04                10673 	inc	b
                          10674 ;	genIpush
                          10675 ; _saveRegsForCall: sendSetSize: 0 deInUse: 0 bcInUse: 0 deSending: 0
   235D 79                10676 	ld	a,c
   235E F5                10677 	push	af
   235F 33                10678 	inc	sp
                          10679 ;	genIpush
   2360 78                10680 	ld	a,b
   2361 F5                10681 	push	af
   2362 33                10682 	inc	sp
                          10683 ;	genCall
   2363 CD 00 00          10684 	call	_set_sprite_tile
   2366 E8 02             10685 	lda	sp,2(sp)
                          10686 ;	genLabel
   2368                   10687 00103$:
                          10688 ;	src/Scene_b.c 971
                          10689 ;	genPlus
                          10690 ;	AOP_STK for _SceneRenderActors_b_ptr_1_1
                          10691 ;	genPlusIncr
                          10692 ;	Can't optimise plus by inc, falling back to the normal way
   2368 F8 03             10693 	lda	hl,3(sp)
   236A 5E                10694 	ld	e,(hl)
   236B 23                10695 	inc	hl
   236C 56                10696 	ld	d,(hl)
   236D 21 16 00          10697 	ld	hl,#0x0016
   2370 19                10698 	add	hl,de
   2371 7D                10699 	ld	a,l
   2372 54                10700 	ld	d,h
   2373 F8 03             10701 	lda	hl,3(sp)
   2375 22                10702 	ld	(hl+),a
   2376 72                10703 	ld	(hl),d
                          10704 ;	src/Scene_b.c 956
                          10705 ;	genPlus
                          10706 ;	AOP_STK for _SceneRenderActors_b_i_1_1
                          10707 ;	genPlusIncr
   2377 F8 08             10708 	lda	hl,8(sp)
   2379 34                10709 	inc	(hl)
                          10710 ;	genGoto
   237A C3 C3 22          10711 	jp	00112$
                          10712 ;	genLabel
   237D                   10713 00105$:
                          10714 ;	src/Scene_b.c 975
                          10715 ;	genAssign
                          10716 ;	AOP_STK for _SceneRenderActors_b_ptr_1_1
   237D F8 03             10717 	lda	hl,3(sp)
   237F 36 00             10718 	ld	(hl),#<_actors
   2381 23                10719 	inc	hl
   2382 36 00             10720 	ld	(hl),#>_actors
                          10721 ;	src/Scene_b.c 978
                          10722 ;	genAssign
                          10723 ;	AOP_STK for _SceneRenderActors_b_i_1_1
   2384 F8 08             10724 	lda	hl,8(sp)
   2386 36 00             10725 	ld	(hl),#0x00
                          10726 ;	genLabel
   2388                   10727 00116$:
                          10728 ;	genCmpEq
                          10729 ;	AOP_STK for _SceneRenderActors_b_i_1_1
                          10730 ;	AOP_HL for _scene_num_actors
                          10731 ; genCmpEq: left 1, right 1, result 0
   2388 21 11 00          10732 	ld	hl,#_scene_num_actors
   238B 7E                10733 	ld	a,(hl)
   238C F8 08             10734 	lda	hl,8(sp)
   238E BE                10735 	cp	(hl)
   238F 20 03             10736 	jr	nz,00134$
   2391 C3 6C 24          10737 	jp	00120$
   2394                   10738 00134$:
                          10739 ;	src/Scene_b.c 980
                          10740 ;	genLeftShift
                          10741 ;	AOP_STK for _SceneRenderActors_b_i_1_1
   2394 F8 08             10742 	lda	hl,8(sp)
   2396 7E                10743 	ld	a,(hl)
   2397 87                10744 	add	a,a
                          10745 ;	genPlus
                          10746 ;	AOP_STK for _SceneRenderActors_b_s_1_1
                          10747 ;	genPlusIncr
                          10748 ;	Can't optimise plus by inc, falling back to the normal way
   2398 4F                10749 	ld	c,a
   2399 C6 02             10750 	add	a,#0x02
   239B 2B                10751 	dec	hl
   239C 77                10752 	ld	(hl),a
                          10753 ;	src/Scene_b.c 981
                          10754 ;	genPlus
                          10755 ;	AOP_STK for _SceneRenderActors_b_ptr_1_1
                          10756 ;	genPlusIncr
   239D F8 03             10757 	lda	hl,3(sp)
   239F 4E                10758 	ld	c,(hl)
   23A0 23                10759 	inc	hl
   23A1 46                10760 	ld	b,(hl)
   23A2 03                10761 	inc	bc
                          10762 ;	genPointerGet
   23A3 0A                10763 	ld	a,(bc)
   23A4 4F                10764 	ld	c,a
                          10765 ;	genAssign
                          10766 ;	AOP_STK for _SceneRenderActors_b_sloc0_1_0
   23A5 F8 01             10767 	lda	hl,1(sp)
   23A7 36 43             10768 	ld	(hl),#0x43
   23A9 23                10769 	inc	hl
   23AA 36 FF             10770 	ld	(hl),#0xFF
                          10771 ;	genPointerGet
                          10772 ;	AOP_STK for _SceneRenderActors_b_sloc0_1_0
   23AC 2B                10773 	dec	hl
   23AD 5E                10774 	ld	e,(hl)
   23AE 23                10775 	inc	hl
   23AF 56                10776 	ld	d,(hl)
   23B0 1A                10777 	ld	a,(de)
   23B1 47                10778 	ld	b,a
                          10779 ;	genMinus
   23B2 79                10780 	ld	a,c
   23B3 90                10781 	sub	a,b
   23B4 4F                10782 	ld	c,a
                          10783 ;	genAssign
                          10784 ;	AOP_STK for _SceneRenderActors_b_x_1_1
   23B5 F8 06             10785 	lda	hl,6(sp)
   23B7 71                10786 	ld	(hl),c
                          10787 ;	src/Scene_b.c 982
                          10788 ;	genPlus
                          10789 ;	AOP_STK for _SceneRenderActors_b_ptr_1_1
                          10790 ;	genPlusIncr
   23B8 F8 03             10791 	lda	hl,3(sp)
   23BA 4E                10792 	ld	c,(hl)
   23BB 23                10793 	inc	hl
   23BC 46                10794 	ld	b,(hl)
   23BD 03                10795 	inc	bc
   23BE 03                10796 	inc	bc
                          10797 ;	genPointerGet
   23BF 0A                10798 	ld	a,(bc)
   23C0 4F                10799 	ld	c,a
                          10800 ;	genAssign
                          10801 ;	AOP_STK for _SceneRenderActors_b_sloc0_1_0
   23C1 F8 01             10802 	lda	hl,1(sp)
   23C3 36 42             10803 	ld	(hl),#0x42
   23C5 23                10804 	inc	hl
   23C6 36 FF             10805 	ld	(hl),#0xFF
                          10806 ;	genPointerGet
                          10807 ;	AOP_STK for _SceneRenderActors_b_sloc0_1_0
   23C8 2B                10808 	dec	hl
   23C9 5E                10809 	ld	e,(hl)
   23CA 23                10810 	inc	hl
   23CB 56                10811 	ld	d,(hl)
   23CC 1A                10812 	ld	a,(de)
   23CD 47                10813 	ld	b,a
                          10814 ;	genMinus
   23CE 79                10815 	ld	a,c
   23CF 90                10816 	sub	a,b
   23D0 4F                10817 	ld	c,a
                          10818 ;	genAssign
                          10819 ;	AOP_STK for _SceneRenderActors_b_y_1_1
   23D1 F8 05             10820 	lda	hl,5(sp)
   23D3 71                10821 	ld	(hl),c
                          10822 ;	src/Scene_b.c 984
                          10823 ;	genPlus
                          10824 ;	AOP_STK for _SceneRenderActors_b_ptr_1_1
                          10825 ;	genPlusIncr
                          10826 ;	Can't optimise plus by inc, falling back to the normal way
   23D4 2B                10827 	dec	hl
   23D5 2B                10828 	dec	hl
   23D6 5E                10829 	ld	e,(hl)
   23D7 23                10830 	inc	hl
   23D8 56                10831 	ld	d,(hl)
   23D9 21 09 00          10832 	ld	hl,#0x0009
   23DC 19                10833 	add	hl,de
   23DD 45                10834 	ld	b,l
   23DE 4C                10835 	ld	c,h
                          10836 ;	genPointerGet
   23DF 58                10837 	ld	e,b
   23E0 51                10838 	ld	d,c
   23E1 1A                10839 	ld	a,(de)
                          10840 ;	genIfx
   23E2 B7                10841 	or	a,a
   23E3 CA 39 24          10842 	jp	z,00107$
                          10843 ;	genCmpEq
                          10844 ;	AOP_HL for _win_pos_y
                          10845 ; genCmpEq: left 1, right 1, result 0
   23E6 21 00 00          10846 	ld	hl,#_win_pos_y
   23E9 7E                10847 	ld	a,(hl)
   23EA FE 90             10848 	cp	a,#0x90
   23EC CA 0B 24          10849 	jp	z,00106$
   23EF                   10850 00135$:
                          10851 ;	genPlus
                          10852 ;	AOP_HL for _win_pos_y
                          10853 ;	genPlusIncr
                          10854 ;	Can't optimise plus by inc, falling back to the normal way
   23EF 21 00 00          10855 	ld	hl,#_win_pos_y
   23F2 7E                10856 	ld	a,(hl)
   23F3 C6 10             10857 	add	a,#0x10
   23F5 4F                10858 	ld	c,a
                          10859 ;	genCmpLt
                          10860 ;	AOP_STK for _SceneRenderActors_b_y_1_1
   23F6 F8 05             10861 	lda	hl,5(sp)
   23F8 7E                10862 	ld	a,(hl)
   23F9 91                10863 	sub	a,c
   23FA DA 0B 24          10864 	jp	c,00106$
                          10865 ;	genPlus
                          10866 ;	AOP_HL for _win_pos_x
                          10867 ;	genPlusIncr
                          10868 ;	Can't optimise plus by inc, falling back to the normal way
   23FD 21 00 00          10869 	ld	hl,#_win_pos_x
   2400 7E                10870 	ld	a,(hl)
   2401 C6 08             10871 	add	a,#0x08
   2403 4F                10872 	ld	c,a
                          10873 ;	genCmpLt
                          10874 ;	AOP_STK for _SceneRenderActors_b_x_1_1
   2404 F8 06             10875 	lda	hl,6(sp)
   2406 7E                10876 	ld	a,(hl)
   2407 91                10877 	sub	a,c
   2408 D2 39 24          10878 	jp	nc,00107$
                          10879 ;	genLabel
   240B                   10880 00106$:
                          10881 ;	src/Scene_b.c 986
                          10882 ;	genIpush
                          10883 ; _saveRegsForCall: sendSetSize: 0 deInUse: 0 bcInUse: 0 deSending: 0
                          10884 ;	AOP_STK for _SceneRenderActors_b_y_1_1
   240B F8 05             10885 	lda	hl,5(sp)
   240D 7E                10886 	ld	a,(hl)
   240E F5                10887 	push	af
   240F 33                10888 	inc	sp
                          10889 ;	genIpush
                          10890 ;	AOP_STK for _SceneRenderActors_b_x_1_1
   2410 23                10891 	inc	hl
   2411 7E                10892 	ld	a,(hl)
   2412 F5                10893 	push	af
   2413 33                10894 	inc	sp
                          10895 ;	genIpush
                          10896 ;	AOP_STK for _SceneRenderActors_b_s_1_1
   2414 23                10897 	inc	hl
   2415 7E                10898 	ld	a,(hl)
   2416 F5                10899 	push	af
   2417 33                10900 	inc	sp
                          10901 ;	genCall
   2418 CD 00 00          10902 	call	_move_sprite
   241B E8 03             10903 	lda	sp,3(sp)
                          10904 ;	src/Scene_b.c 987
                          10905 ;	genPlus
                          10906 ;	AOP_STK for _SceneRenderActors_b_x_1_1
                          10907 ;	genPlusIncr
                          10908 ;	Can't optimise plus by inc, falling back to the normal way
   241D F8 06             10909 	lda	hl,6(sp)
   241F 7E                10910 	ld	a,(hl)
   2420 C6 08             10911 	add	a,#0x08
   2422 4F                10912 	ld	c,a
                          10913 ;	genPlus
                          10914 ;	AOP_STK for _SceneRenderActors_b_s_1_1
                          10915 ;	genPlusIncr
   2423 23                10916 	inc	hl
   2424 46                10917 	ld	b,(hl)
   2425 04                10918 	inc	b
                          10919 ;	genIpush
                          10920 ; _saveRegsForCall: sendSetSize: 0 deInUse: 0 bcInUse: 0 deSending: 0
                          10921 ;	AOP_STK for _SceneRenderActors_b_y_1_1
   2426 2B                10922 	dec	hl
   2427 2B                10923 	dec	hl
   2428 7E                10924 	ld	a,(hl)
   2429 F5                10925 	push	af
   242A 33                10926 	inc	sp
                          10927 ;	genIpush
   242B 79                10928 	ld	a,c
   242C F5                10929 	push	af
   242D 33                10930 	inc	sp
                          10931 ;	genIpush
   242E 78                10932 	ld	a,b
   242F F5                10933 	push	af
   2430 33                10934 	inc	sp
                          10935 ;	genCall
   2431 CD 00 00          10936 	call	_move_sprite
   2434 E8 03             10937 	lda	sp,3(sp)
                          10938 ;	genGoto
   2436 C3 57 24          10939 	jp	00108$
                          10940 ;	genLabel
   2439                   10941 00107$:
                          10942 ;	src/Scene_b.c 991
                          10943 ;	genIpush
                          10944 ; _saveRegsForCall: sendSetSize: 0 deInUse: 0 bcInUse: 0 deSending: 0
   2439 21 00 00          10945 	ld	hl,#0x0000
   243C E5                10946 	push	hl
                          10947 ;	genIpush
                          10948 ;	AOP_STK for _SceneRenderActors_b_s_1_1
   243D F8 09             10949 	lda	hl,9(sp)
   243F 7E                10950 	ld	a,(hl)
   2440 F5                10951 	push	af
   2441 33                10952 	inc	sp
                          10953 ;	genCall
   2442 CD 00 00          10954 	call	_move_sprite
   2445 E8 03             10955 	lda	sp,3(sp)
                          10956 ;	src/Scene_b.c 992
                          10957 ;	genPlus
                          10958 ;	AOP_STK for _SceneRenderActors_b_s_1_1
                          10959 ;	genPlusIncr
   2447 F8 07             10960 	lda	hl,7(sp)
   2449 4E                10961 	ld	c,(hl)
   244A 0C                10962 	inc	c
                          10963 ;	genIpush
                          10964 ; _saveRegsForCall: sendSetSize: 0 deInUse: 0 bcInUse: 0 deSending: 0
   244B 21 00 00          10965 	ld	hl,#0x0000
   244E E5                10966 	push	hl
                          10967 ;	genIpush
   244F 79                10968 	ld	a,c
   2450 F5                10969 	push	af
   2451 33                10970 	inc	sp
                          10971 ;	genCall
   2452 CD 00 00          10972 	call	_move_sprite
   2455 E8 03             10973 	lda	sp,3(sp)
                          10974 ;	genLabel
   2457                   10975 00108$:
                          10976 ;	src/Scene_b.c 994
                          10977 ;	genPlus
                          10978 ;	AOP_STK for _SceneRenderActors_b_ptr_1_1
                          10979 ;	genPlusIncr
                          10980 ;	Can't optimise plus by inc, falling back to the normal way
   2457 F8 03             10981 	lda	hl,3(sp)
   2459 5E                10982 	ld	e,(hl)
   245A 23                10983 	inc	hl
   245B 56                10984 	ld	d,(hl)
   245C 21 16 00          10985 	ld	hl,#0x0016
   245F 19                10986 	add	hl,de
   2460 7D                10987 	ld	a,l
   2461 54                10988 	ld	d,h
   2462 F8 03             10989 	lda	hl,3(sp)
   2464 22                10990 	ld	(hl+),a
   2465 72                10991 	ld	(hl),d
                          10992 ;	src/Scene_b.c 978
                          10993 ;	genPlus
                          10994 ;	AOP_STK for _SceneRenderActors_b_i_1_1
                          10995 ;	genPlusIncr
   2466 F8 08             10996 	lda	hl,8(sp)
   2468 34                10997 	inc	(hl)
                          10998 ;	genGoto
   2469 C3 88 23          10999 	jp	00116$
                          11000 ;	genLabel
   246C                   11001 00120$:
                          11002 ;	genEndFunction
   246C E8 09             11003 	lda	sp,9(sp)
   246E C9                11004 	ret
   246F                   11005 ___SceneRenderActors_b_end:
                          11006 ;	src/Scene_b.c 998
                          11007 ;	genLabel
                          11008 ;	genFunction
                          11009 ;	---------------------------------
                          11010 ; Function SceneRenderActor_b
                          11011 ; ---------------------------------
   246F                   11012 ___SceneRenderActor_b_start:
   246F                   11013 _SceneRenderActor_b:
   246F E8 F4             11014 	lda	sp,-12(sp)
                          11015 ;	src/Scene_b.c 1002
                          11016 ;	genLeftShift
                          11017 ;	AOP_STK for 
   2471 F8 0E             11018 	lda	hl,14(sp)
   2473 7E                11019 	ld	a,(hl)
   2474 87                11020 	add	a,a
                          11021 ;	genPlus
                          11022 ;	AOP_STK for _SceneRenderActor_b_s_1_1
                          11023 ;	genPlusIncr
                          11024 ;	Can't optimise plus by inc, falling back to the normal way
   2475 4F                11025 	ld	c,a
   2476 C6 02             11026 	add	a,#0x02
   2478 F8 0B             11027 	lda	hl,11(sp)
   247A 77                11028 	ld	(hl),a
                          11029 ;	src/Scene_b.c 1003
                          11030 ;	genAssign
                          11031 ;	AOP_STK for _SceneRenderActor_b_fo_1_1
   247B F8 08             11032 	lda	hl,8(sp)
   247D 36 00             11033 	ld	(hl),#0x00
                          11034 ;	src/Scene_b.c 1005
                          11035 ;	genMult
                          11036 ;	AOP_STK for 
   247F F8 0E             11037 	lda	hl,14(sp)
   2481 5E                11038 	ld	e,(hl)
   2482 16 00             11039 	ld	d,#0x00
   2484 6B                11040 	ld	l,e
   2485 62                11041 	ld	h,d
   2486 29                11042 	add	hl,hl
   2487 29                11043 	add	hl,hl
   2488 19                11044 	add	hl,de
   2489 29                11045 	add	hl,hl
   248A 19                11046 	add	hl,de
   248B 29                11047 	add	hl,hl
   248C 45                11048 	ld	b,l
   248D 4C                11049 	ld	c,h
                          11050 ;	genPlus
                          11051 ;	Can't optimise plus by inc, falling back to the normal way
   248E 3E 00             11052 	ld	a,#<_actors
   2490 80                11053 	add	a,b
   2491 47                11054 	ld	b,a
   2492 3E 00             11055 	ld	a,#>_actors
   2494 89                11056 	adc	a,c
   2495 4F                11057 	ld	c,a
                          11058 ;	genPlus
                          11059 ;	AOP_STK for _SceneRenderActor_b_sloc0_1_0
                          11060 ;	genPlusIncr
                          11061 ;	Can't optimise plus by inc, falling back to the normal way
   2496 58                11062 	ld	e,b
   2497 51                11063 	ld	d,c
   2498 21 0A 00          11064 	ld	hl,#0x000A
   249B 19                11065 	add	hl,de
   249C 7D                11066 	ld	a,l
   249D 54                11067 	ld	d,h
   249E F8 06             11068 	lda	hl,6(sp)
                          11069 ;	genPointerGet
                          11070 ;	AOP_STK for _SceneRenderActor_b_sloc0_1_0
                          11071 ;	AOP_STK for _SceneRenderActor_b_sloc1_1_0
   24A0 22                11072 	ld	(hl+),a
   24A1 72                11073 	ld	(hl),d
   24A2 5F                11074 	ld	e,a
   24A3 1A                11075 	ld	a,(de)
   24A4 2B                11076 	dec	hl
   24A5 2B                11077 	dec	hl
                          11078 ;	genAssign
                          11079 ;	AOP_STK for _SceneRenderActor_b_sloc1_1_0
                          11080 ;	AOP_STK for _SceneRenderActor_b_flip_1_1
   24A6 77                11081 	ld      (hl),a
                          11082 ; Removed redundent load
   24A7 F8 0A             11083 	lda	hl,10(sp)
   24A9 77                11084 	ld	(hl),a
                          11085 ;	src/Scene_b.c 1007
                          11086 ;	genPlus
                          11087 ;	AOP_STK for _SceneRenderActor_b_sloc2_1_0
                          11088 ;	genPlusIncr
                          11089 ;	Can't optimise plus by inc, falling back to the normal way
   24AA 58                11090 	ld	e,b
   24AB 51                11091 	ld	d,c
   24AC 21 0F 00          11092 	ld	hl,#0x000F
   24AF 19                11093 	add	hl,de
   24B0 7D                11094 	ld	a,l
   24B1 54                11095 	ld	d,h
   24B2 F8 03             11096 	lda	hl,3(sp)
                          11097 ;	genPointerGet
                          11098 ;	AOP_STK for _SceneRenderActor_b_sloc2_1_0
                          11099 ;	AOP_STK for _SceneRenderActor_b_sloc1_1_0
   24B4 22                11100 	ld	(hl+),a
   24B5 72                11101 	ld	(hl),d
   24B6 5F                11102 	ld	e,a
   24B7 1A                11103 	ld	a,(de)
   24B8 23                11104 	inc	hl
                          11105 ;	genCmpEq
                          11106 ;	AOP_STK for _SceneRenderActor_b_sloc1_1_0
                          11107 ; genCmpEq: left 1, right 1, result 0
   24B9 77                11108 	ld      (hl),a
                          11109 ; Removed redundent load
   24BA B7                11110 	or	a,a
   24BB CA 4A 25          11111 	jp	z,00110$
   24BE                   11112 00121$:
                          11113 ;	src/Scene_b.c 1009
                          11114 ;	genAssign
                          11115 ;	AOP_STK for _SceneRenderActor_b_flip_1_1
   24BE F8 0A             11116 	lda	hl,10(sp)
   24C0 36 00             11117 	ld	(hl),#0x00
                          11118 ;	src/Scene_b.c 1012
                          11119 ;	genPlus
                          11120 ;	AOP_STK for _SceneRenderActor_b_sloc2_1_0
                          11121 ;	genPlusIncr
                          11122 ;	Can't optimise plus by inc, falling back to the normal way
   24C2 58                11123 	ld	e,b
   24C3 51                11124 	ld	d,c
   24C4 21 03 00          11125 	ld	hl,#0x0003
   24C7 19                11126 	add	hl,de
   24C8 7D                11127 	ld	a,l
   24C9 54                11128 	ld	d,h
   24CA F8 03             11129 	lda	hl,3(sp)
   24CC 22                11130 	ld	(hl+),a
   24CD 72                11131 	ld	(hl),d
                          11132 ;	genPlus
                          11133 ;	AOP_STK for _SceneRenderActor_b_sloc3_1_0
                          11134 ;	genPlusIncr
                          11135 ;	Can't optimise plus by inc, falling back to the normal way
   24CE 58                11136 	ld	e,b
   24CF 51                11137 	ld	d,c
   24D0 21 04 00          11138 	ld	hl,#0x0004
   24D3 19                11139 	add	hl,de
   24D4 7D                11140 	ld	a,l
   24D5 54                11141 	ld	d,h
   24D6 F8 01             11142 	lda	hl,1(sp)
                          11143 ;	genPointerGet
                          11144 ;	AOP_STK for _SceneRenderActor_b_sloc3_1_0
                          11145 ;	AOP_STK for _SceneRenderActor_b_sloc4_1_0
   24D8 22                11146 	ld	(hl+),a
   24D9 72                11147 	ld	(hl),d
   24DA 5F                11148 	ld	e,a
   24DB 1A                11149 	ld	a,(de)
   24DC 2B                11150 	dec	hl
   24DD 2B                11151 	dec	hl
                          11152 ;	genAnd
                          11153 ;	AOP_STK for _SceneRenderActor_b_sloc4_1_0
   24DE 77                11154 	ld      (hl),a
                          11155 ; Removed redundent load
   24DF E6 80             11156 	and	a,#0x80
   24E1 20 03             11157 	jr	nz,00122$
   24E3 C3 FE 24          11158 	jp	00107$
   24E6                   11159 00122$:
                          11160 ;	src/Scene_b.c 1014
                          11161 ;	genCmpEq
                          11162 ;	AOP_STK for _SceneRenderActor_b_sloc1_1_0
                          11163 ;	AOP_STK for _SceneRenderActor_b_sloc4_1_0
                          11164 ; genCmpEq: left 1, right 1, result 1
   24E6 F8 05             11165 	lda	hl,5(sp)
   24E8 7E                11166 	ld	a,(hl)
   24E9 FE 02             11167 	cp	a,#0x02
   24EB C2 F2 24          11168 	jp	nz,00123$
   24EE 3E 01             11169 	ld	a,#0x01
   24F0 18 01             11170 	jr	00124$
   24F2                   11171 00123$:
   24F2 AF                11172 	xor	a,a
   24F3                   11173 00124$:
   24F3 F8 00             11174 	lda	hl,0(sp)
                          11175 ;	genPlus
                          11176 ;	AOP_STK for _SceneRenderActor_b_sloc4_1_0
                          11177 ;	AOP_STK for _SceneRenderActor_b_fo_1_1
                          11178 ;	genPlusIncr
                          11179 ;	Can't optimise plus by inc, falling back to the normal way
   24F5 77                11180 	ld      (hl),a
                          11181 ; Removed redundent load
   24F6 C6 01             11182 	add	a,#0x01
   24F8 F8 08             11183 	lda	hl,8(sp)
   24FA 77                11184 	ld	(hl),a
                          11185 ;	genGoto
   24FB C3 3A 25          11186 	jp	00108$
                          11187 ;	genLabel
   24FE                   11188 00107$:
                          11189 ;	src/Scene_b.c 1016
                          11190 ;	genPointerGet
                          11191 ;	AOP_STK for _SceneRenderActor_b_sloc2_1_0
                          11192 ;	AOP_STK for _SceneRenderActor_b_sloc4_1_0
   24FE F8 03             11193 	lda	hl,3(sp)
   2500 5E                11194 	ld	e,(hl)
   2501 23                11195 	inc	hl
   2502 56                11196 	ld	d,(hl)
   2503 1A                11197 	ld	a,(de)
   2504 F8 00             11198 	lda	hl,0(sp)
                          11199 ;	genCmpEq
                          11200 ;	AOP_STK for _SceneRenderActor_b_sloc4_1_0
                          11201 ; genCmpEq: left 1, right 1, result 0
   2506 77                11202 	ld      (hl),a
                          11203 ; Removed redundent load
   2507 B7                11204 	or	a,a
   2508 CA 36 25          11205 	jp	z,00104$
   250B                   11206 00125$:
                          11207 ;	src/Scene_b.c 1018
                          11208 ;	genCmpEq
                          11209 ;	AOP_STK for _SceneRenderActor_b_sloc1_1_0
                          11210 ;	AOP_STK for _SceneRenderActor_b_sloc3_1_0
                          11211 ; genCmpEq: left 1, right 1, result 1
   250B F8 05             11212 	lda	hl,5(sp)
   250D 7E                11213 	ld	a,(hl)
   250E FE 02             11214 	cp	a,#0x02
   2510 C2 17 25          11215 	jp	nz,00126$
   2513 3E 01             11216 	ld	a,#0x01
   2515 18 01             11217 	jr	00127$
   2517                   11218 00126$:
   2517 AF                11219 	xor	a,a
   2518                   11220 00127$:
   2518 F8 01             11221 	lda	hl,1(sp)
                          11222 ;	genLeftShift
                          11223 ;	AOP_STK for _SceneRenderActor_b_sloc3_1_0
                          11224 ;	AOP_STK for _SceneRenderActor_b_sloc2_1_0
   251A 77                11225 	ld      (hl),a
                          11226 ; Removed redundent load
   251B 87                11227 	add	a,a
   251C 23                11228 	inc	hl
   251D 23                11229 	inc	hl
                          11230 ;	genPlus
                          11231 ;	AOP_STK for _SceneRenderActor_b_sloc2_1_0
                          11232 ;	AOP_STK for _SceneRenderActor_b_fo_1_1
                          11233 ;	genPlusIncr
                          11234 ;	Can't optimise plus by inc, falling back to the normal way
   251E 77                11235 	ld      (hl),a
                          11236 ; Removed redundent load
   251F C6 02             11237 	add	a,#0x02
   2521 F8 08             11238 	lda	hl,8(sp)
   2523 77                11239 	ld	(hl),a
                          11240 ;	src/Scene_b.c 1021
                          11241 ;	genAssign
                          11242 ;	AOP_STK for _SceneRenderActor_b_sloc4_1_0
                          11243 ;	AOP_STK for _SceneRenderActor_b_sloc3_1_0
   2524 F8 00             11244 	lda	hl,0(sp)
   2526 2A                11245 	ld	a,(hl+)
                          11246 ;	genAnd
                          11247 ;	AOP_STK for _SceneRenderActor_b_sloc3_1_0
   2527 77                11248 	ld      (hl),a
                          11249 ; Removed redundent load
   2528 E6 80             11250 	and	a,#0x80
   252A 20 03             11251 	jr	nz,00128$
   252C C3 3A 25          11252 	jp	00108$
   252F                   11253 00128$:
                          11254 ;	src/Scene_b.c 1023
                          11255 ;	genAssign
                          11256 ;	AOP_STK for _SceneRenderActor_b_flip_1_1
   252F F8 0A             11257 	lda	hl,10(sp)
   2531 36 01             11258 	ld	(hl),#0x01
                          11259 ;	genGoto
   2533 C3 3A 25          11260 	jp	00108$
                          11261 ;	genLabel
   2536                   11262 00104$:
                          11263 ;	src/Scene_b.c 1028
                          11264 ;	genAssign
                          11265 ;	AOP_STK for _SceneRenderActor_b_fo_1_1
   2536 F8 08             11266 	lda	hl,8(sp)
   2538 36 00             11267 	ld	(hl),#0x00
                          11268 ;	genLabel
   253A                   11269 00108$:
                          11270 ;	src/Scene_b.c 1031
                          11271 ;	genAssign (pointer)
                          11272 ;	AOP_STK for _SceneRenderActor_b_sloc0_1_0
   253A F8 06             11273 	lda	hl,6(sp)
   253C 5E                11274 	ld	e,(hl)
   253D 23                11275 	inc	hl
   253E 56                11276 	ld	d,(hl)
   253F 3E 00             11277 	ld	a,#0x00
   2541 12                11278 	ld	(de),a
                          11279 ;	src/Scene_b.c 1032
                          11280 ;	genAssign (pointer)
                          11281 ;	AOP_STK for _SceneRenderActor_b_sloc0_1_0
                          11282 ;	AOP_STK for _SceneRenderActor_b_flip_1_1
   2542 2B                11283 	dec	hl
   2543 5E                11284 	ld	e,(hl)
   2544 23                11285 	inc	hl
   2545 56                11286 	ld	d,(hl)
   2546 F8 0A             11287 	lda	hl,10(sp)
   2548 7E                11288 	ld	a,(hl)
   2549 12                11289 	ld	(de),a
                          11290 ;	genLabel
   254A                   11291 00110$:
                          11292 ;	src/Scene_b.c 1035
                          11293 ;	genPointerGet
                          11294 ;	AOP_STK for _SceneRenderActor_b_sloc4_1_0
   254A 58                11295 	ld	e,b
   254B 51                11296 	ld	d,c
   254C 1A                11297 	ld	a,(de)
   254D F8 00             11298 	lda	hl,0(sp)
   254F 77                11299 	ld	(hl),a
                          11300 ;	genPlus
                          11301 ;	AOP_STK for _SceneRenderActor_b_sloc3_1_0
                          11302 ;	genPlusIncr
                          11303 ;	Can't optimise plus by inc, falling back to the normal way
   2550 58                11304 	ld	e,b
   2551 51                11305 	ld	d,c
   2552 21 06 00          11306 	ld	hl,#0x0006
   2555 19                11307 	add	hl,de
   2556 7D                11308 	ld	a,l
   2557 54                11309 	ld	d,h
   2558 F8 01             11310 	lda	hl,1(sp)
                          11311 ;	genPointerGet
                          11312 ;	AOP_STK for _SceneRenderActor_b_sloc3_1_0
                          11313 ;	AOP_STK for _SceneRenderActor_b_sloc2_1_0
   255A 22                11314 	ld	(hl+),a
   255B 72                11315 	ld	(hl),d
   255C 5F                11316 	ld	e,a
   255D 1A                11317 	ld	a,(de)
   255E 23                11318 	inc	hl
   255F 77                11319 	ld	(hl),a
                          11320 ;	genPlus
                          11321 ;	AOP_STK for _SceneRenderActor_b_sloc4_1_0
                          11322 ;	AOP_STK for _SceneRenderActor_b_sloc2_1_0
                          11323 ;	AOP_STK for _SceneRenderActor_b_sloc3_1_0
                          11324 ;	Can't optimise plus by inc, falling back to the normal way
   2560 F8 00             11325 	lda	hl,0(sp)
   2562 7E                11326 	ld	a,(hl)
   2563 F8 03             11327 	lda	hl,3(sp)
   2565 86                11328 	add	a,(hl)
   2566 2B                11329 	dec	hl
   2567 2B                11330 	dec	hl
                          11331 ;	genPlus
                          11332 ;	AOP_STK for _SceneRenderActor_b_sloc3_1_0
                          11333 ;	AOP_STK for _SceneRenderActor_b_fo_1_1
                          11334 ;	AOP_STK for _SceneRenderActor_b_sloc4_1_0
                          11335 ;	Can't optimise plus by inc, falling back to the normal way
   2568 77                11336 	ld      (hl),a
                          11337 ; Removed redundent load
   2569 F8 08             11338 	lda	hl,8(sp)
   256B 86                11339 	add	a,(hl)
   256C F8 00             11340 	lda	hl,0(sp)
                          11341 ;	genLeftShift
                          11342 ;	AOP_STK for _SceneRenderActor_b_sloc4_1_0
                          11343 ;	AOP_STK for _SceneRenderActor_b_frame_1_1
   256E 77                11344 	ld      (hl),a
                          11345 ; Removed redundent load
   256F 87                11346 	add	a,a
   2570 87                11347 	add	a,a
   2571 F8 09             11348 	lda	hl,9(sp)
   2573 77                11349 	ld	(hl),a
                          11350 ;	src/Scene_b.c 1037
                          11351 ;	genIfx
                          11352 ;	AOP_STK for _SceneRenderActor_b_flip_1_1
   2574 AF                11353 	xor	a,a
   2575 23                11354 	inc	hl
   2576 B6                11355 	or	a,(hl)
   2577 CA CA 25          11356 	jp	z,00112$
                          11357 ;	src/Scene_b.c 1040
                          11358 ;	genIpush
                          11359 ; _saveRegsForCall: sendSetSize: 0 deInUse: 0 bcInUse: 1 deSending: 0
   257A C5                11360 	push	bc
   257B 3E 20             11361 	ld	a,#0x20
   257D F5                11362 	push	af
   257E 33                11363 	inc	sp
                          11364 ;	genIpush
                          11365 ;	AOP_STK for _SceneRenderActor_b_s_1_1
   257F 23                11366 	inc	hl
   2580 7E                11367 	ld	a,(hl)
   2581 F5                11368 	push	af
   2582 33                11369 	inc	sp
                          11370 ;	genCall
   2583 CD 00 00          11371 	call	_set_sprite_prop
   2586 E8 02             11372 	lda	sp,2(sp)
   2588 C1                11373 	pop	bc
                          11374 ;	genPlus
                          11375 ;	AOP_STK for _SceneRenderActor_b_s_1_1
                          11376 ;	AOP_STK for _SceneRenderActor_b_sloc4_1_0
                          11377 ;	genPlusIncr
                          11378 ;	Can't optimise plus by inc, falling back to the normal way
   2589 F8 0B             11379 	lda	hl,11(sp)
   258B 7E                11380 	ld	a,(hl)
   258C C6 01             11381 	add	a,#0x01
   258E F8 00             11382 	lda	hl,0(sp)
   2590 77                11383 	ld	(hl),a
                          11384 ;	genIpush
                          11385 ; _saveRegsForCall: sendSetSize: 0 deInUse: 0 bcInUse: 1 deSending: 0
   2591 C5                11386 	push	bc
   2592 3E 20             11387 	ld	a,#0x20
   2594 F5                11388 	push	af
   2595 33                11389 	inc	sp
                          11390 ;	genIpush
                          11391 ;	AOP_STK for _SceneRenderActor_b_sloc4_1_0
   2596 7E                11392 	ld	a,(hl)
   2597 F5                11393 	push	af
   2598 33                11394 	inc	sp
                          11395 ;	genCall
   2599 CD 00 00          11396 	call	_set_sprite_prop
   259C E8 02             11397 	lda	sp,2(sp)
   259E C1                11398 	pop	bc
                          11399 ;	src/Scene_b.c 1041
                          11400 ;	genPlus
                          11401 ;	AOP_STK for _SceneRenderActor_b_frame_1_1
                          11402 ;	AOP_STK for _SceneRenderActor_b_sloc3_1_0
                          11403 ;	genPlusIncr
                          11404 ;	Can't optimise plus by inc, falling back to the normal way
   259F F8 09             11405 	lda	hl,9(sp)
   25A1 7E                11406 	ld	a,(hl)
   25A2 C6 02             11407 	add	a,#0x02
   25A4 F8 01             11408 	lda	hl,1(sp)
   25A6 77                11409 	ld	(hl),a
                          11410 ;	genIpush
                          11411 ; _saveRegsForCall: sendSetSize: 0 deInUse: 0 bcInUse: 1 deSending: 0
   25A7 C5                11412 	push	bc
                          11413 ;	AOP_STK for _SceneRenderActor_b_sloc3_1_0
   25A8 7E                11414 	ld	a,(hl)
   25A9 F5                11415 	push	af
   25AA 33                11416 	inc	sp
                          11417 ;	genIpush
                          11418 ;	AOP_STK for _SceneRenderActor_b_s_1_1
   25AB F8 0E             11419 	lda	hl,14(sp)
   25AD 7E                11420 	ld	a,(hl)
   25AE F5                11421 	push	af
   25AF 33                11422 	inc	sp
                          11423 ;	genCall
   25B0 CD 00 00          11424 	call	_set_sprite_tile
   25B3 E8 02             11425 	lda	sp,2(sp)
   25B5 C1                11426 	pop	bc
                          11427 ;	genIpush
                          11428 ; _saveRegsForCall: sendSetSize: 0 deInUse: 0 bcInUse: 1 deSending: 0
   25B6 C5                11429 	push	bc
                          11430 ;	AOP_STK for _SceneRenderActor_b_frame_1_1
   25B7 F8 0B             11431 	lda	hl,11(sp)
   25B9 7E                11432 	ld	a,(hl)
   25BA F5                11433 	push	af
   25BB 33                11434 	inc	sp
                          11435 ;	genIpush
                          11436 ;	AOP_STK for _SceneRenderActor_b_sloc4_1_0
   25BC F8 03             11437 	lda	hl,3(sp)
   25BE 7E                11438 	ld	a,(hl)
   25BF F5                11439 	push	af
   25C0 33                11440 	inc	sp
                          11441 ;	genCall
   25C1 CD 00 00          11442 	call	_set_sprite_tile
   25C4 E8 02             11443 	lda	sp,2(sp)
   25C6 C1                11444 	pop	bc
                          11445 ;	genGoto
   25C7 C3 17 26          11446 	jp	00113$
                          11447 ;	genLabel
   25CA                   11448 00112$:
                          11449 ;	src/Scene_b.c 1046
                          11450 ;	genIpush
                          11451 ; _saveRegsForCall: sendSetSize: 0 deInUse: 0 bcInUse: 1 deSending: 0
   25CA C5                11452 	push	bc
   25CB 3E 00             11453 	ld	a,#0x00
   25CD F5                11454 	push	af
   25CE 33                11455 	inc	sp
                          11456 ;	genIpush
                          11457 ;	AOP_STK for _SceneRenderActor_b_s_1_1
   25CF F8 0E             11458 	lda	hl,14(sp)
   25D1 7E                11459 	ld	a,(hl)
   25D2 F5                11460 	push	af
   25D3 33                11461 	inc	sp
                          11462 ;	genCall
   25D4 CD 00 00          11463 	call	_set_sprite_prop
   25D7 E8 02             11464 	lda	sp,2(sp)
   25D9 C1                11465 	pop	bc
                          11466 ;	genPlus
                          11467 ;	AOP_STK for _SceneRenderActor_b_s_1_1
                          11468 ;	AOP_STK for _SceneRenderActor_b_sloc4_1_0
                          11469 ;	genPlusIncr
                          11470 ;	Can't optimise plus by inc, falling back to the normal way
   25DA F8 0B             11471 	lda	hl,11(sp)
   25DC 7E                11472 	ld	a,(hl)
   25DD C6 01             11473 	add	a,#0x01
   25DF F8 00             11474 	lda	hl,0(sp)
   25E1 77                11475 	ld	(hl),a
                          11476 ;	genIpush
                          11477 ; _saveRegsForCall: sendSetSize: 0 deInUse: 0 bcInUse: 1 deSending: 0
   25E2 C5                11478 	push	bc
   25E3 3E 00             11479 	ld	a,#0x00
   25E5 F5                11480 	push	af
   25E6 33                11481 	inc	sp
                          11482 ;	genIpush
                          11483 ;	AOP_STK for _SceneRenderActor_b_sloc4_1_0
   25E7 7E                11484 	ld	a,(hl)
   25E8 F5                11485 	push	af
   25E9 33                11486 	inc	sp
                          11487 ;	genCall
   25EA CD 00 00          11488 	call	_set_sprite_prop
   25ED E8 02             11489 	lda	sp,2(sp)
   25EF C1                11490 	pop	bc
                          11491 ;	src/Scene_b.c 1047
                          11492 ;	genIpush
                          11493 ; _saveRegsForCall: sendSetSize: 0 deInUse: 0 bcInUse: 1 deSending: 0
   25F0 C5                11494 	push	bc
                          11495 ;	AOP_STK for _SceneRenderActor_b_frame_1_1
   25F1 F8 0B             11496 	lda	hl,11(sp)
   25F3 7E                11497 	ld	a,(hl)
   25F4 F5                11498 	push	af
   25F5 33                11499 	inc	sp
                          11500 ;	genIpush
                          11501 ;	AOP_STK for _SceneRenderActor_b_s_1_1
   25F6 23                11502 	inc	hl
   25F7 23                11503 	inc	hl
   25F8 7E                11504 	ld	a,(hl)
   25F9 F5                11505 	push	af
   25FA 33                11506 	inc	sp
                          11507 ;	genCall
   25FB CD 00 00          11508 	call	_set_sprite_tile
   25FE E8 02             11509 	lda	sp,2(sp)
   2600 C1                11510 	pop	bc
                          11511 ;	genPlus
                          11512 ;	AOP_STK for _SceneRenderActor_b_frame_1_1
                          11513 ;	AOP_STK for _SceneRenderActor_b_sloc3_1_0
                          11514 ;	genPlusIncr
                          11515 ;	Can't optimise plus by inc, falling back to the normal way
   2601 F8 09             11516 	lda	hl,9(sp)
   2603 7E                11517 	ld	a,(hl)
   2604 C6 02             11518 	add	a,#0x02
   2606 F8 01             11519 	lda	hl,1(sp)
   2608 77                11520 	ld	(hl),a
                          11521 ;	genIpush
                          11522 ; _saveRegsForCall: sendSetSize: 0 deInUse: 0 bcInUse: 1 deSending: 0
   2609 C5                11523 	push	bc
                          11524 ;	AOP_STK for _SceneRenderActor_b_sloc3_1_0
   260A 7E                11525 	ld	a,(hl)
   260B F5                11526 	push	af
   260C 33                11527 	inc	sp
                          11528 ;	genIpush
                          11529 ;	AOP_STK for _SceneRenderActor_b_sloc4_1_0
   260D 2B                11530 	dec	hl
   260E 7E                11531 	ld	a,(hl)
   260F F5                11532 	push	af
   2610 33                11533 	inc	sp
                          11534 ;	genCall
   2611 CD 00 00          11535 	call	_set_sprite_tile
   2614 E8 02             11536 	lda	sp,2(sp)
   2616 C1                11537 	pop	bc
                          11538 ;	genLabel
   2617                   11539 00113$:
                          11540 ;	src/Scene_b.c 1050
                          11541 ;	genPlus
                          11542 ;	genPlusIncr
                          11543 ;	Can't optimise plus by inc, falling back to the normal way
   2617 78                11544 	ld	a,b
   2618 C6 0B             11545 	add	a,#0x0B
   261A 47                11546 	ld	b,a
   261B 79                11547 	ld	a,c
   261C CE 00             11548 	adc	a,#0x00
   261E 4F                11549 	ld	c,a
                          11550 ;	genAssign (pointer)
   261F 58                11551 	ld	e,b
   2620 51                11552 	ld	d,c
   2621 3E 00             11553 	ld	a,#0x00
   2623 12                11554 	ld	(de),a
                          11555 ;	src/Scene_b.c 1051
                          11556 ;	genAssign (pointer)
                          11557 ;	AOP_STK for _SceneRenderActor_b_fo_1_1
   2624 58                11558 	ld	e,b
   2625 51                11559 	ld	d,c
   2626 F8 08             11560 	lda	hl,8(sp)
   2628 7E                11561 	ld	a,(hl)
   2629 12                11562 	ld	(de),a
                          11563 ;	genLabel
   262A                   11564 00114$:
                          11565 ;	genEndFunction
   262A E8 0C             11566 	lda	sp,12(sp)
   262C C9                11567 	ret
   262D                   11568 ___SceneRenderActor_b_end:
                          11569 ;	src/Scene_b.c 1054
                          11570 ;	genLabel
                          11571 ;	genFunction
                          11572 ;	---------------------------------
                          11573 ; Function SceneRenderEmoteBubble_b
                          11574 ; ---------------------------------
   262D                   11575 ___SceneRenderEmoteBubble_b_start:
   262D                   11576 _SceneRenderEmoteBubble_b:
   262D E8 F8             11577 	lda	sp,-8(sp)
                          11578 ;	src/Scene_b.c 1059
                          11579 ;	genCmpEq
                          11580 ;	AOP_HL for _emote_timer
                          11581 ; genCmpEq: left 1, right 1, result 0
   262F 21 14 00          11582 	ld	hl,#_emote_timer
   2632 7E                11583 	ld	a,(hl)
   2633 B7                11584 	or	a,a
   2634 CA E8 26          11585 	jp	z,00107$
   2637                   11586 00112$:
                          11587 ;	src/Scene_b.c 1062
                          11588 ;	genCmpEq
                          11589 ;	AOP_HL for _emote_timer
                          11590 ; genCmpEq: left 1, right 1, result 0
   2637 21 14 00          11591 	ld	hl,#_emote_timer
   263A 7E                11592 	ld	a,(hl)
   263B FE 3C             11593 	cp	a,#0x3C
   263D CA E8 26          11594 	jp	z,00107$
   2640                   11595 00113$:
                          11596 ;	src/Scene_b.c 1066
                          11597 ;	genMult
                          11598 ;	AOP_HL for _emote_actor
   2640 21 15 00          11599 	ld	hl,#_emote_actor
   2643 5E                11600 	ld	e,(hl)
   2644 16 00             11601 	ld	d,#0x00
   2646 6B                11602 	ld	l,e
   2647 62                11603 	ld	h,d
   2648 29                11604 	add	hl,hl
   2649 29                11605 	add	hl,hl
   264A 19                11606 	add	hl,de
   264B 29                11607 	add	hl,hl
   264C 19                11608 	add	hl,de
   264D 29                11609 	add	hl,hl
   264E 4D                11610 	ld	c,l
   264F 44                11611 	ld	b,h
                          11612 ;	genPlus
                          11613 ;	AOP_STK for _SceneRenderEmoteBubble_b_sloc3_1_0
                          11614 ;	Can't optimise plus by inc, falling back to the normal way
   2650 21 00 00          11615 	ld	hl,#_actors
   2653 09                11616 	add	hl,bc
   2654 7D                11617 	ld	a,l
   2655 54                11618 	ld	d,h
   2656 F8 00             11619 	lda	hl,0(sp)
   2658 22                11620 	ld	(hl+),a
   2659 72                11621 	ld	(hl),d
                          11622 ;	genPlus
                          11623 ;	AOP_STK for _SceneRenderEmoteBubble_b_sloc3_1_0
                          11624 ;	AOP_STK for _SceneRenderEmoteBubble_b_sloc0_1_0
                          11625 ;	genPlusIncr
                          11626 ;	Can't optimise plus by inc, falling back to the normal way
   265A 2B                11627 	dec	hl
   265B 5E                11628 	ld	e,(hl)
   265C 23                11629 	inc	hl
   265D 56                11630 	ld	d,(hl)
   265E 21 01 00          11631 	ld	hl,#0x0001
   2661 19                11632 	add	hl,de
   2662 7D                11633 	ld	a,l
   2663 54                11634 	ld	d,h
   2664 F8 04             11635 	lda	hl,4(sp)
                          11636 ;	genPointerGet
                          11637 ;	AOP_STK for _SceneRenderEmoteBubble_b_sloc0_1_0
                          11638 ;	AOP_STK for _SceneRenderEmoteBubble_b_sloc1_1_0
   2666 22                11639 	ld	(hl+),a
   2667 72                11640 	ld	(hl),d
   2668 5F                11641 	ld	e,a
   2669 1A                11642 	ld	a,(de)
   266A 2B                11643 	dec	hl
   266B 2B                11644 	dec	hl
                          11645 ;	genAssign
                          11646 ;	AOP_STK for _SceneRenderEmoteBubble_b_sloc0_1_0
   266C 22                11647 	ld	(hl+),a
   266D 36 43             11648 	ld	(hl),#0x43
   266F 23                11649 	inc	hl
   2670 36 FF             11650 	ld	(hl),#0xFF
                          11651 ;	genPointerGet
                          11652 ;	AOP_STK for _SceneRenderEmoteBubble_b_sloc0_1_0
                          11653 ;	AOP_STK for _SceneRenderEmoteBubble_b_sloc2_1_0
   2672 2B                11654 	dec	hl
   2673 5E                11655 	ld	e,(hl)
   2674 23                11656 	inc	hl
   2675 56                11657 	ld	d,(hl)
   2676 1A                11658 	ld	a,(de)
   2677 F8 02             11659 	lda	hl,2(sp)
                          11660 ;	genMinus
                          11661 ;	AOP_STK for _SceneRenderEmoteBubble_b_sloc1_1_0
                          11662 ;	AOP_STK for _SceneRenderEmoteBubble_b_sloc2_1_0
                          11663 ;	AOP_STK for _SceneRenderEmoteBubble_b_screen_x_1_1
   2679 22                11664 	ld	(hl+),a
   267A 7E                11665 	ld	a,(hl)
   267B 2B                11666 	dec	hl
   267C 96                11667 	sub	a,(hl)
   267D F8 07             11668 	lda	hl,7(sp)
   267F 77                11669 	ld	(hl),a
                          11670 ;	genAssign
                          11671 ;	AOP_STK for _SceneRenderEmoteBubble_b_screen_x_1_1
                          11672 ;	(registers are the same)
                          11673 ;	src/Scene_b.c 1067
                          11674 ;	genPlus
                          11675 ;	AOP_STK for _SceneRenderEmoteBubble_b_sloc3_1_0
                          11676 ;	genPlusIncr
                          11677 ;	Can't optimise plus by inc, falling back to the normal way
   2680 F8 00             11678 	lda	hl,0(sp)
   2682 5E                11679 	ld	e,(hl)
   2683 23                11680 	inc	hl
   2684 56                11681 	ld	d,(hl)
   2685 21 02 00          11682 	ld	hl,#0x0002
   2688 19                11683 	add	hl,de
   2689 45                11684 	ld	b,l
   268A 4C                11685 	ld	c,h
                          11686 ;	genPointerGet
   268B 58                11687 	ld	e,b
   268C 51                11688 	ld	d,c
   268D 1A                11689 	ld	a,(de)
                          11690 ;	genMinus
   268E 47                11691 	ld	b,a
   268F C6 F0             11692 	add	a,#0xF0
   2691 47                11693 	ld	b,a
                          11694 ;	genAssign
                          11695 ;	AOP_STK for _SceneRenderEmoteBubble_b_sloc3_1_0
   2692 F8 00             11696 	lda	hl,0(sp)
   2694 36 42             11697 	ld	(hl),#0x42
   2696 23                11698 	inc	hl
   2697 36 FF             11699 	ld	(hl),#0xFF
                          11700 ;	genPointerGet
                          11701 ;	AOP_STK for _SceneRenderEmoteBubble_b_sloc3_1_0
   2699 2B                11702 	dec	hl
   269A 5E                11703 	ld	e,(hl)
   269B 23                11704 	inc	hl
   269C 56                11705 	ld	d,(hl)
   269D 1A                11706 	ld	a,(de)
   269E 4F                11707 	ld	c,a
                          11708 ;	genMinus
   269F 78                11709 	ld	a,b
   26A0 91                11710 	sub	a,c
   26A1 47                11711 	ld	b,a
                          11712 ;	genAssign
                          11713 ;	AOP_STK for _SceneRenderEmoteBubble_b_screen_y_1_1
   26A2 F8 06             11714 	lda	hl,6(sp)
   26A4 70                11715 	ld	(hl),b
                          11716 ;	src/Scene_b.c 1070
                          11717 ;	genCmpLt
                          11718 ;	AOP_HL for _emote_timer
   26A5 21 14 00          11719 	ld	hl,#_emote_timer
   26A8 7E                11720 	ld	a,(hl)
   26A9 FE 0F             11721 	cp	#0x0F
   26AB D2 C0 26          11722 	jp	nc,00102$
                          11723 ;	src/Scene_b.c 1072
                          11724 ;	genPlus
                          11725 ;	AOP_HL for _emote_timer
                          11726 ;	Can't optimise plus by inc, falling back to the normal way
   26AE 3E 2C             11727 	ld	a,#<_emote_offsets
   26B0 86                11728 	add	a,(hl)
   26B1 47                11729 	ld	b,a
   26B2 3E 00             11730 	ld	a,#>_emote_offsets
   26B4 CE 00             11731 	adc	a,#0x00
   26B6 4F                11732 	ld	c,a
                          11733 ;	genPointerGet
   26B7 58                11734 	ld	e,b
   26B8 51                11735 	ld	d,c
   26B9 1A                11736 	ld	a,(de)
   26BA 47                11737 	ld	b,a
                          11738 ;	genPlus
                          11739 ;	AOP_STK for _SceneRenderEmoteBubble_b_screen_y_1_1
                          11740 ;	Can't optimise plus by inc, falling back to the normal way
   26BB F8 06             11741 	lda	hl,6(sp)
   26BD 7E                11742 	ld	a,(hl)
   26BE 80                11743 	add	a,b
   26BF 77                11744 	ld	(hl),a
                          11745 ;	genLabel
   26C0                   11746 00102$:
                          11747 ;	src/Scene_b.c 1076
                          11748 ;	genIpush
                          11749 ; _saveRegsForCall: sendSetSize: 0 deInUse: 0 bcInUse: 0 deSending: 0
                          11750 ;	AOP_STK for _SceneRenderEmoteBubble_b_screen_y_1_1
   26C0 F8 06             11751 	lda	hl,6(sp)
   26C2 7E                11752 	ld	a,(hl)
   26C3 F5                11753 	push	af
   26C4 33                11754 	inc	sp
                          11755 ;	genIpush
                          11756 ;	AOP_STK for _SceneRenderEmoteBubble_b_screen_x_1_1
   26C5 23                11757 	inc	hl
   26C6 7E                11758 	ld	a,(hl)
   26C7 F5                11759 	push	af
   26C8 33                11760 	inc	sp
                          11761 ;	genIpush
   26C9 3E 00             11762 	ld	a,#0x00
   26CB F5                11763 	push	af
   26CC 33                11764 	inc	sp
                          11765 ;	genCall
   26CD CD 00 00          11766 	call	_move_sprite
   26D0 E8 03             11767 	lda	sp,3(sp)
                          11768 ;	genPlus
                          11769 ;	AOP_STK for _SceneRenderEmoteBubble_b_screen_x_1_1
                          11770 ;	genPlusIncr
                          11771 ;	Can't optimise plus by inc, falling back to the normal way
   26D2 F8 07             11772 	lda	hl,7(sp)
   26D4 7E                11773 	ld	a,(hl)
   26D5 C6 08             11774 	add	a,#0x08
   26D7 4F                11775 	ld	c,a
                          11776 ;	genIpush
                          11777 ; _saveRegsForCall: sendSetSize: 0 deInUse: 0 bcInUse: 0 deSending: 0
                          11778 ;	AOP_STK for _SceneRenderEmoteBubble_b_screen_y_1_1
   26D8 2B                11779 	dec	hl
   26D9 7E                11780 	ld	a,(hl)
   26DA F5                11781 	push	af
   26DB 33                11782 	inc	sp
                          11783 ;	genIpush
   26DC 79                11784 	ld	a,c
   26DD F5                11785 	push	af
   26DE 33                11786 	inc	sp
                          11787 ;	genIpush
   26DF 3E 01             11788 	ld	a,#0x01
   26E1 F5                11789 	push	af
   26E2 33                11790 	inc	sp
                          11791 ;	genCall
   26E3 CD 00 00          11792 	call	_move_sprite
   26E6 E8 03             11793 	lda	sp,3(sp)
                          11794 ;	genLabel
   26E8                   11795 00107$:
                          11796 ;	genEndFunction
   26E8 E8 08             11797 	lda	sp,8(sp)
   26EA C9                11798 	ret
   26EB                   11799 ___SceneRenderEmoteBubble_b_end:
                          11800 ;	src/Scene_b.c 1085
                          11801 ;	genLabel
                          11802 ;	genFunction
                          11803 ;	---------------------------------
                          11804 ; Function ScenePlayerAt_b
                          11805 ; ---------------------------------
   26EB                   11806 ___ScenePlayerAt_b_start:
   26EB                   11807 _ScenePlayerAt_b:
   26EB E8 FF             11808 	lda	sp,-1(sp)
                          11809 ;	src/Scene_b.c 1088
                          11810 ;	genPlus
                          11811 ;	genPlusIncr
   26ED 01 01 00          11812 	ld	bc,#_actors + 1
                          11813 ;	genPointerGet
   26F0 0A                11814 	ld	a,(bc)
                          11815 ;	genRightShift
                          11816 ;	AOP_STK for _ScenePlayerAt_b_tx_b_1_1
   26F1 4F                11817 	ld	c,a
   26F2 CB 3F             11818 	srl	a
   26F4 CB 3F             11819 	srl	a
   26F6 CB 3F             11820 	srl	a
   26F8 F8 00             11821 	lda	hl,0(sp)
   26FA 77                11822 	ld	(hl),a
                          11823 ;	src/Scene_b.c 1089
                          11824 ;	genPlus
                          11825 ;	genPlusIncr
                          11826 ;	Can't optimise plus by inc, falling back to the normal way
   26FB 3E 00             11827 	ld	a,#<_actors
   26FD C6 02             11828 	add	a,#0x02
   26FF 47                11829 	ld	b,a
   2700 3E 00             11830 	ld	a,#>_actors
   2702 CE 00             11831 	adc	a,#0x00
   2704 4F                11832 	ld	c,a
                          11833 ;	genPointerGet
   2705 58                11834 	ld	e,b
   2706 51                11835 	ld	d,c
   2707 1A                11836 	ld	a,(de)
   2708 47                11837 	ld	b,a
                          11838 ;	genRightShift
   2709 48                11839 	ld	c,b
   270A CB 39             11840 	srl	c
   270C CB 39             11841 	srl	c
   270E CB 39             11842 	srl	c
                          11843 ;	src/Scene_b.c 1090
                          11844 ;	genCmpEq
                          11845 ;	AOP_STK for 
                          11846 ; genCmpEq: left 1, right 1, result 0
   2710 F8 04             11847 	lda	hl,4(sp)
   2712 7E                11848 	ld	a,(hl)
   2713 B9                11849 	cp	c
   2714 CA 24 27          11850 	jp	z,00107$
   2717                   11851 00113$:
                          11852 ;	genMinus
   2717 0D                11853 	dec	c
                          11854 ;	genCmpEq
                          11855 ;	AOP_STK for 
                          11856 ; genCmpEq: left 1, right 1, result 0
   2718 F8 04             11857 	lda	hl,4(sp)
   271A 7E                11858 	ld	a,(hl)
   271B B9                11859 	cp	c
   271C C2 4E 27          11860 	jp	nz,00102$
   271F 18 03             11861 	jr	00115$
   2721                   11862 00114$:
   2721 C3 4E 27          11863 	jp	00102$
   2724                   11864 00115$:
                          11865 ;	genLabel
   2724                   11866 00107$:
                          11867 ;	src/Scene_b.c 1091
                          11868 ;	genCmpEq
                          11869 ;	AOP_STK for 
                          11870 ;	AOP_STK for _ScenePlayerAt_b_tx_b_1_1
                          11871 ; genCmpEq: left 1, right 1, result 0
   2724 F8 00             11872 	lda	hl,0(sp)
   2726 7E                11873 	ld	a,(hl)
   2727 F8 03             11874 	lda	hl,3(sp)
   2729 BE                11875 	cp	(hl)
   272A 20 03             11876 	jr	nz,00116$
   272C C3 49 27          11877 	jp	00101$
   272F                   11878 00116$:
                          11879 ;	genPlus
                          11880 ;	AOP_STK for _ScenePlayerAt_b_tx_b_1_1
                          11881 ;	genPlusIncr
   272F F8 00             11882 	lda	hl,0(sp)
   2731 4E                11883 	ld	c,(hl)
   2732 0C                11884 	inc	c
                          11885 ;	genCmpEq
                          11886 ;	AOP_STK for 
                          11887 ; genCmpEq: left 1, right 1, result 0
   2733 F8 03             11888 	lda	hl,3(sp)
   2735 7E                11889 	ld	a,(hl)
   2736 B9                11890 	cp	c
   2737 CA 49 27          11891 	jp	z,00101$
   273A                   11892 00117$:
                          11893 ;	genPlus
                          11894 ;	AOP_STK for 
                          11895 ;	genPlusIncr
   273A F8 03             11896 	lda	hl,3(sp)
   273C 4E                11897 	ld	c,(hl)
   273D 0C                11898 	inc	c
                          11899 ;	genCmpEq
                          11900 ;	AOP_STK for _ScenePlayerAt_b_tx_b_1_1
                          11901 ; genCmpEq: left 1, right 1, result 0
   273E F8 00             11902 	lda	hl,0(sp)
   2740 7E                11903 	ld	a,(hl)
   2741 B9                11904 	cp	c
   2742 20 02             11905 	jr	nz,00118$
   2744 18 03             11906 	jr	00119$
   2746                   11907 00118$:
   2746 C3 4E 27          11908 	jp	00102$
   2749                   11909 00119$:
                          11910 ;	genLabel
   2749                   11911 00101$:
                          11912 ;	src/Scene_b.c 1093
                          11913 ;	genRet
   2749 1E 01             11914 	ld	e,#0x01
   274B C3 50 27          11915 	jp	00108$
                          11916 ;	genLabel
   274E                   11917 00102$:
                          11918 ;	src/Scene_b.c 1097
                          11919 ;	genRet
   274E 1E 00             11920 	ld	e,#0x00
                          11921 ;	genLabel
   2750                   11922 00108$:
                          11923 ;	genEndFunction
   2750 E8 01             11924 	lda	sp,1(sp)
   2752 C9                11925 	ret
   2753                   11926 ___ScenePlayerAt_b_end:
                          11927 ;	src/Scene_b.c 1101
                          11928 ;	genLabel
                          11929 ;	genFunction
                          11930 ;	---------------------------------
                          11931 ; Function SceneNpcAt_b
                          11932 ; ---------------------------------
   2753                   11933 ___SceneNpcAt_b_start:
   2753                   11934 _SceneNpcAt_b:
   2753 E8 F9             11935 	lda	sp,-7(sp)
                          11936 ;	src/Scene_b.c 1106
                          11937 ;	genAssign
                          11938 ;	AOP_STK for _SceneNpcAt_b_ptr_1_1
   2755 F8 02             11939 	lda	hl,2(sp)
   2757 36 00             11940 	ld	(hl),#<_actors
   2759 23                11941 	inc	hl
   275A 36 00             11942 	ld	(hl),#>_actors
                          11943 ;	src/Scene_b.c 1107
                          11944 ;	genAssign
                          11945 ;	AOP_STK for _SceneNpcAt_b_jump_1_1
   275C 23                11946 	inc	hl
   275D 36 16             11947 	ld	(hl),#0x16
                          11948 ;	src/Scene_b.c 1109
                          11949 ;	genAssign
                          11950 ;	AOP_STK for _SceneNpcAt_b_i_1_1
   275F 23                11951 	inc	hl
   2760 23                11952 	inc	hl
   2761 36 00             11953 	ld	(hl),#0x00
                          11954 ;	genLabel
   2763                   11955 00112$:
                          11956 ;	genCmpEq
                          11957 ;	AOP_STK for _SceneNpcAt_b_i_1_1
                          11958 ;	AOP_HL for _scene_num_actors
                          11959 ; genCmpEq: left 1, right 1, result 0
   2763 21 11 00          11960 	ld	hl,#_scene_num_actors
   2766 7E                11961 	ld	a,(hl)
   2767 F8 06             11962 	lda	hl,6(sp)
   2769 BE                11963 	cp	(hl)
   276A 20 03             11964 	jr	nz,00125$
   276C C3 33 28          11965 	jp	00115$
   276F                   11966 00125$:
                          11967 ;	src/Scene_b.c 1111
                          11968 ;	genCmpEq
                          11969 ;	AOP_STK for _SceneNpcAt_b_i_1_1
                          11970 ;	AOP_STK for 
                          11971 ; genCmpEq: left 1, right 1, result 0
   276F F8 09             11972 	lda	hl,9(sp)
   2771 7E                11973 	ld	a,(hl)
   2772 F8 06             11974 	lda	hl,6(sp)
   2774 BE                11975 	cp	(hl)
   2775 20 03             11976 	jr	nz,00126$
   2777 C3 8F 27          11977 	jp	00101$
   277A                   11978 00126$:
                          11979 ;	genPlus
                          11980 ;	AOP_STK for _SceneNpcAt_b_ptr_1_1
                          11981 ;	AOP_STK for _SceneNpcAt_b_sloc0_1_0
                          11982 ;	genPlusIncr
                          11983 ;	Can't optimise plus by inc, falling back to the normal way
   277A F8 02             11984 	lda	hl,2(sp)
   277C 5E                11985 	ld	e,(hl)
   277D 23                11986 	inc	hl
   277E 56                11987 	ld	d,(hl)
   277F 21 09 00          11988 	ld	hl,#0x0009
   2782 19                11989 	add	hl,de
   2783 7D                11990 	ld	a,l
   2784 54                11991 	ld	d,h
   2785 F8 00             11992 	lda	hl,0(sp)
                          11993 ;	genPointerGet
                          11994 ;	AOP_STK for _SceneNpcAt_b_sloc0_1_0
   2787 22                11995 	ld	(hl+),a
   2788 72                11996 	ld	(hl),d
   2789 5F                11997 	ld	e,a
   278A 1A                11998 	ld	a,(de)
                          11999 ;	genIfx
   278B B7                12000 	or	a,a
   278C C2 A1 27          12001 	jp	nz,00102$
                          12002 ;	genLabel
   278F                   12003 00101$:
                          12004 ;	src/Scene_b.c 1113
                          12005 ;	genPlus
                          12006 ;	AOP_STK for _SceneNpcAt_b_ptr_1_1
                          12007 ;	genPlusIncr
                          12008 ;	Can't optimise plus by inc, falling back to the normal way
   278F F8 02             12009 	lda	hl,2(sp)
   2791 5E                12010 	ld	e,(hl)
   2792 23                12011 	inc	hl
   2793 56                12012 	ld	d,(hl)
   2794 21 16 00          12013 	ld	hl,#0x0016
   2797 19                12014 	add	hl,de
   2798 7D                12015 	ld	a,l
   2799 54                12016 	ld	d,h
   279A F8 02             12017 	lda	hl,2(sp)
   279C 22                12018 	ld	(hl+),a
   279D 72                12019 	ld	(hl),d
                          12020 ;	src/Scene_b.c 1114
                          12021 ;	genGoto
   279E C3 2D 28          12022 	jp	00114$
                          12023 ;	genLabel
   27A1                   12024 00102$:
                          12025 ;	src/Scene_b.c 1116
                          12026 ;	genPlus
                          12027 ;	AOP_STK for _SceneNpcAt_b_ptr_1_1
                          12028 ;	AOP_STK for _SceneNpcAt_b_sloc0_1_0
                          12029 ;	genPlusIncr
                          12030 ;	Can't optimise plus by inc, falling back to the normal way
   27A1 F8 02             12031 	lda	hl,2(sp)
   27A3 5E                12032 	ld	e,(hl)
   27A4 23                12033 	inc	hl
   27A5 56                12034 	ld	d,(hl)
   27A6 21 01 00          12035 	ld	hl,#0x0001
   27A9 19                12036 	add	hl,de
   27AA 7D                12037 	ld	a,l
   27AB 54                12038 	ld	d,h
   27AC F8 00             12039 	lda	hl,0(sp)
                          12040 ;	genPointerGet
                          12041 ;	AOP_STK for _SceneNpcAt_b_sloc0_1_0
   27AE 22                12042 	ld	(hl+),a
   27AF 72                12043 	ld	(hl),d
   27B0 5F                12044 	ld	e,a
   27B1 1A                12045 	ld	a,(de)
                          12046 ;	genRightShift
                          12047 ;	AOP_STK for _SceneNpcAt_b_tx_b_1_1
   27B2 4F                12048 	ld	c,a
   27B3 CB 3F             12049 	srl	a
   27B5 CB 3F             12050 	srl	a
   27B7 CB 3F             12051 	srl	a
   27B9 F8 05             12052 	lda	hl,5(sp)
   27BB 77                12053 	ld	(hl),a
                          12054 ;	src/Scene_b.c 1117
                          12055 ;	genPlus
                          12056 ;	AOP_STK for _SceneNpcAt_b_ptr_1_1
                          12057 ;	genPlusIncr
                          12058 ;	Can't optimise plus by inc, falling back to the normal way
   27BC F8 02             12059 	lda	hl,2(sp)
   27BE 5E                12060 	ld	e,(hl)
   27BF 23                12061 	inc	hl
   27C0 56                12062 	ld	d,(hl)
   27C1 21 02 00          12063 	ld	hl,#0x0002
   27C4 19                12064 	add	hl,de
   27C5 45                12065 	ld	b,l
   27C6 4C                12066 	ld	c,h
                          12067 ;	genPointerGet
   27C7 58                12068 	ld	e,b
   27C8 51                12069 	ld	d,c
   27C9 1A                12070 	ld	a,(de)
   27CA 47                12071 	ld	b,a
                          12072 ;	genRightShift
   27CB 48                12073 	ld	c,b
   27CC CB 39             12074 	srl	c
   27CE CB 39             12075 	srl	c
   27D0 CB 39             12076 	srl	c
                          12077 ;	src/Scene_b.c 1118
                          12078 ;	genCmpEq
                          12079 ; genCmpEq: left 1, right 1, result 0
   27D2 79                12080 	ld	a,c
   27D3 B7                12081 	or	a,a
   27D4 C2 DE 27          12082 	jp	nz,00105$
   27D7 18 03             12083 	jr	00128$
   27D9                   12084 00127$:
   27D9 C3 DE 27          12085 	jp	00105$
   27DC                   12086 00128$:
                          12087 ;	src/Scene_b.c 1122
                          12088 ;	genAssign
   27DC 0E 20             12089 	ld	c,#0x20
                          12090 ;	genLabel
   27DE                   12091 00105$:
                          12092 ;	src/Scene_b.c 1124
                          12093 ;	genCmpEq
                          12094 ;	AOP_STK for 
                          12095 ; genCmpEq: left 1, right 1, result 0
   27DE F8 0B             12096 	lda	hl,11(sp)
   27E0 7E                12097 	ld	a,(hl)
   27E1 B9                12098 	cp	c
   27E2 CA F2 27          12099 	jp	z,00111$
   27E5                   12100 00129$:
                          12101 ;	genMinus
   27E5 0D                12102 	dec	c
                          12103 ;	genCmpEq
                          12104 ;	AOP_STK for 
                          12105 ; genCmpEq: left 1, right 1, result 0
   27E6 F8 0B             12106 	lda	hl,11(sp)
   27E8 7E                12107 	ld	a,(hl)
   27E9 B9                12108 	cp	c
   27EA C2 1D 28          12109 	jp	nz,00107$
   27ED 18 03             12110 	jr	00131$
   27EF                   12111 00130$:
   27EF C3 1D 28          12112 	jp	00107$
   27F2                   12113 00131$:
                          12114 ;	genLabel
   27F2                   12115 00111$:
                          12116 ;	src/Scene_b.c 1125
                          12117 ;	genCmpEq
                          12118 ;	AOP_STK for 
                          12119 ;	AOP_STK for _SceneNpcAt_b_tx_b_1_1
                          12120 ; genCmpEq: left 1, right 1, result 0
   27F2 F8 05             12121 	lda	hl,5(sp)
   27F4 7E                12122 	ld	a,(hl)
   27F5 F8 0A             12123 	lda	hl,10(sp)
   27F7 BE                12124 	cp	(hl)
   27F8 20 03             12125 	jr	nz,00132$
   27FA C3 17 28          12126 	jp	00106$
   27FD                   12127 00132$:
                          12128 ;	genPlus
                          12129 ;	AOP_STK for _SceneNpcAt_b_tx_b_1_1
                          12130 ;	genPlusIncr
   27FD F8 05             12131 	lda	hl,5(sp)
   27FF 4E                12132 	ld	c,(hl)
   2800 0C                12133 	inc	c
                          12134 ;	genCmpEq
                          12135 ;	AOP_STK for 
                          12136 ; genCmpEq: left 1, right 1, result 0
   2801 F8 0A             12137 	lda	hl,10(sp)
   2803 7E                12138 	ld	a,(hl)
   2804 B9                12139 	cp	c
   2805 CA 17 28          12140 	jp	z,00106$
   2808                   12141 00133$:
                          12142 ;	genPlus
                          12143 ;	AOP_STK for 
                          12144 ;	genPlusIncr
   2808 F8 0A             12145 	lda	hl,10(sp)
   280A 4E                12146 	ld	c,(hl)
   280B 0C                12147 	inc	c
                          12148 ;	genCmpEq
                          12149 ;	AOP_STK for _SceneNpcAt_b_tx_b_1_1
                          12150 ; genCmpEq: left 1, right 1, result 0
   280C F8 05             12151 	lda	hl,5(sp)
   280E 7E                12152 	ld	a,(hl)
   280F B9                12153 	cp	c
   2810 20 02             12154 	jr	nz,00134$
   2812 18 03             12155 	jr	00135$
   2814                   12156 00134$:
   2814 C3 1D 28          12157 	jp	00107$
   2817                   12158 00135$:
                          12159 ;	genLabel
   2817                   12160 00106$:
                          12161 ;	src/Scene_b.c 1127
                          12162 ;	genRet
                          12163 ;	AOP_STK for _SceneNpcAt_b_i_1_1
   2817 F8 06             12164 	lda	hl,6(sp)
   2819 5E                12165 	ld	e,(hl)
   281A C3 37 28          12166 	jp	00116$
                          12167 ;	genLabel
   281D                   12168 00107$:
                          12169 ;	src/Scene_b.c 1129
                          12170 ;	genPlus
                          12171 ;	AOP_STK for _SceneNpcAt_b_ptr_1_1
                          12172 ;	AOP_STK for _SceneNpcAt_b_jump_1_1
                          12173 ;	Can't optimise plus by inc, falling back to the normal way
   281D F8 02             12174 	lda	hl,2(sp)
   281F 5E                12175 	ld	e,(hl)
   2820 23                12176 	inc	hl
   2821 56                12177 	ld	d,(hl)
   2822 23                12178 	inc	hl
   2823 6E                12179 	ld	l,(hl)
   2824 26 00             12180 	ld	h,#0x00
   2826 19                12181 	add	hl,de
   2827 7D                12182 	ld	a,l
   2828 54                12183 	ld	d,h
   2829 F8 02             12184 	lda	hl,2(sp)
   282B 22                12185 	ld	(hl+),a
   282C 72                12186 	ld	(hl),d
                          12187 ;	genLabel
   282D                   12188 00114$:
                          12189 ;	src/Scene_b.c 1109
                          12190 ;	genPlus
                          12191 ;	AOP_STK for _SceneNpcAt_b_i_1_1
                          12192 ;	genPlusIncr
   282D F8 06             12193 	lda	hl,6(sp)
   282F 34                12194 	inc	(hl)
                          12195 ;	genGoto
   2830 C3 63 27          12196 	jp	00112$
                          12197 ;	genLabel
   2833                   12198 00115$:
                          12199 ;	src/Scene_b.c 1131
                          12200 ;	genRet
                          12201 ;	AOP_HL for _scene_num_actors
   2833 21 11 00          12202 	ld	hl,#_scene_num_actors
   2836 5E                12203 	ld	e,(hl)
                          12204 ;	genLabel
   2837                   12205 00116$:
                          12206 ;	genEndFunction
   2837 E8 07             12207 	lda	sp,7(sp)
   2839 C9                12208 	ret
   283A                   12209 ___SceneNpcAt_b_end:
                          12210 ;	src/Scene_b.c 1134
                          12211 ;	genLabel
                          12212 ;	genFunction
                          12213 ;	---------------------------------
                          12214 ; Function SceneTriggerAt_b
                          12215 ; ---------------------------------
   283A                   12216 ___SceneTriggerAt_b_start:
   283A                   12217 _SceneTriggerAt_b:
   283A E8 F9             12218 	lda	sp,-7(sp)
                          12219 ;	src/Scene_b.c 1138
                          12220 ;	genAssign
                          12221 ;	AOP_STK for _SceneTriggerAt_b_i_1_1
   283C F8 06             12222 	lda	hl,6(sp)
   283E 36 00             12223 	ld	(hl),#0x00
                          12224 ;	genLabel
   2840                   12225 00106$:
                          12226 ;	genCmpEq
                          12227 ;	AOP_STK for _SceneTriggerAt_b_i_1_1
                          12228 ;	AOP_HL for _scene_num_triggers
                          12229 ; genCmpEq: left 1, right 1, result 0
   2840 21 12 00          12230 	ld	hl,#_scene_num_triggers
   2843 7E                12231 	ld	a,(hl)
   2844 F8 06             12232 	lda	hl,6(sp)
   2846 BE                12233 	cp	(hl)
   2847 20 03             12234 	jr	nz,00118$
   2849 C3 DD 28          12235 	jp	00109$
   284C                   12236 00118$:
                          12237 ;	src/Scene_b.c 1140
                          12238 ;	genMult
                          12239 ;	AOP_STK for _SceneTriggerAt_b_i_1_1
                          12240 ;	AOP_STK for _SceneTriggerAt_b_sloc0_1_0
   284C F8 06             12241 	lda	hl,6(sp)
   284E 5E                12242 	ld	e,(hl)
   284F 16 00             12243 	ld	d,#0x00
   2851 6B                12244 	ld	l,e
   2852 62                12245 	ld	h,d
   2853 29                12246 	add	hl,hl
   2854 29                12247 	add	hl,hl
   2855 29                12248 	add	hl,hl
   2856 19                12249 	add	hl,de
   2857 7D                12250 	ld	a,l
   2858 54                12251 	ld	d,h
   2859 F8 01             12252 	lda	hl,1(sp)
   285B 22                12253 	ld	(hl+),a
   285C 72                12254 	ld	(hl),d
                          12255 ;	genPlus
                          12256 ;	AOP_STK for _SceneTriggerAt_b_sloc0_1_0
                          12257 ;	Can't optimise plus by inc, falling back to the normal way
   285D 11 00 00          12258 	ld	de,#_triggers
   2860 2B                12259 	dec	hl
   2861 2A                12260 	ld	a,(hl+)
   2862 66                12261 	ld	h,(hl)
   2863 6F                12262 	ld	l,a
   2864 19                12263 	add	hl,de
   2865 45                12264 	ld	b,l
   2866 4C                12265 	ld	c,h
                          12266 ;	genPointerGet
                          12267 ;	AOP_STK for _SceneTriggerAt_b_tx_b_1_1
   2867 58                12268 	ld	e,b
   2868 51                12269 	ld	d,c
   2869 1A                12270 	ld	a,(de)
   286A F8 05             12271 	lda	hl,5(sp)
   286C 77                12272 	ld	(hl),a
                          12273 ;	genAssign
                          12274 ;	AOP_STK for _SceneTriggerAt_b_tx_b_1_1
                          12275 ;	(registers are the same)
                          12276 ;	src/Scene_b.c 1141
                          12277 ;	genPlus
                          12278 ;	AOP_STK for _SceneTriggerAt_b_sloc0_1_0
                          12279 ;	genPlusIncr
                          12280 ;	Can't optimise plus by inc, falling back to the normal way
   286D 58                12281 	ld	e,b
   286E 51                12282 	ld	d,c
   286F 21 01 00          12283 	ld	hl,#0x0001
   2872 19                12284 	add	hl,de
   2873 7D                12285 	ld	a,l
   2874 54                12286 	ld	d,h
   2875 F8 01             12287 	lda	hl,1(sp)
                          12288 ;	genPointerGet
                          12289 ;	AOP_STK for _SceneTriggerAt_b_sloc0_1_0
                          12290 ;	AOP_STK for _SceneTriggerAt_b_sloc1_1_0
   2877 22                12291 	ld	(hl+),a
   2878 72                12292 	ld	(hl),d
   2879 5F                12293 	ld	e,a
   287A 1A                12294 	ld	a,(de)
   287B 2B                12295 	dec	hl
   287C 2B                12296 	dec	hl
                          12297 ;	genPlus
                          12298 ;	AOP_STK for _SceneTriggerAt_b_sloc1_1_0
                          12299 ;	AOP_STK for _SceneTriggerAt_b_ty_b_1_1
                          12300 ;	genPlusIncr
                          12301 ;	Can't optimise plus by inc, falling back to the normal way
   287D 77                12302 	ld      (hl),a
                          12303 ; Removed redundent load
   287E C6 01             12304 	add	a,#0x01
   2880 F8 04             12305 	lda	hl,4(sp)
   2882 77                12306 	ld	(hl),a
                          12307 ;	src/Scene_b.c 1142
                          12308 ;	genPlus
                          12309 ;	AOP_STK for _SceneTriggerAt_b_sloc0_1_0
                          12310 ;	genPlusIncr
                          12311 ;	Can't optimise plus by inc, falling back to the normal way
   2883 58                12312 	ld	e,b
   2884 51                12313 	ld	d,c
   2885 21 02 00          12314 	ld	hl,#0x0002
   2888 19                12315 	add	hl,de
   2889 7D                12316 	ld	a,l
   288A 54                12317 	ld	d,h
   288B F8 01             12318 	lda	hl,1(sp)
                          12319 ;	genPointerGet
                          12320 ;	AOP_STK for _SceneTriggerAt_b_sloc0_1_0
                          12321 ;	AOP_STK for _SceneTriggerAt_b_sloc1_1_0
   288D 22                12322 	ld	(hl+),a
   288E 72                12323 	ld	(hl),d
   288F 5F                12324 	ld	e,a
   2890 1A                12325 	ld	a,(de)
   2891 2B                12326 	dec	hl
   2892 2B                12327 	dec	hl
   2893 77                12328 	ld	(hl),a
                          12329 ;	genPlus
                          12330 ;	AOP_STK for _SceneTriggerAt_b_tx_b_1_1
                          12331 ;	AOP_STK for _SceneTriggerAt_b_sloc1_1_0
                          12332 ;	AOP_STK for _SceneTriggerAt_b_tx_c_1_1
                          12333 ;	Can't optimise plus by inc, falling back to the normal way
   2894 F8 05             12334 	lda	hl,5(sp)
   2896 7E                12335 	ld	a,(hl)
   2897 F8 00             12336 	lda	hl,0(sp)
   2899 86                12337 	add	a,(hl)
   289A F8 03             12338 	lda	hl,3(sp)
   289C 77                12339 	ld	(hl),a
                          12340 ;	genAssign
                          12341 ;	AOP_STK for _SceneTriggerAt_b_tx_c_1_1
                          12342 ;	(registers are the same)
                          12343 ;	src/Scene_b.c 1143
                          12344 ;	genPlus
                          12345 ;	genPlusIncr
                          12346 ;	Can't optimise plus by inc, falling back to the normal way
   289D 78                12347 	ld	a,b
   289E C6 03             12348 	add	a,#0x03
   28A0 47                12349 	ld	b,a
   28A1 79                12350 	ld	a,c
   28A2 CE 00             12351 	adc	a,#0x00
   28A4 4F                12352 	ld	c,a
                          12353 ;	genPointerGet
   28A5 58                12354 	ld	e,b
   28A6 51                12355 	ld	d,c
   28A7 1A                12356 	ld	a,(de)
   28A8 47                12357 	ld	b,a
                          12358 ;	genPlus
                          12359 ;	AOP_STK for _SceneTriggerAt_b_ty_b_1_1
                          12360 ;	Can't optimise plus by inc, falling back to the normal way
   28A9 23                12361 	inc	hl
   28AA 7E                12362 	ld	a,(hl)
   28AB 80                12363 	add	a,b
                          12364 ;	genMinus
   28AC 47                12365 	ld	b,a
   28AD C6 FF             12366 	add	a,#0xFF
   28AF 4F                12367 	ld	c,a
                          12368 ;	src/Scene_b.c 1145
                          12369 ;	genCmpLt
                          12370 ;	AOP_STK for 
                          12371 ;	AOP_STK for _SceneTriggerAt_b_tx_b_1_1
   28B0 F8 09             12372 	lda	hl,9(sp)
   28B2 7E                12373 	ld	a,(hl)
   28B3 F8 05             12374 	lda	hl,5(sp)
   28B5 96                12375 	sub	a,(hl)
   28B6 DA D7 28          12376 	jp	c,00108$
                          12377 ;	genCmpGt
                          12378 ;	AOP_STK for 
                          12379 ;	AOP_STK for _SceneTriggerAt_b_tx_c_1_1
   28B9 2B                12380 	dec	hl
   28BA 2B                12381 	dec	hl
   28BB 7E                12382 	ld	a,(hl)
   28BC F8 09             12383 	lda	hl,9(sp)
   28BE 96                12384 	sub	a,(hl)
   28BF DA D7 28          12385 	jp	c,00108$
                          12386 ;	genCmpLt
                          12387 ;	AOP_STK for 
                          12388 ;	AOP_STK for _SceneTriggerAt_b_ty_b_1_1
   28C2 23                12389 	inc	hl
   28C3 7E                12390 	ld	a,(hl)
   28C4 F8 04             12391 	lda	hl,4(sp)
   28C6 96                12392 	sub	a,(hl)
   28C7 DA D7 28          12393 	jp	c,00108$
                          12394 ;	genCmpGt
                          12395 ;	AOP_STK for 
   28CA 79                12396 	ld	a,c
   28CB F8 0A             12397 	lda	hl,10(sp)
   28CD 96                12398 	sub	a,(hl)
   28CE DA D7 28          12399 	jp	c,00108$
                          12400 ;	src/Scene_b.c 1147
                          12401 ;	genRet
                          12402 ;	AOP_STK for _SceneTriggerAt_b_i_1_1
   28D1 F8 06             12403 	lda	hl,6(sp)
   28D3 5E                12404 	ld	e,(hl)
   28D4 C3 E1 28          12405 	jp	00110$
                          12406 ;	genLabel
   28D7                   12407 00108$:
                          12408 ;	src/Scene_b.c 1138
                          12409 ;	genPlus
                          12410 ;	AOP_STK for _SceneTriggerAt_b_i_1_1
                          12411 ;	genPlusIncr
   28D7 F8 06             12412 	lda	hl,6(sp)
   28D9 34                12413 	inc	(hl)
                          12414 ;	genGoto
   28DA C3 40 28          12415 	jp	00106$
                          12416 ;	genLabel
   28DD                   12417 00109$:
                          12418 ;	src/Scene_b.c 1151
                          12419 ;	genRet
                          12420 ;	AOP_HL for _scene_num_triggers
   28DD 21 12 00          12421 	ld	hl,#_scene_num_triggers
   28E0 5E                12422 	ld	e,(hl)
                          12423 ;	genLabel
   28E1                   12424 00110$:
                          12425 ;	genEndFunction
   28E1 E8 07             12426 	lda	sp,7(sp)
   28E3 C9                12427 	ret
   28E4                   12428 ___SceneTriggerAt_b_end:
                          12429 ;	src/Scene_b.c 1154
                          12430 ;	genLabel
                          12431 ;	genFunction
                          12432 ;	---------------------------------
                          12433 ; Function SceneSetEmote_b
                          12434 ; ---------------------------------
   28E4                   12435 ___SceneSetEmote_b_start:
   28E4                   12436 _SceneSetEmote_b:
   28E4 E8 FE             12437 	lda	sp,-2(sp)
                          12438 ;	src/Scene_b.c 1158
                          12439 ;	genIpush
                          12440 ; _saveRegsForCall: sendSetSize: 0 deInUse: 0 bcInUse: 0 deSending: 0
   28E6 21 00 00          12441 	ld	hl,#0x0000
   28E9 E5                12442 	push	hl
                          12443 ;	genIpush
   28EA 3E 00             12444 	ld	a,#0x00
   28EC F5                12445 	push	af
   28ED 33                12446 	inc	sp
                          12447 ;	genCall
   28EE CD 00 00          12448 	call	_move_sprite
   28F1 E8 03             12449 	lda	sp,3(sp)
                          12450 ;	genIpush
                          12451 ; _saveRegsForCall: sendSetSize: 0 deInUse: 0 bcInUse: 0 deSending: 0
   28F3 21 00 00          12452 	ld	hl,#0x0000
   28F6 E5                12453 	push	hl
                          12454 ;	genIpush
   28F7 3E 01             12455 	ld	a,#0x01
   28F9 F5                12456 	push	af
   28FA 33                12457 	inc	sp
                          12458 ;	genCall
   28FB CD 00 00          12459 	call	_move_sprite
   28FE E8 03             12460 	lda	sp,3(sp)
                          12461 ;	src/Scene_b.c 1159
                          12462 ;	genPlus
                          12463 ;	genPlusIncr
   2900 01 0C 00          12464 	ld	bc,#_bank_data_ptrs + 12
                          12465 ;	genPointerGet
   2903 59                12466 	ld	e,c
   2904 50                12467 	ld	d,b
   2905 1A                12468 	ld	a,(de)
   2906 4F                12469 	ld	c,a
   2907 13                12470 	inc	de
   2908 1A                12471 	ld	a,(de)
   2909 47                12472 	ld	b,a
                          12473 ;	genCast
                          12474 ;	genPlus
                          12475 ;	AOP_STK for _SceneSetEmote_b_scene_load_ptr_1_1
                          12476 ;	genPlusIncr
                          12477 ;	Can't optimise plus by inc, falling back to the normal way
   290A 21 93 38          12478 	ld	hl,#0x3893
   290D 09                12479 	add	hl,bc
   290E 7D                12480 	ld	a,l
   290F 54                12481 	ld	d,h
   2910 F8 00             12482 	lda	hl,0(sp)
   2912 22                12483 	ld	(hl+),a
   2913 72                12484 	ld	(hl),d
                          12485 ;	src/Scene_b.c 1160
                          12486 ;	genCast
                          12487 ;	AOP_STK for 
   2914 F8 05             12488 	lda	hl,5(sp)
   2916 4E                12489 	ld	c,(hl)
   2917 06 00             12490 	ld	b,#0x00
                          12491 ;	genLeftShift
   2919 3E 07             12492 	ld	a,#0x06+1
   291B 18 04             12493 	jr	00104$
   291D                   12494 00103$:
   291D CB 21             12495 	sla	c
   291F CB 10             12496 	rl	b
   2921                   12497 00104$:
   2921 3D                12498 	dec	a
   2922 20 F9             12499 	jr	nz,00103$
                          12500 ;	genPlus
                          12501 ;	AOP_STK for _SceneSetEmote_b_scene_load_ptr_1_1
                          12502 ;	Can't optimise plus by inc, falling back to the normal way
   2924 F8 00             12503 	lda	hl,0(sp)
   2926 2A                12504 	ld	a,(hl+)
   2927 66                12505 	ld	h,(hl)
   2928 6F                12506 	ld	l,a
   2929 09                12507 	add	hl,bc
   292A 4D                12508 	ld	c,l
   292B 44                12509 	ld	b,h
                          12510 ;	genCast
                          12511 ;	genIpush
                          12512 ; _saveRegsForCall: sendSetSize: 0 deInUse: 0 bcInUse: 0 deSending: 0
   292C C5                12513 	push	bc
                          12514 ;	genIpush
   292D 21 7C 04          12515 	ld	hl,#0x047C
   2930 E5                12516 	push	hl
                          12517 ;	genIpush
   2931 3E 06             12518 	ld	a,#0x06
   2933 F5                12519 	push	af
   2934 33                12520 	inc	sp
                          12521 ;	genCall
   2935 CD 00 00          12522 	call	_SetBankedSpriteData
   2938 E8 05             12523 	lda	sp,5(sp)
                          12524 ;	src/Scene_b.c 1162
                          12525 ;	genIpush
                          12526 ; _saveRegsForCall: sendSetSize: 0 deInUse: 0 bcInUse: 0 deSending: 0
   293A 21 00 7C          12527 	ld	hl,#0x7C00
   293D E5                12528 	push	hl
                          12529 ;	genCall
   293E CD 00 00          12530 	call	_set_sprite_tile
   2941 E8 02             12531 	lda	sp,2(sp)
                          12532 ;	genIpush
                          12533 ; _saveRegsForCall: sendSetSize: 0 deInUse: 0 bcInUse: 0 deSending: 0
   2943 21 01 7E          12534 	ld	hl,#0x7E01
   2946 E5                12535 	push	hl
                          12536 ;	genCall
   2947 CD 00 00          12537 	call	_set_sprite_tile
   294A E8 02             12538 	lda	sp,2(sp)
                          12539 ;	src/Scene_b.c 1163
                          12540 ;	genAssign
                          12541 ;	AOP_HL for _emote_timer
   294C 21 14 00          12542 	ld	hl,#_emote_timer
   294F 36 01             12543 	ld	(hl),#0x01
                          12544 ;	src/Scene_b.c 1164
                          12545 ;	genAssign
                          12546 ;	AOP_STK for 
                          12547 ;	AOP_HL for _emote_actor
   2951 F8 04             12548 	lda	hl,4(sp)
   2953 7E                12549 	ld	a,(hl)
   2954 21 15 00          12550 	ld	hl,#_emote_actor
   2957 77                12551 	ld	(hl),a
                          12552 ;	genLabel
   2958                   12553 00101$:
                          12554 ;	genEndFunction
   2958 E8 02             12555 	lda	sp,2(sp)
   295A C9                12556 	ret
   295B                   12557 ___SceneSetEmote_b_end:
                          12558 ;	src/Scene_b.c 1167
                          12559 ;	genLabel
                          12560 ;	genFunction
                          12561 ;	---------------------------------
                          12562 ; Function SceneIsEmoting_b
                          12563 ; ---------------------------------
   295B                   12564 ___SceneIsEmoting_b_start:
   295B                   12565 _SceneIsEmoting_b:
                          12566 	
                          12567 ;	src/Scene_b.c 1169
                          12568 ;	genCmpGt
                          12569 ;	AOP_HL for _emote_timer
   295B 3E 00             12570 	ld	a,#0x00
   295D 21 14 00          12571 	ld	hl,#_emote_timer
   2960 96                12572 	sub	a,(hl)
   2961 3E 00             12573 	ld	a,#0x00
   2963 17                12574 	rla
   2964 4F                12575 	ld	c,a
                          12576 ;	genRet
   2965 59                12577 	ld	e,c
                          12578 ;	genLabel
   2966                   12579 00101$:
                          12580 ;	genEndFunction
                          12581 	
   2966 C9                12582 	ret
   2967                   12583 ___SceneIsEmoting_b_end:
                          12584 ;	src/Scene_b.c 1172
                          12585 ;	genLabel
                          12586 ;	genFunction
                          12587 ;	---------------------------------
                          12588 ; Function SceneCameraAtDest_b
                          12589 ; ---------------------------------
   2967                   12590 ___SceneCameraAtDest_b_start:
   2967                   12591 _SceneCameraAtDest_b:
   2967 E8 FD             12592 	lda	sp,-3(sp)
                          12593 ;	src/Scene_b.c 1174
                          12594 ;	genAssign
   2969 01 43 FF          12595 	ld	bc,#0xFF43
                          12596 ;	genPointerGet
   296C 0A                12597 	ld	a,(bc)
   296D 4F                12598 	ld	c,a
                          12599 ;	genPointerGet
   296E 11 00 00          12600 	ld	de,#_camera_dest
   2971 1A                12601 	ld	a,(de)
   2972 47                12602 	ld	b,a
                          12603 ;	genCmpEq
                          12604 ; genCmpEq: left 1, right 1, result 1
   2973 79                12605 	ld	a,c
   2974 B8                12606 	cp	b
   2975 C2 7C 29          12607 	jp	nz,00103$
   2978 3E 01             12608 	ld	a,#0x01
   297A 18 01             12609 	jr	00104$
   297C                   12610 00103$:
   297C AF                12611 	xor	a,a
   297D                   12612 00104$:
   297D 4F                12613 	ld	c,a
                          12614 ;	genAssign
                          12615 ;	AOP_STK for _SceneCameraAtDest_b_sloc0_1_0
   297E F8 01             12616 	lda	hl,1(sp)
   2980 36 42             12617 	ld	(hl),#0x42
   2982 23                12618 	inc	hl
   2983 36 FF             12619 	ld	(hl),#0xFF
                          12620 ;	genPointerGet
                          12621 ;	AOP_STK for _SceneCameraAtDest_b_sloc0_1_0
   2985 2B                12622 	dec	hl
   2986 5E                12623 	ld	e,(hl)
   2987 23                12624 	inc	hl
   2988 56                12625 	ld	d,(hl)
   2989 1A                12626 	ld	a,(de)
   298A 47                12627 	ld	b,a
                          12628 ;	genPlus
                          12629 ;	AOP_STK for _SceneCameraAtDest_b_sloc0_1_0
                          12630 ;	genPlusIncr
                          12631 ;	Can't optimise plus by inc, falling back to the normal way
   298B 11 00 00          12632 	ld	de,#_camera_dest
   298E 21 01 00          12633 	ld	hl,#0x0001
   2991 19                12634 	add	hl,de
   2992 7D                12635 	ld	a,l
   2993 54                12636 	ld	d,h
   2994 F8 01             12637 	lda	hl,1(sp)
                          12638 ;	genPointerGet
                          12639 ;	AOP_STK for _SceneCameraAtDest_b_sloc0_1_0
                          12640 ;	AOP_STK for _SceneCameraAtDest_b_sloc1_1_0
   2996 22                12641 	ld	(hl+),a
   2997 72                12642 	ld	(hl),d
   2998 5F                12643 	ld	e,a
   2999 1A                12644 	ld	a,(de)
   299A 2B                12645 	dec	hl
   299B 2B                12646 	dec	hl
                          12647 ;	genCmpEq
                          12648 ;	AOP_STK for _SceneCameraAtDest_b_sloc1_1_0
                          12649 ; genCmpEq: left 1, right 1, result 1
   299C 77                12650 	ld      (hl),a
   299D 7F                12651 	ld      a,a
   299E B8                12652 	cp	b
   299F 20 04             12653 	jr	nz,00105$
   29A1 3E 01             12654 	ld	a,#0x01
   29A3 18 01             12655 	jr	00106$
   29A5                   12656 00105$:
   29A5 AF                12657 	xor	a,a
   29A6                   12658 00106$:
   29A6 47                12659 	ld	b,a
                          12660 ;	genAndOp
   29A7 AF                12661 	xor	a,a
   29A8 B1                12662 	or	a,c
   29A9 28 02             12663 	jr	z,00107$
   29AB AF                12664 	xor	a,a
   29AC B0                12665 	or	a,b
   29AD                   12666 00107$:
   29AD 28 02             12667 	jr	z,00108$
   29AF 3E 01             12668 	ld	a,#0x01
   29B1                   12669 00108$:
   29B1 4F                12670 	ld	c,a
                          12671 ;	genRet
   29B2 59                12672 	ld	e,c
                          12673 ;	genLabel
   29B3                   12674 00101$:
                          12675 ;	genEndFunction
   29B3 E8 03             12676 	lda	sp,3(sp)
   29B5 C9                12677 	ret
   29B6                   12678 ___SceneCameraAtDest_b_end:
                          12679 ;	src/Scene_b.c 1177
                          12680 ;	genLabel
                          12681 ;	genFunction
                          12682 ;	---------------------------------
                          12683 ; Function SceneAwaitInputPressed_b
                          12684 ; ---------------------------------
   29B6                   12685 ___SceneAwaitInputPressed_b_start:
   29B6                   12686 _SceneAwaitInputPressed_b:
                          12687 	
                          12688 ;	src/Scene_b.c 1180
                          12689 ;	genIfx
                          12690 ;	AOP_HL for _scene_loaded
   29B6 AF                12691 	xor	a,a
   29B7 21 0F 00          12692 	ld	hl,#_scene_loaded
   29BA B6                12693 	or	a,(hl)
   29BB CA F6 29          12694 	jp	z,00101$
                          12695 ;	genIfx
                          12696 ;	AOP_HL for _scene_input_ready
   29BE AF                12697 	xor	a,a
   29BF 21 10 00          12698 	ld	hl,#_scene_input_ready
   29C2 B6                12699 	or	a,(hl)
   29C3 CA F6 29          12700 	jp	z,00101$
                          12701 ;	genPlus
                          12702 ;	genPlusIncr
   29C6 01 01 00          12703 	ld	bc,#_actors + 1
                          12704 ;	genPointerGet
   29C9 0A                12705 	ld	a,(bc)
                          12706 ;	genAnd
   29CA 4F                12707 	ld	c,a
   29CB E6 07             12708 	and	a,#0x07
                          12709 ;	genCmpEq
                          12710 ; genCmpEq: left 1, right 1, result 0
   29CD 4F                12711 	ld	c,a
   29CE B7                12712 	or	a,a
   29CF C2 F6 29          12713 	jp	nz,00101$
   29D2 18 03             12714 	jr	00115$
   29D4                   12715 00114$:
   29D4 C3 F6 29          12716 	jp	00101$
   29D7                   12717 00115$:
                          12718 ;	genPlus
                          12719 ;	genPlusIncr
   29D7 01 02 00          12720 	ld	bc,#_actors + 2
                          12721 ;	genPointerGet
   29DA 0A                12722 	ld	a,(bc)
                          12723 ;	genAnd
   29DB 4F                12724 	ld	c,a
   29DC E6 07             12725 	and	a,#0x07
                          12726 ;	genCmpEq
                          12727 ; genCmpEq: left 1, right 1, result 0
   29DE 47                12728 	ld	b,a
   29DF B7                12729 	or	a,a
   29E0 CA EE 29          12730 	jp	z,00107$
   29E3                   12731 00116$:
                          12732 ;	genCmpEq
                          12733 ; genCmpEq: left 1, right 1, result 0
   29E3 79                12734 	ld	a,c
   29E4 FE FE             12735 	cp	a,#0xFE
   29E6 C2 F6 29          12736 	jp	nz,00101$
   29E9 18 03             12737 	jr	00118$
   29EB                   12738 00117$:
   29EB C3 F6 29          12739 	jp	00101$
   29EE                   12740 00118$:
                          12741 ;	genLabel
   29EE                   12742 00107$:
                          12743 ;	genIfx
                          12744 ;	AOP_HL for _fade_running
   29EE AF                12745 	xor	a,a
   29EF 21 00 00          12746 	ld	hl,#_fade_running
   29F2 B6                12747 	or	a,(hl)
   29F3 CA FB 29          12748 	jp	z,00102$
                          12749 ;	genLabel
   29F6                   12750 00101$:
                          12751 ;	src/Scene_b.c 1182
                          12752 ;	genRet
   29F6 1E 00             12753 	ld	e,#0x00
   29F8 C3 17 2A          12754 	jp	00108$
                          12755 ;	genLabel
   29FB                   12756 00102$:
                          12757 ;	src/Scene_b.c 1185
                          12758 ;	genAnd
                          12759 ;	AOP_HL for _joy
                          12760 ;	AOP_HL for _await_input
   29FB 21 00 00          12761 	ld	hl,#_joy
   29FE 7E                12762 	ld	a,(hl)
   29FF 21 00 00          12763 	ld	hl,#_await_input
   2A02 A6                12764 	and	a,(hl)
                          12765 ;	genCmpEq
                          12766 ; genCmpEq: left 1, right 1, result 1
   2A03 4F                12767 	ld	c,a
   2A04 B7                12768 	or	a,a
   2A05 C2 0C 2A          12769 	jp	nz,00119$
   2A08 3E 01             12770 	ld	a,#0x01
   2A0A 18 01             12771 	jr	00120$
   2A0C                   12772 00119$:
   2A0C AF                12773 	xor	a,a
   2A0D                   12774 00120$:
   2A0D 4F                12775 	ld	c,a
                          12776 ;	genNot
   2A0E AF                12777 	xor	a,a
   2A0F B1                12778 	or	a,c
   2A10 D6 01             12779 	sub	a,#0x01
   2A12 3E 00             12780 	ld	a,#0x00
   2A14 17                12781 	rla
   2A15 4F                12782 	ld	c,a
                          12783 ;	genRet
   2A16 59                12784 	ld	e,c
                          12785 ;	genLabel
   2A17                   12786 00108$:
                          12787 ;	genEndFunction
                          12788 	
   2A17 C9                12789 	ret
   2A18                   12790 ___SceneAwaitInputPressed_b_end:
                          12791 	.area _CODE_3
ASxxxx Assembler V01.75  (GameBoy Z80-like CPU), page 1.

Symbol Table

    _ClampUBYTE                        **** GX
    _FadeIn                            **** GX
    _IsFading                          **** GX
    _ReadBankedBankPtr                 **** GX
    _ReadBankedUBYTE                   **** GX
    _ReadBankedUWORD                   **** GX
  9 _SceneAwaitInputPressed_b          29B6 GR
  9 _SceneCameraAtDest_b               2967 GR
  9 _SceneHandleInput                  1F79 R
  9 _SceneHandleTransition             0FC5 GR
  9 _SceneHandleTriggers_b             1E6B GR
  9 _SceneHandleWait                   0FA9 GR
    _SceneInit                         **** GX
  9 _SceneInit_b1                      0000 GR
  9 _SceneInit_b2                      006E GR
  9 _SceneInit_b3                      09E8 GR
  9 _SceneInit_b4                      0A2D GR
  9 _SceneInit_b5                      0A49 GR
  9 _SceneInit_b6                      0BAE GR
  9 _SceneInit_b7                      0CD1 GR
  9 _SceneInit_b8                      0DA2 GR
  9 _SceneInit_b9                      0DF0 GR
  9 _SceneIsEmoting_b                  295B GR
  9 _SceneNpcAt_b                      2753 GR
  9 _ScenePlayerAt_b                   26EB GR
  9 _SceneRender                       2270 GR
  9 _SceneRenderActor_b                246F GR
  9 _SceneRenderActors_b               22A5 GR
  9 _SceneRenderCameraShake_b          227A GR
  9 _SceneRenderEmoteBubble_b          262D GR
  9 _SceneSetEmote_b                   28E4 GR
  9 _SceneTriggerAt_b                  283A GR
  9 _SceneUpdateActorMovement_b        1AC6 GR
  9 _SceneUpdateActors_b               11C7 GR
  9 _SceneUpdateCameraShake_b          1F20 GR
  9 _SceneUpdateCamera_b               0FF3 GR
  9 _SceneUpdateEmoteBubble_b          1F3C GR
  9 _SceneUpdateTimer_b                1DBF GR
  9 _SceneUpdate_b                     0F84 GR
    _ScriptRunnerUpdate                **** GX
    _ScriptStart                       **** GX
    _SetBankedBkgData                  **** GX
    _SetBankedBkgTiles                 **** GX
    _SetBankedSpriteData               **** GX
    _SpritesReset                      **** GX
    _UIInit                            **** GX
    _UIIsClosed                        **** GX
    _UIOnInteract                      **** GX
    _UIUpdate                          **** GX
  9 ___SceneAwaitInputPressed_b_end    2A18 R
  9 ___SceneAwaitInputPressed_b_star   29B6 R
  9 ___SceneCameraAtDest_b_end         29B6 R
  9 ___SceneCameraAtDest_b_start       2967 R
  9 ___SceneHandleInput_end            2270 R
  9 ___SceneHandleInput_start          1F79 R
  9 ___SceneHandleTransition_end       0FF3 R
  9 ___SceneHandleTransition_start     0FC5 R
  9 ___SceneHandleTriggers_b_end       1F20 R
  9 ___SceneHandleTriggers_b_start     1E6B R
  9 ___SceneHandleWait_end             0FC5 R
  9 ___SceneHandleWait_start           0FA9 R
  9 ___SceneInit_b1_end                002C R
  9 ___SceneInit_b1_start              0000 R
  9 ___SceneInit_b2_end                09E8 R
  9 ___SceneInit_b2_start              006E R
  9 ___SceneInit_b3_end                0A2D R
  9 ___SceneInit_b3_start              09E8 R
  9 ___SceneInit_b4_end                0A49 R
  9 ___SceneInit_b4_start              0A2D R
  9 ___SceneInit_b5_end                0BAE R
  9 ___SceneInit_b5_start              0A49 R
  9 ___SceneInit_b6_end                0CD1 R
  9 ___SceneInit_b6_start              0BAE R
  9 ___SceneInit_b7_end                0DA2 R
  9 ___SceneInit_b7_start              0CD1 R
  9 ___SceneInit_b8_end                0DF0 R
  9 ___SceneInit_b8_start              0DA2 R
  9 ___SceneInit_b9_end                0F84 R
  9 ___SceneInit_b9_start              0DF0 R
  9 ___SceneIsEmoting_b_end            2967 R
  9 ___SceneIsEmoting_b_start          295B R
  9 ___SceneNpcAt_b_end                283A R
  9 ___SceneNpcAt_b_start              2753 R
  9 ___ScenePlayerAt_b_end             2753 R
  9 ___ScenePlayerAt_b_start           26EB R
  9 ___SceneRenderActor_b_end          262D R
  9 ___SceneRenderActor_b_start        246F R
  9 ___SceneRenderActors_b_end         246F R
  9 ___SceneRenderActors_b_start       22A5 R
  9 ___SceneRenderCameraShake_b_end    22A5 R
  9 ___SceneRenderCameraShake_b_star   227A R
  9 ___SceneRenderEmoteBubble_b_end    26EB R
  9 ___SceneRenderEmoteBubble_b_star   262D R
  9 ___SceneRender_end                 227A R
  9 ___SceneRender_start               2270 R
  9 ___SceneSetEmote_b_end             295B R
  9 ___SceneSetEmote_b_start           28E4 R
  9 ___SceneTriggerAt_b_end            28E4 R
  9 ___SceneTriggerAt_b_start          283A R
  9 ___SceneUpdateActorMovement_b_en   1DBF R
  9 ___SceneUpdateActorMovement_b_st   1AC6 R
  9 ___SceneUpdateActors_b_end         1AC6 R
  9 ___SceneUpdateActors_b_start       11C7 R
  9 ___SceneUpdateCameraShake_b_end    1F3C R
  9 ___SceneUpdateCameraShake_b_star   1F20 R
  9 ___SceneUpdateCamera_b_end         11C7 R
  9 ___SceneUpdateCamera_b_start       0FF3 R
  9 ___SceneUpdateEmoteBubble_b_end    1F79 R
  9 ___SceneUpdateEmoteBubble_b_star   1F3C R
  9 ___SceneUpdateTimer_b_end          1E6B R
  9 ___SceneUpdateTimer_b_start        1DBF R
  9 ___SceneUpdate_b_end               0FA9 R
  9 ___SceneUpdate_b_start             0F84 R
    __initrleblock                     **** GX
    __muluchar_rrx_s                   **** GX
    __muluint_rrx_s                    **** GX
    _actor_move_dest                   **** GX
    _actor_move_settings               **** GX
    _actors                            **** GX
    _await_input                       **** GX
    _background_bank_ptrs              **** GX
    _bank_data_ptrs                    **** GX
  1 _bank_ptr                          000B GR
    _camera_dest                       **** GX
  1 _camera_moved                      0096 GR
    _camera_settings                   **** GX
    _camera_speed                      **** GX
  1 _check_triggers                    000E GR
  1 _col_bank                          0007 GR
  1 _collision_tiles_len               0006 GR
  9 _dir_down                          0066 GR
  9 _dir_left                          0068 GR
  9 _dir_none                          006C GR
  9 _dir_right                         006A GR
  9 _dir_up                            0064 GR
  1 _directions                        0097 GR
    _display_off                       **** GX
  1 _emote_actor                       0015 GR
  9 _emote_offsets                     002C GR
  1 _emote_timer                       0014 GR
  1 _emote_type                        0013 GR
  1 _events_ptr                        0008 GR
    _fade_running                      **** GX
  1 _image_index                       0001 GR
    _input_script_ptrs                 **** GX
    _joy                               **** GX
  1 _last_joy                          00A3 GR
    _map_next_dir                      **** GX
    _map_next_pos                      **** GX
    _map_next_sprite                   **** GX
    _memcpy                            **** GX
    _move_sprite                       **** GX
    _prev_joy                          **** GX
    _rand                              **** GX
  1 _scene_bank                        0000 GR
    _scene_bank_ptrs                   **** GX
  1 _scene_col_tiles                   0016 GR
    _scene_height                      **** GX
    _scene_index                       **** GX
  1 _scene_input_ready                 0010 GR
  1 _scene_load_col_ptr                0004 GR
  1 _scene_loaded                      000F GR
    _scene_next_index                  **** GX
  1 _scene_num_actors                  0011 GR
  1 _scene_num_triggers                0012 GR
    _scene_width                       **** GX
    _script_action_complete            **** GX
    _script_actor                      **** GX
    _script_ptr                        **** GX
    _set_sprite_prop                   **** GX
    _set_sprite_tile                   **** GX
    _shake_time                        **** GX
    _sprite_bank_ptrs                  **** GX
    _tileset_bank_ptrs                 **** GX
  1 _tileset_index                     0003 GR
    _time                              **** GX
    _timer_script_duration             **** GX
    _timer_script_ptr                  **** GX
    _timer_script_time                 **** GX
    _triggers                          **** GX
  1 _update_dir                        00A1 GR
    _wait_time                         **** GX
    _win_pos_x                         **** GX
    _win_pos_y                         **** GX

ASxxxx Assembler V01.75  (GameBoy Z80-like CPU), page 2.

Area Table

   0 _CODE                              size    0   flags 0
   1 _DATA                              size   A4   flags 0
   2 _OVERLAY                           size    0   flags 0
   3 _ISEG                              size    0   flags 0
   4 _BSEG                              size    0   flags 0
   5 _XSEG                              size    0   flags 0
   6 _GSINIT                            size   5C   flags 0
   7 _GSFINAL                           size    0   flags 0
   8 _HOME                              size    0   flags 0
   9 _CODE_3                            size 2A18   flags 0
