                              1 ;--------------------------------------------------------
                              2 ; File Created by SDCC : FreeWare ANSI-C Compiler
                              3 ; Version 2.3.1 Thu Nov 21 08:53:19 2019
                              4 
                              5 ;--------------------------------------------------------
                              6 	.module lcc631280
                              7 	
                              8 ;--------------------------------------------------------
                              9 ; Public variables in this module
                             10 ;--------------------------------------------------------
                             11 	.globl _RAMPtr
                             12 	.globl _scriptrunner_bank
                             13 	.globl _Script_Noop_b
                             14 	.globl _Script_End_b
                             15 	.globl _Script_Text_b
                             16 	.globl _Script_Goto_b
                             17 	.globl _Script_IfFlag_b
                             18 	.globl _Script_IfValue_b
                             19 	.globl _Script_SetFlag_b
                             20 	.globl _Script_ClearFlag_b
                             21 	.globl _Script_ActorSetDir_b
                             22 	.globl _Script_ActorActivate_b
                             23 	.globl _Script_CameraMoveTo_b
                             24 	.globl _Script_CameraLock_b
                             25 	.globl _Script_Wait_b
                             26 	.globl _Script_FadeOut_b
                             27 	.globl _Script_FadeIn_b
                             28 	.globl _Script_LoadScene_b
                             29 	.globl _Script_ActorSetPos_b
                             30 	.globl _Script_ActorMoveTo_b
                             31 	.globl _Script_ShowSprites_b
                             32 	.globl _Script_HideSprites_b
                             33 	.globl _Script_ActorShow_b
                             34 	.globl _Script_ActorHide_b
                             35 	.globl _Script_ActorSetEmote_b
                             36 	.globl _Script_CameraShake_b
                             37 	.globl _Script_ShowOverlay_b
                             38 	.globl _Script_HideOverlay_b
                             39 	.globl _Script_OverlaySetPos_b
                             40 	.globl _Script_OverlayMoveTo_b
                             41 	.globl _Script_AwaitInput_b
                             42 	.globl _Script_MusicPlay_b
                             43 	.globl _Script_MusicStop_b
                             44 	.globl _Script_ResetVariables_b
                             45 	.globl _Script_NextFrame_b
                             46 	.globl _Script_IncFlag_b
                             47 	.globl _Script_DecFlag_b
                             48 	.globl _Script_SetFlagValue_b
                             49 	.globl _Script_IfInput_b
                             50 	.globl _Script_Choice_b
                             51 	.globl _Script_PlayerSetSprite_b
                             52 	.globl _Script_ActorPush_b
                             53 	.globl _Script_IfActorPos_b
                             54 	.globl _Script_SaveData_b
                             55 	.globl _Script_LoadData_b
                             56 	.globl _Script_ClearData_b
                             57 	.globl _Script_IfSavedData_b
                             58 	.globl _Script_IfActorDirection_b
                             59 	.globl _Script_SetFlagRandomValue_b
                             60 	.globl _Script_ActorGetPos_b
                             61 	.globl _Script_ActorSetPosToVal_b
                             62 	.globl _Script_ActorMoveToVal_b
                             63 	.globl _Script_ActorMoveRel_b
                             64 	.globl _Script_ActorSetPosRel_b
                             65 	.globl _Script_MathAdd_b
                             66 	.globl _Script_MathSub_b
                             67 	.globl _Script_MathMul_b
                             68 	.globl _Script_MathDiv_b
                             69 	.globl _Script_MathMod_b
                             70 	.globl _Script_MathAddVal_b
                             71 	.globl _Script_MathSubVal_b
                             72 	.globl _Script_MathMulVal_b
                             73 	.globl _Script_MathDivVal_b
                             74 	.globl _Script_MathModVal_b
                             75 	.globl _Script_CopyVal_b
                             76 	.globl _Script_IfValueCompare_b
                             77 	.globl _Script_LoadVectors_b
                             78 	.globl _Script_ActorSetMoveSpeed_b
                             79 	.globl _Script_ActorSetAnimSpeed_b
                             80 	.globl _Script_TextSetAnimSpeed_b
                             81 	.globl _Script_ActorInvoke_b
                             82 	.globl _Script_StackPush_b
                             83 	.globl _Script_StackPop_b
                             84 	.globl _Script_ScenePushState_b
                             85 	.globl _Script_ScenePopState_b
                             86 	.globl _Script_SceneResetStack_b
                             87 	.globl _Script_ScenePopAllState_b
                             88 	.globl _Script_SetInputScript_b
                             89 	.globl _Script_RemoveInputScript_b
                             90 	.globl _Script_ActorSetFrame_b
                             91 	.globl _Script_ActorSetFlip_b
                             92 	.globl _Script_TextMulti_b
                             93 ;--------------------------------------------------------
                             94 ; special function registers
                             95 ;--------------------------------------------------------
                             96 ;--------------------------------------------------------
                             97 ; special function bits 
                             98 ;--------------------------------------------------------
                             99 ;--------------------------------------------------------
                            100 ; internal ram data
                            101 ;--------------------------------------------------------
                            102 	.area _DATA
   0000                     103 _scriptrunner_bank::
   0000                     104 	.ds 1
   0001                     105 _RAMPtr::
   0001                     106 	.ds 2
                            107 ;--------------------------------------------------------
                            108 ; overlayable items in internal ram 
                            109 ;--------------------------------------------------------
                            110 	.area _OVERLAY
                            111 ;--------------------------------------------------------
                            112 ; indirectly addressable internal ram data
                            113 ;--------------------------------------------------------
                            114 	.area _ISEG
                            115 ;--------------------------------------------------------
                            116 ; bit data
                            117 ;--------------------------------------------------------
                            118 	.area _BSEG
                            119 ;--------------------------------------------------------
                            120 ; external ram data
                            121 ;--------------------------------------------------------
                            122 	.area _XSEG
                            123 ;--------------------------------------------------------
                            124 ; global & static initialisations
                            125 ;--------------------------------------------------------
                            126 	.area _GSINIT
                            127 	.area _GSFINAL
                            128 	.area _GSINIT
                            129 ;	src/ScriptRunner_b.c 18
                            130 ;	genAssign
                            131 ;	AOP_HL for _scriptrunner_bank
   0000 21 00 00            132 	ld	hl,#_scriptrunner_bank
   0003 36 04               133 	ld	(hl),#0x04
                            134 ;--------------------------------------------------------
                            135 ; Home
                            136 ;--------------------------------------------------------
                            137 	.area _HOME
                            138 	.area _CODE
                            139 ;--------------------------------------------------------
                            140 ; code
                            141 ;--------------------------------------------------------
                            142 	.area _CODE_4
                            143 ;	src/ScriptRunner_b.c 28
                            144 ;	genLabel
                            145 ;	genFunction
                            146 ;	---------------------------------
                            147 ; Function Script_Noop_b
                            148 ; ---------------------------------
   0000                     149 ___Script_Noop_b_start:
   0000                     150 _Script_Noop_b:
                            151 	
                            152 ;	src/ScriptRunner_b.c 30
                            153 ;	genPlus
                            154 ;	AOP_HL for _script_cmd_args_len
                            155 ;	genPlusIncr
   0000 21 00 00            156 	ld	hl,#_script_cmd_args_len
   0003 4E                  157 	ld	c,(hl)
   0004 0C                  158 	inc	c
                            159 ;	genCast
                            160 ; Removed redundent load
   0005 06 00               161 	ld	b,#0x00
                            162 ;	genPlus
                            163 ;	AOP_HL for _script_ptr
                            164 ;	Can't optimise plus by inc, falling back to the normal way
   0007 21 00 00            165 	ld	hl,#_script_ptr
   000A 7E                  166 	ld	a,(hl)
   000B 81                  167 	add	a,c
   000C 22                  168 	ld	(hl+),a
   000D 7E                  169 	ld	a,(hl)
   000E 88                  170 	adc	a,b
   000F 77                  171 	ld	(hl),a
                            172 ;	genLabel
   0010                     173 00101$:
                            174 ;	genEndFunction
                            175 	
   0010 C9                  176 	ret
   0011                     177 ___Script_Noop_b_end:
                            178 ;	src/ScriptRunner_b.c 38
                            179 ;	genLabel
                            180 ;	genFunction
                            181 ;	---------------------------------
                            182 ; Function Script_End_b
                            183 ; ---------------------------------
   0011                     184 ___Script_End_b_start:
   0011                     185 _Script_End_b:
                            186 	
                            187 ;	src/ScriptRunner_b.c 40
                            188 ;	genAssign
                            189 ;	AOP_HL for _script_ptr_bank
   0011 21 00 00            190 	ld	hl,#_script_ptr_bank
   0014 36 00               191 	ld	(hl),#0x00
                            192 ;	src/ScriptRunner_b.c 41
                            193 ;	genAssign
                            194 ;	AOP_HL for _script_ptr
   0016 21 00 00            195 	ld	hl,#_script_ptr
   0019 36 00               196 	ld	(hl),#0x00
   001B 23                  197 	inc	hl
   001C 36 00               198 	ld	(hl),#0x00
                            199 ;	genLabel
   001E                     200 00101$:
                            201 ;	genEndFunction
                            202 	
   001E C9                  203 	ret
   001F                     204 ___Script_End_b_end:
                            205 ;	src/ScriptRunner_b.c 52
                            206 ;	genLabel
                            207 ;	genFunction
                            208 ;	---------------------------------
                            209 ; Function Script_Text_b
                            210 ; ---------------------------------
   001F                     211 ___Script_Text_b_start:
   001F                     212 _Script_Text_b:
   001F E8 FD               213 	lda	sp,-3(sp)
                            214 ;	src/ScriptRunner_b.c 54
                            215 ;	genPlus
                            216 ;	AOP_HL for _script_cmd_args_len
                            217 ;	genPlusIncr
   0021 21 00 00            218 	ld	hl,#_script_cmd_args_len
   0024 4E                  219 	ld	c,(hl)
   0025 0C                  220 	inc	c
                            221 ;	genCast
                            222 ; Removed redundent load
   0026 06 00               223 	ld	b,#0x00
                            224 ;	genPlus
                            225 ;	AOP_HL for _script_ptr
                            226 ;	Can't optimise plus by inc, falling back to the normal way
   0028 21 00 00            227 	ld	hl,#_script_ptr
   002B 7E                  228 	ld	a,(hl)
   002C 81                  229 	add	a,c
   002D 22                  230 	ld	(hl+),a
   002E 7E                  231 	ld	a,(hl)
   002F 88                  232 	adc	a,b
   0030 77                  233 	ld	(hl),a
                            234 ;	src/ScriptRunner_b.c 55
                            235 ;	genPointerGet
   0031 11 00 00            236 	ld	de,#_script_cmd_args
   0034 1A                  237 	ld	a,(de)
   0035 4F                  238 	ld	c,a
                            239 ;	genCast
                            240 ; Removed redundent load
   0036 06 00               241 	ld	b,#0x00
                            242 ;	genLeftShift
   0038 41                  243 	ld	b,c
   0039 0E 00               244 	ld	c,#0x00
                            245 ;	genPlus
                            246 ;	AOP_STK for _Script_Text_b_sloc0_1_0
                            247 ;	genPlusIncr
                            248 ;	Can't optimise plus by inc, falling back to the normal way
   003B 11 00 00            249 	ld	de,#_script_cmd_args
   003E 21 01 00            250 	ld	hl,#0x0001
   0041 19                  251 	add	hl,de
   0042 7D                  252 	ld	a,l
   0043 54                  253 	ld	d,h
   0044 F8 01               254 	lda	hl,1(sp)
                            255 ;	genPointerGet
                            256 ;	AOP_STK for _Script_Text_b_sloc0_1_0
                            257 ;	AOP_STK for _Script_Text_b_sloc1_1_0
   0046 22                  258 	ld	(hl+),a
   0047 72                  259 	ld	(hl),d
   0048 5F                  260 	ld	e,a
   0049 1A                  261 	ld	a,(de)
   004A 2B                  262 	dec	hl
   004B 2B                  263 	dec	hl
   004C 77                  264 	ld	(hl),a
                            265 ;	genCast
                            266 ;	AOP_STK for _Script_Text_b_sloc1_1_0
                            267 ;	AOP_STK for _Script_Text_b_sloc0_1_0
   004D 2A                  268 	ld	a,(hl+)
   004E 22                  269 	ld	(hl+),a
   004F 36 00               270 	ld	(hl),#0x00
                            271 ;	genPlus
                            272 ;	AOP_STK for _Script_Text_b_sloc0_1_0
                            273 ;	Can't optimise plus by inc, falling back to the normal way
   0051 2B                  274 	dec	hl
   0052 2A                  275 	ld	a,(hl+)
   0053 66                  276 	ld	h,(hl)
   0054 6F                  277 	ld	l,a
   0055 09                  278 	add	hl,bc
   0056 4D                  279 	ld	c,l
   0057 44                  280 	ld	b,h
                            281 ;	genIpush
                            282 ; _saveRegsForCall: sendSetSize: 0 deInUse: 0 bcInUse: 0 deSending: 0
   0058 C5                  283 	push	bc
                            284 ;	genCall
   0059 CD 00 00            285 	call	_UIShowText
   005C E8 02               286 	lda	sp,2(sp)
                            287 ;	src/ScriptRunner_b.c 56
                            288 ;	genAssign
                            289 ;	AOP_HL for _script_action_complete
   005E 21 00 00            290 	ld	hl,#_script_action_complete
   0061 36 00               291 	ld	(hl),#0x00
                            292 ;	genLabel
   0063                     293 00101$:
                            294 ;	genEndFunction
   0063 E8 03               295 	lda	sp,3(sp)
   0065 C9                  296 	ret
   0066                     297 ___Script_Text_b_end:
                            298 ;	src/ScriptRunner_b.c 67
                            299 ;	genLabel
                            300 ;	genFunction
                            301 ;	---------------------------------
                            302 ; Function Script_Goto_b
                            303 ; ---------------------------------
   0066                     304 ___Script_Goto_b_start:
   0066                     305 _Script_Goto_b:
   0066 E8 FD               306 	lda	sp,-3(sp)
                            307 ;	src/ScriptRunner_b.c 69
                            308 ;	genPointerGet
   0068 11 00 00            309 	ld	de,#_script_cmd_args
   006B 1A                  310 	ld	a,(de)
   006C 4F                  311 	ld	c,a
                            312 ;	genCast
                            313 ; Removed redundent load
   006D 06 00               314 	ld	b,#0x00
                            315 ;	genLeftShift
   006F 41                  316 	ld	b,c
   0070 0E 00               317 	ld	c,#0x00
                            318 ;	genPlus
                            319 ;	AOP_HL for _script_start_ptr
                            320 ;	Can't optimise plus by inc, falling back to the normal way
   0072 21 00 00            321 	ld	hl,#_script_start_ptr
   0075 7E                  322 	ld	a,(hl)
   0076 81                  323 	add	a,c
   0077 4F                  324 	ld	c,a
   0078 23                  325 	inc	hl
   0079 7E                  326 	ld	a,(hl)
   007A 88                  327 	adc	a,b
   007B 47                  328 	ld	b,a
                            329 ;	genPlus
                            330 ;	AOP_STK for _Script_Goto_b_sloc0_1_0
                            331 ;	genPlusIncr
                            332 ;	Can't optimise plus by inc, falling back to the normal way
   007C 11 00 00            333 	ld	de,#_script_cmd_args
   007F 21 01 00            334 	ld	hl,#0x0001
   0082 19                  335 	add	hl,de
   0083 7D                  336 	ld	a,l
   0084 54                  337 	ld	d,h
   0085 F8 01               338 	lda	hl,1(sp)
                            339 ;	genPointerGet
                            340 ;	AOP_STK for _Script_Goto_b_sloc0_1_0
                            341 ;	AOP_STK for _Script_Goto_b_sloc1_1_0
   0087 22                  342 	ld	(hl+),a
   0088 72                  343 	ld	(hl),d
   0089 5F                  344 	ld	e,a
   008A 1A                  345 	ld	a,(de)
   008B 2B                  346 	dec	hl
   008C 2B                  347 	dec	hl
   008D 77                  348 	ld	(hl),a
                            349 ;	genCast
                            350 ;	AOP_STK for _Script_Goto_b_sloc1_1_0
                            351 ;	AOP_STK for _Script_Goto_b_sloc0_1_0
   008E 2A                  352 	ld	a,(hl+)
   008F 22                  353 	ld	(hl+),a
   0090 36 00               354 	ld	(hl),#0x00
                            355 ;	genPlus
                            356 ;	AOP_STK for _Script_Goto_b_sloc0_1_0
                            357 ;	AOP_HL for _script_ptr
                            358 ;	Can't optimise plus by inc, falling back to the normal way
   0092 2B                  359 	dec	hl
   0093 2A                  360 	ld	a,(hl+)
   0094 66                  361 	ld	h,(hl)
   0095 6F                  362 	ld	l,a
   0096 09                  363 	add	hl,bc
   0097 7D                  364 	ld	a,l
   0098 54                  365 	ld	d,h
   0099 21 00 00            366 	ld	hl,#_script_ptr
   009C 22                  367 	ld	(hl+),a
   009D 72                  368 	ld	(hl),d
                            369 ;	src/ScriptRunner_b.c 70
                            370 ;	genAssign
                            371 ;	AOP_HL for _script_continue
   009E 21 00 00            372 	ld	hl,#_script_continue
   00A1 36 01               373 	ld	(hl),#0x01
                            374 ;	genLabel
   00A3                     375 00101$:
                            376 ;	genEndFunction
   00A3 E8 03               377 	lda	sp,3(sp)
   00A5 C9                  378 	ret
   00A6                     379 ___Script_Goto_b_end:
                            380 ;	src/ScriptRunner_b.c 83
                            381 ;	genLabel
                            382 ;	genFunction
                            383 ;	---------------------------------
                            384 ; Function Script_IfFlag_b
                            385 ; ---------------------------------
   00A6                     386 ___Script_IfFlag_b_start:
   00A6                     387 _Script_IfFlag_b:
   00A6 E8 FD               388 	lda	sp,-3(sp)
                            389 ;	src/ScriptRunner_b.c 85
                            390 ;	genPointerGet
   00A8 11 00 00            391 	ld	de,#_script_cmd_args
   00AB 1A                  392 	ld	a,(de)
   00AC 4F                  393 	ld	c,a
                            394 ;	genCast
                            395 ; Removed redundent load
   00AD 06 00               396 	ld	b,#0x00
                            397 ;	genLeftShift
   00AF 41                  398 	ld	b,c
   00B0 0E 00               399 	ld	c,#0x00
                            400 ;	genPlus
                            401 ;	AOP_STK for _Script_IfFlag_b_sloc0_1_0
                            402 ;	genPlusIncr
                            403 ;	Can't optimise plus by inc, falling back to the normal way
   00B2 11 00 00            404 	ld	de,#_script_cmd_args
   00B5 21 01 00            405 	ld	hl,#0x0001
   00B8 19                  406 	add	hl,de
   00B9 7D                  407 	ld	a,l
   00BA 54                  408 	ld	d,h
   00BB F8 01               409 	lda	hl,1(sp)
                            410 ;	genPointerGet
                            411 ;	AOP_STK for _Script_IfFlag_b_sloc0_1_0
                            412 ;	AOP_STK for _Script_IfFlag_b_sloc1_1_0
   00BD 22                  413 	ld	(hl+),a
   00BE 72                  414 	ld	(hl),d
   00BF 5F                  415 	ld	e,a
   00C0 1A                  416 	ld	a,(de)
   00C1 2B                  417 	dec	hl
   00C2 2B                  418 	dec	hl
   00C3 77                  419 	ld	(hl),a
                            420 ;	genCast
                            421 ;	AOP_STK for _Script_IfFlag_b_sloc1_1_0
                            422 ;	AOP_STK for _Script_IfFlag_b_sloc0_1_0
   00C4 2A                  423 	ld	a,(hl+)
   00C5 22                  424 	ld	(hl+),a
   00C6 36 00               425 	ld	(hl),#0x00
                            426 ;	genPlus
                            427 ;	AOP_STK for _Script_IfFlag_b_sloc0_1_0
                            428 ;	Can't optimise plus by inc, falling back to the normal way
   00C8 2B                  429 	dec	hl
   00C9 2A                  430 	ld	a,(hl+)
   00CA 66                  431 	ld	h,(hl)
   00CB 6F                  432 	ld	l,a
   00CC 09                  433 	add	hl,bc
   00CD 4D                  434 	ld	c,l
   00CE 44                  435 	ld	b,h
                            436 ;	genPlus
                            437 ;	Can't optimise plus by inc, falling back to the normal way
   00CF 21 00 00            438 	ld	hl,#_script_variables
   00D2 09                  439 	add	hl,bc
   00D3 4D                  440 	ld	c,l
   00D4 44                  441 	ld	b,h
                            442 ;	genPointerGet
   00D5 0A                  443 	ld	a,(bc)
                            444 ;	genIfx
   00D6 B7                  445 	or	a,a
   00D7 CA 13 01            446 	jp	z,00102$
                            447 ;	src/ScriptRunner_b.c 87
                            448 ;	genPlus
                            449 ;	genPlusIncr
   00DA 01 02 00            450 	ld	bc,#_script_cmd_args + 2
                            451 ;	genPointerGet
   00DD 0A                  452 	ld	a,(bc)
   00DE 4F                  453 	ld	c,a
                            454 ;	genCast
                            455 ; Removed redundent load
   00DF 06 00               456 	ld	b,#0x00
                            457 ;	genLeftShift
   00E1 41                  458 	ld	b,c
   00E2 0E 00               459 	ld	c,#0x00
                            460 ;	genPlus
                            461 ;	AOP_HL for _script_start_ptr
                            462 ;	Can't optimise plus by inc, falling back to the normal way
   00E4 21 00 00            463 	ld	hl,#_script_start_ptr
   00E7 7E                  464 	ld	a,(hl)
   00E8 81                  465 	add	a,c
   00E9 4F                  466 	ld	c,a
   00EA 23                  467 	inc	hl
   00EB 7E                  468 	ld	a,(hl)
   00EC 88                  469 	adc	a,b
   00ED 47                  470 	ld	b,a
                            471 ;	genPlus
                            472 ;	AOP_STK for _Script_IfFlag_b_sloc0_1_0
                            473 ;	genPlusIncr
                            474 ;	Can't optimise plus by inc, falling back to the normal way
   00EE 11 00 00            475 	ld	de,#_script_cmd_args
   00F1 21 03 00            476 	ld	hl,#0x0003
   00F4 19                  477 	add	hl,de
   00F5 7D                  478 	ld	a,l
   00F6 54                  479 	ld	d,h
   00F7 F8 01               480 	lda	hl,1(sp)
                            481 ;	genPointerGet
                            482 ;	AOP_STK for _Script_IfFlag_b_sloc0_1_0
                            483 ;	AOP_STK for _Script_IfFlag_b_sloc1_1_0
   00F9 22                  484 	ld	(hl+),a
   00FA 72                  485 	ld	(hl),d
   00FB 5F                  486 	ld	e,a
   00FC 1A                  487 	ld	a,(de)
   00FD 2B                  488 	dec	hl
   00FE 2B                  489 	dec	hl
   00FF 77                  490 	ld	(hl),a
                            491 ;	genCast
                            492 ;	AOP_STK for _Script_IfFlag_b_sloc1_1_0
                            493 ;	AOP_STK for _Script_IfFlag_b_sloc0_1_0
   0100 2A                  494 	ld	a,(hl+)
   0101 22                  495 	ld	(hl+),a
   0102 36 00               496 	ld	(hl),#0x00
                            497 ;	genPlus
                            498 ;	AOP_STK for _Script_IfFlag_b_sloc0_1_0
                            499 ;	AOP_HL for _script_ptr
                            500 ;	Can't optimise plus by inc, falling back to the normal way
   0104 2B                  501 	dec	hl
   0105 2A                  502 	ld	a,(hl+)
   0106 66                  503 	ld	h,(hl)
   0107 6F                  504 	ld	l,a
   0108 09                  505 	add	hl,bc
   0109 7D                  506 	ld	a,l
   010A 54                  507 	ld	d,h
   010B 21 00 00            508 	ld	hl,#_script_ptr
   010E 22                  509 	ld	(hl+),a
   010F 72                  510 	ld	(hl),d
                            511 ;	genGoto
   0110 C3 23 01            512 	jp	00103$
                            513 ;	genLabel
   0113                     514 00102$:
                            515 ;	src/ScriptRunner_b.c 91
                            516 ;	genPlus
                            517 ;	AOP_HL for _script_cmd_args_len
                            518 ;	genPlusIncr
   0113 21 00 00            519 	ld	hl,#_script_cmd_args_len
   0116 4E                  520 	ld	c,(hl)
   0117 0C                  521 	inc	c
                            522 ;	genCast
                            523 ; Removed redundent load
   0118 06 00               524 	ld	b,#0x00
                            525 ;	genPlus
                            526 ;	AOP_HL for _script_ptr
                            527 ;	Can't optimise plus by inc, falling back to the normal way
   011A 21 00 00            528 	ld	hl,#_script_ptr
   011D 7E                  529 	ld	a,(hl)
   011E 81                  530 	add	a,c
   011F 22                  531 	ld	(hl+),a
   0120 7E                  532 	ld	a,(hl)
   0121 88                  533 	adc	a,b
   0122 77                  534 	ld	(hl),a
                            535 ;	genLabel
   0123                     536 00103$:
                            537 ;	src/ScriptRunner_b.c 93
                            538 ;	genAssign
                            539 ;	AOP_HL for _script_continue
   0123 21 00 00            540 	ld	hl,#_script_continue
   0126 36 01               541 	ld	(hl),#0x01
                            542 ;	genLabel
   0128                     543 00104$:
                            544 ;	genEndFunction
   0128 E8 03               545 	lda	sp,3(sp)
   012A C9                  546 	ret
   012B                     547 ___Script_IfFlag_b_end:
                            548 ;	src/ScriptRunner_b.c 108
                            549 ;	genLabel
                            550 ;	genFunction
                            551 ;	---------------------------------
                            552 ; Function Script_IfValue_b
                            553 ; ---------------------------------
   012B                     554 ___Script_IfValue_b_start:
   012B                     555 _Script_IfValue_b:
   012B E8 FB               556 	lda	sp,-5(sp)
                            557 ;	src/ScriptRunner_b.c 111
                            558 ;	genPointerGet
   012D 11 00 00            559 	ld	de,#_script_cmd_args
   0130 1A                  560 	ld	a,(de)
   0131 4F                  561 	ld	c,a
                            562 ;	genCast
                            563 ; Removed redundent load
   0132 06 00               564 	ld	b,#0x00
                            565 ;	genLeftShift
   0134 41                  566 	ld	b,c
   0135 0E 00               567 	ld	c,#0x00
                            568 ;	genPlus
                            569 ;	AOP_STK for _Script_IfValue_b_sloc0_1_0
                            570 ;	genPlusIncr
                            571 ;	Can't optimise plus by inc, falling back to the normal way
   0137 11 00 00            572 	ld	de,#_script_cmd_args
   013A 21 01 00            573 	ld	hl,#0x0001
   013D 19                  574 	add	hl,de
   013E 7D                  575 	ld	a,l
   013F 54                  576 	ld	d,h
   0140 F8 01               577 	lda	hl,1(sp)
                            578 ;	genPointerGet
                            579 ;	AOP_STK for _Script_IfValue_b_sloc0_1_0
                            580 ;	AOP_STK for _Script_IfValue_b_sloc1_1_0
   0142 22                  581 	ld	(hl+),a
   0143 72                  582 	ld	(hl),d
   0144 5F                  583 	ld	e,a
   0145 1A                  584 	ld	a,(de)
   0146 2B                  585 	dec	hl
   0147 2B                  586 	dec	hl
   0148 77                  587 	ld	(hl),a
                            588 ;	genCast
                            589 ;	AOP_STK for _Script_IfValue_b_sloc1_1_0
                            590 ;	AOP_STK for _Script_IfValue_b_sloc0_1_0
   0149 2A                  591 	ld	a,(hl+)
   014A 22                  592 	ld	(hl+),a
   014B 36 00               593 	ld	(hl),#0x00
                            594 ;	genPlus
                            595 ;	AOP_STK for _Script_IfValue_b_sloc0_1_0
                            596 ;	Can't optimise plus by inc, falling back to the normal way
   014D 2B                  597 	dec	hl
   014E 2A                  598 	ld	a,(hl+)
   014F 66                  599 	ld	h,(hl)
   0150 6F                  600 	ld	l,a
   0151 09                  601 	add	hl,bc
   0152 4D                  602 	ld	c,l
   0153 44                  603 	ld	b,h
                            604 ;	genAssign
                            605 ;	(registers are the same)
                            606 ;	src/ScriptRunner_b.c 112
                            607 ;	genPlus
                            608 ;	Can't optimise plus by inc, falling back to the normal way
   0154 21 00 00            609 	ld	hl,#_script_variables
   0157 09                  610 	add	hl,bc
   0158 4D                  611 	ld	c,l
   0159 44                  612 	ld	b,h
                            613 ;	genPointerGet
   015A 0A                  614 	ld	a,(bc)
   015B 4F                  615 	ld	c,a
                            616 ;	genAssign
                            617 ;	AOP_STK for _Script_IfValue_b_value_1_1
   015C F8 04               618 	lda	hl,4(sp)
   015E 71                  619 	ld	(hl),c
                            620 ;	src/ScriptRunner_b.c 114
                            621 ;	genPlus
                            622 ;	genPlusIncr
                            623 ;	Can't optimise plus by inc, falling back to the normal way
   015F 3E 00               624 	ld	a,#<_script_cmd_args
   0161 C6 02               625 	add	a,#0x02
   0163 47                  626 	ld	b,a
   0164 3E 00               627 	ld	a,#>_script_cmd_args
   0166 CE 00               628 	adc	a,#0x00
   0168 4F                  629 	ld	c,a
                            630 ;	genPointerGet
   0169 58                  631 	ld	e,b
   016A 51                  632 	ld	d,c
   016B 1A                  633 	ld	a,(de)
                            634 ;	genCmpLt
   016C 4F                  635 	ld	c,a
   016D FE 01               636 	cp	#0x01
   016F DA 2C 02            637 	jp	c,00107$
                            638 ;	genCmpGt
   0172 3E 06               639 	ld	a,#0x06
   0174 91                  640 	sub	a,c
   0175 DA 2C 02            641 	jp	c,00107$
                            642 ;	genMinus
   0178 0D                  643 	dec	c
                            644 ;	genJumpTab
   0179 59                  645 	ld	e,c
   017A 16 00               646 	ld	d,#0x00
   017C 21 83 01            647 	ld	hl,#00117$
   017F 19                  648 	add	hl,de
   0180 19                  649 	add	hl,de
   0181 19                  650 	add	hl,de
   0182 E9                  651 	jp	(hl)
   0183                     652 00117$:
   0183 C3 95 01            653 	jp	00101$
   0186 C3 0C 02            654 	jp	00106$
   0189 C3 AD 01            655 	jp	00102$
   018C C3 E1 01            656 	jp	00104$
   018F C3 C8 01            657 	jp	00103$
   0192 C3 F2 01            658 	jp	00105$
                            659 ;	src/ScriptRunner_b.c 117
                            660 ;	genLabel
   0195                     661 00101$:
                            662 ;	genPlus
                            663 ;	genPlusIncr
   0195 01 03 00            664 	ld	bc,#_script_cmd_args + 3
                            665 ;	genPointerGet
   0198 0A                  666 	ld	a,(bc)
   0199 4F                  667 	ld	c,a
                            668 ;	genCmpEq
                            669 ;	AOP_STK for _Script_IfValue_b_value_1_1
                            670 ; genCmpEq: left 1, right 1, result 1
   019A F8 04               671 	lda	hl,4(sp)
   019C 7E                  672 	ld	a,(hl)
   019D B9                  673 	cp	c
   019E C2 A5 01            674 	jp	nz,00118$
   01A1 3E 01               675 	ld	a,#0x01
   01A3 18 01               676 	jr	00119$
   01A5                     677 00118$:
   01A5 AF                  678 	xor	a,a
   01A6                     679 00119$:
   01A6 4F                  680 	ld	c,a
                            681 ;	genAssign
                            682 ;	AOP_STK for _Script_IfValue_b_match_1_1
   01A7 F8 03               683 	lda	hl,3(sp)
   01A9 71                  684 	ld	(hl),c
                            685 ;	src/ScriptRunner_b.c 118
                            686 ;	genGoto
   01AA C3 30 02            687 	jp	00108$
                            688 ;	src/ScriptRunner_b.c 120
                            689 ;	genLabel
   01AD                     690 00102$:
                            691 ;	genPlus
                            692 ;	genPlusIncr
                            693 ;	Can't optimise plus by inc, falling back to the normal way
   01AD 3E 00               694 	ld	a,#<_script_cmd_args
   01AF C6 03               695 	add	a,#0x03
   01B1 47                  696 	ld	b,a
   01B2 3E 00               697 	ld	a,#>_script_cmd_args
   01B4 CE 00               698 	adc	a,#0x00
   01B6 4F                  699 	ld	c,a
                            700 ;	genPointerGet
   01B7 58                  701 	ld	e,b
   01B8 51                  702 	ld	d,c
   01B9 1A                  703 	ld	a,(de)
   01BA 47                  704 	ld	b,a
                            705 ;	genCmpLt
                            706 ;	AOP_STK for _Script_IfValue_b_value_1_1
   01BB F8 04               707 	lda	hl,4(sp)
   01BD 7E                  708 	ld	a,(hl)
   01BE 90                  709 	sub	a,b
   01BF 3E 00               710 	ld	a,#0x00
   01C1 17                  711 	rla
   01C2 47                  712 	ld	b,a
                            713 ;	genAssign
                            714 ;	AOP_STK for _Script_IfValue_b_match_1_1
   01C3 2B                  715 	dec	hl
   01C4 70                  716 	ld	(hl),b
                            717 ;	src/ScriptRunner_b.c 121
                            718 ;	genGoto
   01C5 C3 30 02            719 	jp	00108$
                            720 ;	src/ScriptRunner_b.c 123
                            721 ;	genLabel
   01C8                     722 00103$:
                            723 ;	genPlus
                            724 ;	genPlusIncr
   01C8 01 03 00            725 	ld	bc,#_script_cmd_args + 3
                            726 ;	genPointerGet
   01CB 0A                  727 	ld	a,(bc)
                            728 ;	genCmpGt
                            729 ;	AOP_STK for _Script_IfValue_b_value_1_1
   01CC 4F                  730 	ld	c,a
   01CD F8 04               731 	lda	hl,4(sp)
   01CF 96                  732 	sub	a,(hl)
   01D0 3E 00               733 	ld	a,#0x00
   01D2 17                  734 	rla
   01D3 4F                  735 	ld	c,a
                            736 ;	genNot
   01D4 AF                  737 	xor	a,a
   01D5 B1                  738 	or	a,c
   01D6 D6 01               739 	sub	a,#0x01
   01D8 3E 00               740 	ld	a,#0x00
   01DA 17                  741 	rla
   01DB 4F                  742 	ld	c,a
                            743 ;	genAssign
                            744 ;	AOP_STK for _Script_IfValue_b_match_1_1
   01DC 2B                  745 	dec	hl
   01DD 71                  746 	ld	(hl),c
                            747 ;	src/ScriptRunner_b.c 124
                            748 ;	genGoto
   01DE C3 30 02            749 	jp	00108$
                            750 ;	src/ScriptRunner_b.c 126
                            751 ;	genLabel
   01E1                     752 00104$:
                            753 ;	genPlus
                            754 ;	genPlusIncr
   01E1 01 03 00            755 	ld	bc,#_script_cmd_args + 3
                            756 ;	genPointerGet
   01E4 0A                  757 	ld	a,(bc)
                            758 ;	genCmpGt
                            759 ;	AOP_STK for _Script_IfValue_b_value_1_1
   01E5 4F                  760 	ld	c,a
   01E6 F8 04               761 	lda	hl,4(sp)
   01E8 96                  762 	sub	a,(hl)
   01E9 3E 00               763 	ld	a,#0x00
   01EB 17                  764 	rla
   01EC 4F                  765 	ld	c,a
                            766 ;	genAssign
                            767 ;	AOP_STK for _Script_IfValue_b_match_1_1
   01ED 2B                  768 	dec	hl
   01EE 71                  769 	ld	(hl),c
                            770 ;	src/ScriptRunner_b.c 127
                            771 ;	genGoto
   01EF C3 30 02            772 	jp	00108$
                            773 ;	src/ScriptRunner_b.c 129
                            774 ;	genLabel
   01F2                     775 00105$:
                            776 ;	genPlus
                            777 ;	genPlusIncr
   01F2 01 03 00            778 	ld	bc,#_script_cmd_args + 3
                            779 ;	genPointerGet
   01F5 0A                  780 	ld	a,(bc)
   01F6 4F                  781 	ld	c,a
                            782 ;	genCmpLt
                            783 ;	AOP_STK for _Script_IfValue_b_value_1_1
   01F7 F8 04               784 	lda	hl,4(sp)
   01F9 7E                  785 	ld	a,(hl)
   01FA 91                  786 	sub	a,c
   01FB 3E 00               787 	ld	a,#0x00
   01FD 17                  788 	rla
   01FE 4F                  789 	ld	c,a
                            790 ;	genNot
   01FF AF                  791 	xor	a,a
   0200 B1                  792 	or	a,c
   0201 D6 01               793 	sub	a,#0x01
   0203 3E 00               794 	ld	a,#0x00
   0205 17                  795 	rla
   0206 4F                  796 	ld	c,a
                            797 ;	genAssign
                            798 ;	AOP_STK for _Script_IfValue_b_match_1_1
   0207 2B                  799 	dec	hl
   0208 71                  800 	ld	(hl),c
                            801 ;	src/ScriptRunner_b.c 130
                            802 ;	genGoto
   0209 C3 30 02            803 	jp	00108$
                            804 ;	src/ScriptRunner_b.c 132
                            805 ;	genLabel
   020C                     806 00106$:
                            807 ;	genPlus
                            808 ;	genPlusIncr
   020C 01 03 00            809 	ld	bc,#_script_cmd_args + 3
                            810 ;	genPointerGet
   020F 0A                  811 	ld	a,(bc)
   0210 4F                  812 	ld	c,a
                            813 ;	genCmpEq
                            814 ;	AOP_STK for _Script_IfValue_b_value_1_1
                            815 ; genCmpEq: left 1, right 1, result 1
   0211 F8 04               816 	lda	hl,4(sp)
   0213 7E                  817 	ld	a,(hl)
   0214 B9                  818 	cp	c
   0215 C2 1C 02            819 	jp	nz,00120$
   0218 3E 01               820 	ld	a,#0x01
   021A 18 01               821 	jr	00121$
   021C                     822 00120$:
   021C AF                  823 	xor	a,a
   021D                     824 00121$:
   021D 4F                  825 	ld	c,a
                            826 ;	genNot
   021E AF                  827 	xor	a,a
   021F B1                  828 	or	a,c
   0220 D6 01               829 	sub	a,#0x01
   0222 3E 00               830 	ld	a,#0x00
   0224 17                  831 	rla
   0225 4F                  832 	ld	c,a
                            833 ;	genAssign
                            834 ;	AOP_STK for _Script_IfValue_b_match_1_1
   0226 F8 03               835 	lda	hl,3(sp)
   0228 71                  836 	ld	(hl),c
                            837 ;	src/ScriptRunner_b.c 133
                            838 ;	genGoto
   0229 C3 30 02            839 	jp	00108$
                            840 ;	src/ScriptRunner_b.c 135
                            841 ;	genLabel
   022C                     842 00107$:
                            843 ;	genAssign
                            844 ;	AOP_STK for _Script_IfValue_b_match_1_1
   022C F8 03               845 	lda	hl,3(sp)
   022E 36 00               846 	ld	(hl),#0x00
                            847 ;	src/ScriptRunner_b.c 136
                            848 ;	genLabel
   0230                     849 00108$:
                            850 ;	src/ScriptRunner_b.c 138
                            851 ;	genIfx
                            852 ;	AOP_STK for _Script_IfValue_b_match_1_1
   0230 AF                  853 	xor	a,a
   0231 F8 03               854 	lda	hl,3(sp)
   0233 B6                  855 	or	a,(hl)
   0234 CA 70 02            856 	jp	z,00110$
                            857 ;	src/ScriptRunner_b.c 140
                            858 ;	genPlus
                            859 ;	genPlusIncr
   0237 01 04 00            860 	ld	bc,#_script_cmd_args + 4
                            861 ;	genPointerGet
   023A 0A                  862 	ld	a,(bc)
   023B 4F                  863 	ld	c,a
                            864 ;	genCast
                            865 ; Removed redundent load
   023C 06 00               866 	ld	b,#0x00
                            867 ;	genLeftShift
   023E 41                  868 	ld	b,c
   023F 0E 00               869 	ld	c,#0x00
                            870 ;	genPlus
                            871 ;	AOP_HL for _script_start_ptr
                            872 ;	Can't optimise plus by inc, falling back to the normal way
   0241 21 00 00            873 	ld	hl,#_script_start_ptr
   0244 7E                  874 	ld	a,(hl)
   0245 81                  875 	add	a,c
   0246 4F                  876 	ld	c,a
   0247 23                  877 	inc	hl
   0248 7E                  878 	ld	a,(hl)
   0249 88                  879 	adc	a,b
   024A 47                  880 	ld	b,a
                            881 ;	genPlus
                            882 ;	AOP_STK for _Script_IfValue_b_sloc0_1_0
                            883 ;	genPlusIncr
                            884 ;	Can't optimise plus by inc, falling back to the normal way
   024B 11 00 00            885 	ld	de,#_script_cmd_args
   024E 21 05 00            886 	ld	hl,#0x0005
   0251 19                  887 	add	hl,de
   0252 7D                  888 	ld	a,l
   0253 54                  889 	ld	d,h
   0254 F8 01               890 	lda	hl,1(sp)
                            891 ;	genPointerGet
                            892 ;	AOP_STK for _Script_IfValue_b_sloc0_1_0
                            893 ;	AOP_STK for _Script_IfValue_b_sloc1_1_0
   0256 22                  894 	ld	(hl+),a
   0257 72                  895 	ld	(hl),d
   0258 5F                  896 	ld	e,a
   0259 1A                  897 	ld	a,(de)
   025A 2B                  898 	dec	hl
   025B 2B                  899 	dec	hl
   025C 77                  900 	ld	(hl),a
                            901 ;	genCast
                            902 ;	AOP_STK for _Script_IfValue_b_sloc1_1_0
                            903 ;	AOP_STK for _Script_IfValue_b_sloc0_1_0
   025D 2A                  904 	ld	a,(hl+)
   025E 22                  905 	ld	(hl+),a
   025F 36 00               906 	ld	(hl),#0x00
                            907 ;	genPlus
                            908 ;	AOP_STK for _Script_IfValue_b_sloc0_1_0
                            909 ;	AOP_HL for _script_ptr
                            910 ;	Can't optimise plus by inc, falling back to the normal way
   0261 2B                  911 	dec	hl
   0262 2A                  912 	ld	a,(hl+)
   0263 66                  913 	ld	h,(hl)
   0264 6F                  914 	ld	l,a
   0265 09                  915 	add	hl,bc
   0266 7D                  916 	ld	a,l
   0267 54                  917 	ld	d,h
   0268 21 00 00            918 	ld	hl,#_script_ptr
   026B 22                  919 	ld	(hl+),a
   026C 72                  920 	ld	(hl),d
                            921 ;	genGoto
   026D C3 80 02            922 	jp	00111$
                            923 ;	genLabel
   0270                     924 00110$:
                            925 ;	src/ScriptRunner_b.c 144
                            926 ;	genPlus
                            927 ;	AOP_HL for _script_cmd_args_len
                            928 ;	genPlusIncr
   0270 21 00 00            929 	ld	hl,#_script_cmd_args_len
   0273 4E                  930 	ld	c,(hl)
   0274 0C                  931 	inc	c
                            932 ;	genCast
                            933 ; Removed redundent load
   0275 06 00               934 	ld	b,#0x00
                            935 ;	genPlus
                            936 ;	AOP_HL for _script_ptr
                            937 ;	Can't optimise plus by inc, falling back to the normal way
   0277 21 00 00            938 	ld	hl,#_script_ptr
   027A 7E                  939 	ld	a,(hl)
   027B 81                  940 	add	a,c
   027C 22                  941 	ld	(hl+),a
   027D 7E                  942 	ld	a,(hl)
   027E 88                  943 	adc	a,b
   027F 77                  944 	ld	(hl),a
                            945 ;	genLabel
   0280                     946 00111$:
                            947 ;	src/ScriptRunner_b.c 146
                            948 ;	genAssign
                            949 ;	AOP_HL for _script_continue
   0280 21 00 00            950 	ld	hl,#_script_continue
   0283 36 01               951 	ld	(hl),#0x01
                            952 ;	genLabel
   0285                     953 00112$:
                            954 ;	genEndFunction
   0285 E8 05               955 	lda	sp,5(sp)
   0287 C9                  956 	ret
   0288                     957 ___Script_IfValue_b_end:
                            958 ;	src/ScriptRunner_b.c 157
                            959 ;	genLabel
                            960 ;	genFunction
                            961 ;	---------------------------------
                            962 ; Function Script_SetFlag_b
                            963 ; ---------------------------------
   0288                     964 ___Script_SetFlag_b_start:
   0288                     965 _Script_SetFlag_b:
   0288 E8 FD               966 	lda	sp,-3(sp)
                            967 ;	src/ScriptRunner_b.c 159
                            968 ;	genPointerGet
   028A 11 00 00            969 	ld	de,#_script_cmd_args
   028D 1A                  970 	ld	a,(de)
   028E 4F                  971 	ld	c,a
                            972 ;	genCast
                            973 ; Removed redundent load
   028F 06 00               974 	ld	b,#0x00
                            975 ;	genLeftShift
   0291 41                  976 	ld	b,c
   0292 0E 00               977 	ld	c,#0x00
                            978 ;	genPlus
                            979 ;	AOP_STK for _Script_SetFlag_b_sloc0_1_0
                            980 ;	genPlusIncr
                            981 ;	Can't optimise plus by inc, falling back to the normal way
   0294 11 00 00            982 	ld	de,#_script_cmd_args
   0297 21 01 00            983 	ld	hl,#0x0001
   029A 19                  984 	add	hl,de
   029B 7D                  985 	ld	a,l
   029C 54                  986 	ld	d,h
   029D F8 01               987 	lda	hl,1(sp)
                            988 ;	genPointerGet
                            989 ;	AOP_STK for _Script_SetFlag_b_sloc0_1_0
                            990 ;	AOP_STK for _Script_SetFlag_b_sloc1_1_0
   029F 22                  991 	ld	(hl+),a
   02A0 72                  992 	ld	(hl),d
   02A1 5F                  993 	ld	e,a
   02A2 1A                  994 	ld	a,(de)
   02A3 2B                  995 	dec	hl
   02A4 2B                  996 	dec	hl
   02A5 77                  997 	ld	(hl),a
                            998 ;	genCast
                            999 ;	AOP_STK for _Script_SetFlag_b_sloc1_1_0
                           1000 ;	AOP_STK for _Script_SetFlag_b_sloc0_1_0
   02A6 2A                 1001 	ld	a,(hl+)
   02A7 22                 1002 	ld	(hl+),a
   02A8 36 00              1003 	ld	(hl),#0x00
                           1004 ;	genPlus
                           1005 ;	AOP_STK for _Script_SetFlag_b_sloc0_1_0
                           1006 ;	Can't optimise plus by inc, falling back to the normal way
   02AA 2B                 1007 	dec	hl
   02AB 2A                 1008 	ld	a,(hl+)
   02AC 66                 1009 	ld	h,(hl)
   02AD 6F                 1010 	ld	l,a
   02AE 09                 1011 	add	hl,bc
   02AF 4D                 1012 	ld	c,l
   02B0 44                 1013 	ld	b,h
                           1014 ;	genAssign
                           1015 ;	(registers are the same)
                           1016 ;	src/ScriptRunner_b.c 160
                           1017 ;	genPlus
                           1018 ;	Can't optimise plus by inc, falling back to the normal way
   02B1 21 00 00           1019 	ld	hl,#_script_variables
   02B4 09                 1020 	add	hl,bc
   02B5 4D                 1021 	ld	c,l
   02B6 44                 1022 	ld	b,h
                           1023 ;	genAssign (pointer)
   02B7 3E 01              1024 	ld	a,#0x01
   02B9 02                 1025 	ld	(bc),a
                           1026 ;	src/ScriptRunner_b.c 161
                           1027 ;	genPlus
                           1028 ;	AOP_HL for _script_cmd_args_len
                           1029 ;	genPlusIncr
   02BA 21 00 00           1030 	ld	hl,#_script_cmd_args_len
   02BD 4E                 1031 	ld	c,(hl)
   02BE 0C                 1032 	inc	c
                           1033 ;	genCast
                           1034 ; Removed redundent load
   02BF 06 00              1035 	ld	b,#0x00
                           1036 ;	genPlus
                           1037 ;	AOP_HL for _script_ptr
                           1038 ;	Can't optimise plus by inc, falling back to the normal way
   02C1 21 00 00           1039 	ld	hl,#_script_ptr
   02C4 7E                 1040 	ld	a,(hl)
   02C5 81                 1041 	add	a,c
   02C6 22                 1042 	ld	(hl+),a
   02C7 7E                 1043 	ld	a,(hl)
   02C8 88                 1044 	adc	a,b
   02C9 77                 1045 	ld	(hl),a
                           1046 ;	src/ScriptRunner_b.c 162
                           1047 ;	genAssign
                           1048 ;	AOP_HL for _script_continue
   02CA 21 00 00           1049 	ld	hl,#_script_continue
   02CD 36 01              1050 	ld	(hl),#0x01
                           1051 ;	genLabel
   02CF                    1052 00101$:
                           1053 ;	genEndFunction
   02CF E8 03              1054 	lda	sp,3(sp)
   02D1 C9                 1055 	ret
   02D2                    1056 ___Script_SetFlag_b_end:
                           1057 ;	src/ScriptRunner_b.c 173
                           1058 ;	genLabel
                           1059 ;	genFunction
                           1060 ;	---------------------------------
                           1061 ; Function Script_ClearFlag_b
                           1062 ; ---------------------------------
   02D2                    1063 ___Script_ClearFlag_b_start:
   02D2                    1064 _Script_ClearFlag_b:
   02D2 E8 FD              1065 	lda	sp,-3(sp)
                           1066 ;	src/ScriptRunner_b.c 175
                           1067 ;	genPointerGet
   02D4 11 00 00           1068 	ld	de,#_script_cmd_args
   02D7 1A                 1069 	ld	a,(de)
   02D8 4F                 1070 	ld	c,a
                           1071 ;	genCast
                           1072 ; Removed redundent load
   02D9 06 00              1073 	ld	b,#0x00
                           1074 ;	genLeftShift
   02DB 41                 1075 	ld	b,c
   02DC 0E 00              1076 	ld	c,#0x00
                           1077 ;	genPlus
                           1078 ;	AOP_STK for _Script_ClearFlag_b_sloc0_1_0
                           1079 ;	genPlusIncr
                           1080 ;	Can't optimise plus by inc, falling back to the normal way
   02DE 11 00 00           1081 	ld	de,#_script_cmd_args
   02E1 21 01 00           1082 	ld	hl,#0x0001
   02E4 19                 1083 	add	hl,de
   02E5 7D                 1084 	ld	a,l
   02E6 54                 1085 	ld	d,h
   02E7 F8 01              1086 	lda	hl,1(sp)
                           1087 ;	genPointerGet
                           1088 ;	AOP_STK for _Script_ClearFlag_b_sloc0_1_0
                           1089 ;	AOP_STK for _Script_ClearFlag_b_sloc1_1_0
   02E9 22                 1090 	ld	(hl+),a
   02EA 72                 1091 	ld	(hl),d
   02EB 5F                 1092 	ld	e,a
   02EC 1A                 1093 	ld	a,(de)
   02ED 2B                 1094 	dec	hl
   02EE 2B                 1095 	dec	hl
   02EF 77                 1096 	ld	(hl),a
                           1097 ;	genCast
                           1098 ;	AOP_STK for _Script_ClearFlag_b_sloc1_1_0
                           1099 ;	AOP_STK for _Script_ClearFlag_b_sloc0_1_0
   02F0 2A                 1100 	ld	a,(hl+)
   02F1 22                 1101 	ld	(hl+),a
   02F2 36 00              1102 	ld	(hl),#0x00
                           1103 ;	genPlus
                           1104 ;	AOP_STK for _Script_ClearFlag_b_sloc0_1_0
                           1105 ;	Can't optimise plus by inc, falling back to the normal way
   02F4 2B                 1106 	dec	hl
   02F5 2A                 1107 	ld	a,(hl+)
   02F6 66                 1108 	ld	h,(hl)
   02F7 6F                 1109 	ld	l,a
   02F8 09                 1110 	add	hl,bc
   02F9 4D                 1111 	ld	c,l
   02FA 44                 1112 	ld	b,h
                           1113 ;	genAssign
                           1114 ;	(registers are the same)
                           1115 ;	src/ScriptRunner_b.c 176
                           1116 ;	genPlus
                           1117 ;	Can't optimise plus by inc, falling back to the normal way
   02FB 21 00 00           1118 	ld	hl,#_script_variables
   02FE 09                 1119 	add	hl,bc
   02FF 4D                 1120 	ld	c,l
   0300 44                 1121 	ld	b,h
                           1122 ;	genAssign (pointer)
   0301 3E 00              1123 	ld	a,#0x00
   0303 02                 1124 	ld	(bc),a
                           1125 ;	src/ScriptRunner_b.c 177
                           1126 ;	genPlus
                           1127 ;	AOP_HL for _script_cmd_args_len
                           1128 ;	genPlusIncr
   0304 21 00 00           1129 	ld	hl,#_script_cmd_args_len
   0307 4E                 1130 	ld	c,(hl)
   0308 0C                 1131 	inc	c
                           1132 ;	genCast
                           1133 ; Removed redundent load
   0309 06 00              1134 	ld	b,#0x00
                           1135 ;	genPlus
                           1136 ;	AOP_HL for _script_ptr
                           1137 ;	Can't optimise plus by inc, falling back to the normal way
   030B 21 00 00           1138 	ld	hl,#_script_ptr
   030E 7E                 1139 	ld	a,(hl)
   030F 81                 1140 	add	a,c
   0310 22                 1141 	ld	(hl+),a
   0311 7E                 1142 	ld	a,(hl)
   0312 88                 1143 	adc	a,b
   0313 77                 1144 	ld	(hl),a
                           1145 ;	src/ScriptRunner_b.c 178
                           1146 ;	genAssign
                           1147 ;	AOP_HL for _script_continue
   0314 21 00 00           1148 	ld	hl,#_script_continue
   0317 36 01              1149 	ld	(hl),#0x01
                           1150 ;	genLabel
   0319                    1151 00101$:
                           1152 ;	genEndFunction
   0319 E8 03              1153 	lda	sp,3(sp)
   031B C9                 1154 	ret
   031C                    1155 ___Script_ClearFlag_b_end:
                           1156 ;	src/ScriptRunner_b.c 188
                           1157 ;	genLabel
                           1158 ;	genFunction
                           1159 ;	---------------------------------
                           1160 ; Function Script_ActorSetDir_b
                           1161 ; ---------------------------------
   031C                    1162 ___Script_ActorSetDir_b_start:
   031C                    1163 _Script_ActorSetDir_b:
   031C E8 FB              1164 	lda	sp,-5(sp)
                           1165 ;	src/ScriptRunner_b.c 190
                           1166 ;	genMult
                           1167 ;	AOP_HL for _script_actor
   031E 21 00 00           1168 	ld	hl,#_script_actor
   0321 5E                 1169 	ld	e,(hl)
   0322 16 00              1170 	ld	d,#0x00
   0324 6B                 1171 	ld	l,e
   0325 62                 1172 	ld	h,d
   0326 29                 1173 	add	hl,hl
   0327 29                 1174 	add	hl,hl
   0328 19                 1175 	add	hl,de
   0329 29                 1176 	add	hl,hl
   032A 19                 1177 	add	hl,de
   032B 29                 1178 	add	hl,hl
   032C 4D                 1179 	ld	c,l
   032D 44                 1180 	ld	b,h
                           1181 ;	genPlus
                           1182 ;	Can't optimise plus by inc, falling back to the normal way
   032E 21 00 00           1183 	ld	hl,#_actors
   0331 09                 1184 	add	hl,bc
   0332 4D                 1185 	ld	c,l
   0333 44                 1186 	ld	b,h
                           1187 ;	genPlus
                           1188 ;	AOP_STK for _Script_ActorSetDir_b_sloc0_1_0
                           1189 ;	genPlusIncr
                           1190 ;	Can't optimise plus by inc, falling back to the normal way
   0334 21 03 00           1191 	ld	hl,#0x0003
   0337 09                 1192 	add	hl,bc
   0338 7D                 1193 	ld	a,l
   0339 54                 1194 	ld	d,h
   033A F8 03              1195 	lda	hl,3(sp)
   033C 22                 1196 	ld	(hl+),a
   033D 72                 1197 	ld	(hl),d
                           1198 ;	genPointerGet
                           1199 ;	AOP_STK for _Script_ActorSetDir_b_sloc1_1_0
   033E 11 00 00           1200 	ld	de,#_script_cmd_args
   0341 1A                 1201 	ld	a,(de)
   0342 2B                 1202 	dec	hl
   0343 2B                 1203 	dec	hl
                           1204 ;	genCmpEq
                           1205 ;	AOP_STK for _Script_ActorSetDir_b_sloc1_1_0
                           1206 ; genCmpEq: left 1, right 1, result 0
   0344 77                 1207 	ld      (hl),a
                           1208 ; Removed redundent load
   0345 FE 02              1209 	cp	a,#0x02
   0347 C2 56 03           1210 	jp	nz,00103$
   034A 18 03              1211 	jr	00116$
   034C                    1212 00115$:
   034C C3 56 03           1213 	jp	00103$
   034F                    1214 00116$:
                           1215 ;	genAssign
                           1216 ;	AOP_STK for _Script_ActorSetDir_b_sloc2_1_0
   034F F8 01              1217 	lda	hl,1(sp)
   0351 36 FF              1218 	ld	(hl),#0xFF
                           1219 ;	genGoto
   0353 C3 72 03           1220 	jp	00104$
                           1221 ;	genLabel
   0356                    1222 00103$:
                           1223 ;	genCmpEq
                           1224 ;	AOP_STK for _Script_ActorSetDir_b_sloc1_1_0
                           1225 ; genCmpEq: left 1, right 1, result 0
   0356 F8 02              1226 	lda	hl,2(sp)
   0358 7E                 1227 	ld	a,(hl)
   0359 FE 04              1228 	cp	a,#0x04
   035B C2 6A 03           1229 	jp	nz,00105$
   035E 18 03              1230 	jr	00118$
   0360                    1231 00117$:
   0360 C3 6A 03           1232 	jp	00105$
   0363                    1233 00118$:
                           1234 ;	genAssign
                           1235 ;	AOP_STK for _Script_ActorSetDir_b_sloc3_1_0
   0363 F8 00              1236 	lda	hl,0(sp)
   0365 36 01              1237 	ld	(hl),#0x01
                           1238 ;	genGoto
   0367 C3 6E 03           1239 	jp	00106$
                           1240 ;	genLabel
   036A                    1241 00105$:
                           1242 ;	genAssign
                           1243 ;	AOP_STK for _Script_ActorSetDir_b_sloc3_1_0
   036A F8 00              1244 	lda	hl,0(sp)
   036C 36 00              1245 	ld	(hl),#0x00
                           1246 ;	genLabel
   036E                    1247 00106$:
                           1248 ;	genAssign
                           1249 ;	AOP_STK for _Script_ActorSetDir_b_sloc3_1_0
                           1250 ;	AOP_STK for _Script_ActorSetDir_b_sloc2_1_0
   036E F8 00              1251 	lda	hl,0(sp)
   0370 2A                 1252 	ld	a,(hl+)
   0371 77                 1253 	ld	(hl),a
                           1254 ;	genLabel
   0372                    1255 00104$:
                           1256 ;	genAssign (pointer)
                           1257 ;	AOP_STK for _Script_ActorSetDir_b_sloc0_1_0
                           1258 ;	AOP_STK for _Script_ActorSetDir_b_sloc2_1_0
   0372 F8 03              1259 	lda	hl,3(sp)
   0374 5E                 1260 	ld	e,(hl)
   0375 23                 1261 	inc	hl
   0376 56                 1262 	ld	d,(hl)
   0377 F8 01              1263 	lda	hl,1(sp)
   0379 7E                 1264 	ld	a,(hl)
   037A 12                 1265 	ld	(de),a
                           1266 ;	src/ScriptRunner_b.c 191
                           1267 ;	genPlus
                           1268 ;	genPlusIncr
   037B 03                 1269 	inc	bc
   037C 03                 1270 	inc	bc
   037D 03                 1271 	inc	bc
   037E 03                 1272 	inc	bc
                           1273 ;	genCmpEq
                           1274 ;	AOP_STK for _Script_ActorSetDir_b_sloc1_1_0
                           1275 ; genCmpEq: left 1, right 1, result 0
   037F 23                 1276 	inc	hl
   0380 7E                 1277 	ld	a,(hl)
   0381 FE 08              1278 	cp	a,#0x08
   0383 C2 92 03           1279 	jp	nz,00107$
   0386 18 03              1280 	jr	00120$
   0388                    1281 00119$:
   0388 C3 92 03           1282 	jp	00107$
   038B                    1283 00120$:
                           1284 ;	genAssign
                           1285 ;	AOP_STK for _Script_ActorSetDir_b_sloc3_1_0
   038B F8 00              1286 	lda	hl,0(sp)
   038D 36 FF              1287 	ld	(hl),#0xFF
                           1288 ;	genGoto
   038F C3 AF 03           1289 	jp	00108$
                           1290 ;	genLabel
   0392                    1291 00107$:
                           1292 ;	genCmpEq
                           1293 ;	AOP_STK for _Script_ActorSetDir_b_sloc1_1_0
                           1294 ; genCmpEq: left 1, right 1, result 0
   0392 F8 02              1295 	lda	hl,2(sp)
   0394 7E                 1296 	ld	a,(hl)
   0395 FE 01              1297 	cp	a,#0x01
   0397 C2 A6 03           1298 	jp	nz,00109$
   039A 18 03              1299 	jr	00122$
   039C                    1300 00121$:
   039C C3 A6 03           1301 	jp	00109$
   039F                    1302 00122$:
                           1303 ;	genAssign
                           1304 ;	AOP_STK for _Script_ActorSetDir_b_sloc2_1_0
   039F F8 01              1305 	lda	hl,1(sp)
   03A1 36 01              1306 	ld	(hl),#0x01
                           1307 ;	genGoto
   03A3 C3 AA 03           1308 	jp	00110$
                           1309 ;	genLabel
   03A6                    1310 00109$:
                           1311 ;	genAssign
                           1312 ;	AOP_STK for _Script_ActorSetDir_b_sloc2_1_0
   03A6 F8 01              1313 	lda	hl,1(sp)
   03A8 36 00              1314 	ld	(hl),#0x00
                           1315 ;	genLabel
   03AA                    1316 00110$:
                           1317 ;	genAssign
                           1318 ;	AOP_STK for _Script_ActorSetDir_b_sloc2_1_0
                           1319 ;	AOP_STK for _Script_ActorSetDir_b_sloc3_1_0
   03AA F8 01              1320 	lda	hl,1(sp)
   03AC 7E                 1321 	ld	a,(hl)
   03AD 2B                 1322 	dec	hl
   03AE 77                 1323 	ld	(hl),a
                           1324 ;	genLabel
   03AF                    1325 00108$:
                           1326 ;	genAssign (pointer)
                           1327 ;	AOP_STK for _Script_ActorSetDir_b_sloc3_1_0
   03AF F8 00              1328 	lda	hl,0(sp)
   03B1 7E                 1329 	ld	a,(hl)
   03B2 02                 1330 	ld	(bc),a
                           1331 ;	src/ScriptRunner_b.c 192
                           1332 ;	genIpush
                           1333 ; _saveRegsForCall: sendSetSize: 0 deInUse: 0 bcInUse: 0 deSending: 0
                           1334 ;	AOP_HL for _script_actor
   03B3 21 00 00           1335 	ld	hl,#_script_actor
   03B6 7E                 1336 	ld	a,(hl)
   03B7 F5                 1337 	push	af
   03B8 33                 1338 	inc	sp
                           1339 ;	genCall
   03B9 CD 00 00           1340 	call	_SceneRenderActor
   03BC E8 01              1341 	lda	sp,1(sp)
                           1342 ;	src/ScriptRunner_b.c 193
                           1343 ;	genPlus
                           1344 ;	AOP_HL for _script_cmd_args_len
                           1345 ;	genPlusIncr
   03BE 21 00 00           1346 	ld	hl,#_script_cmd_args_len
   03C1 4E                 1347 	ld	c,(hl)
   03C2 0C                 1348 	inc	c
                           1349 ;	genCast
                           1350 ; Removed redundent load
   03C3 06 00              1351 	ld	b,#0x00
                           1352 ;	genPlus
                           1353 ;	AOP_HL for _script_ptr
                           1354 ;	Can't optimise plus by inc, falling back to the normal way
   03C5 21 00 00           1355 	ld	hl,#_script_ptr
   03C8 7E                 1356 	ld	a,(hl)
   03C9 81                 1357 	add	a,c
   03CA 22                 1358 	ld	(hl+),a
   03CB 7E                 1359 	ld	a,(hl)
   03CC 88                 1360 	adc	a,b
   03CD 77                 1361 	ld	(hl),a
                           1362 ;	src/ScriptRunner_b.c 194
                           1363 ;	genAssign
                           1364 ;	AOP_HL for _script_continue
   03CE 21 00 00           1365 	ld	hl,#_script_continue
   03D1 36 01              1366 	ld	(hl),#0x01
                           1367 ;	genLabel
   03D3                    1368 00101$:
                           1369 ;	genEndFunction
   03D3 E8 05              1370 	lda	sp,5(sp)
   03D5 C9                 1371 	ret
   03D6                    1372 ___Script_ActorSetDir_b_end:
                           1373 ;	src/ScriptRunner_b.c 204
                           1374 ;	genLabel
                           1375 ;	genFunction
                           1376 ;	---------------------------------
                           1377 ; Function Script_ActorActivate_b
                           1378 ; ---------------------------------
   03D6                    1379 ___Script_ActorActivate_b_start:
   03D6                    1380 _Script_ActorActivate_b:
                           1381 	
                           1382 ;	src/ScriptRunner_b.c 206
                           1383 ;	genPointerGet
                           1384 ;	AOP_HL for _script_actor
   03D6 11 00 00           1385 	ld	de,#_script_cmd_args
   03D9 1A                 1386 	ld	a,(de)
   03DA 21 00 00           1387 	ld	hl,#_script_actor
   03DD 77                 1388 	ld	(hl),a
                           1389 ;	src/ScriptRunner_b.c 207
                           1390 ;	genPlus
                           1391 ;	AOP_HL for _script_cmd_args_len
                           1392 ;	genPlusIncr
   03DE 21 00 00           1393 	ld	hl,#_script_cmd_args_len
   03E1 4E                 1394 	ld	c,(hl)
   03E2 0C                 1395 	inc	c
                           1396 ;	genCast
                           1397 ; Removed redundent load
   03E3 06 00              1398 	ld	b,#0x00
                           1399 ;	genPlus
                           1400 ;	AOP_HL for _script_ptr
                           1401 ;	Can't optimise plus by inc, falling back to the normal way
   03E5 21 00 00           1402 	ld	hl,#_script_ptr
   03E8 7E                 1403 	ld	a,(hl)
   03E9 81                 1404 	add	a,c
   03EA 22                 1405 	ld	(hl+),a
   03EB 7E                 1406 	ld	a,(hl)
   03EC 88                 1407 	adc	a,b
   03ED 77                 1408 	ld	(hl),a
                           1409 ;	src/ScriptRunner_b.c 208
                           1410 ;	genAssign
                           1411 ;	AOP_HL for _script_continue
   03EE 21 00 00           1412 	ld	hl,#_script_continue
   03F1 36 01              1413 	ld	(hl),#0x01
                           1414 ;	genLabel
   03F3                    1415 00101$:
                           1416 ;	genEndFunction
                           1417 	
   03F3 C9                 1418 	ret
   03F4                    1419 ___Script_ActorActivate_b_end:
                           1420 ;	src/ScriptRunner_b.c 220
                           1421 ;	genLabel
                           1422 ;	genFunction
                           1423 ;	---------------------------------
                           1424 ; Function Script_CameraMoveTo_b
                           1425 ; ---------------------------------
   03F4                    1426 ___Script_CameraMoveTo_b_start:
   03F4                    1427 _Script_CameraMoveTo_b:
   03F4 E8 FD              1428 	lda	sp,-3(sp)
                           1429 ;	src/ScriptRunner_b.c 222
                           1430 ;	genPointerGet
   03F6 11 00 00           1431 	ld	de,#_script_cmd_args
   03F9 1A                 1432 	ld	a,(de)
                           1433 ;	genLeftShift
   03FA 4F                 1434 	ld	c,a
   03FB CB 27              1435 	sla	a
   03FD CB 17              1436 	rl	a
   03FF CB 17              1437 	rl	a
   0401 E6 F8              1438 	and	a,#0xF8
   0403 4F                 1439 	ld	c,a
                           1440 ;	genAssign (pointer)
   0404 11 00 00           1441 	ld	de,#_camera_dest
   0407 79                 1442 	ld	a,c
   0408 12                 1443 	ld	(de),a
                           1444 ;	src/ScriptRunner_b.c 223
                           1445 ;	genPlus
                           1446 ;	genPlusIncr
   0409 01 01 00           1447 	ld	bc,#_camera_dest + 1
                           1448 ;	genAssign (pointer)
   040C 3E 00              1449 	ld	a,#0x00
   040E 02                 1450 	ld	(bc),a
                           1451 ;	src/ScriptRunner_b.c 224
                           1452 ;	genPlus
                           1453 ;	AOP_STK for _Script_CameraMoveTo_b_sloc0_1_0
                           1454 ;	genPlusIncr
                           1455 ;	Can't optimise plus by inc, falling back to the normal way
   040F 11 00 00           1456 	ld	de,#_script_cmd_args
   0412 21 01 00           1457 	ld	hl,#0x0001
   0415 19                 1458 	add	hl,de
   0416 7D                 1459 	ld	a,l
   0417 54                 1460 	ld	d,h
   0418 F8 01              1461 	lda	hl,1(sp)
                           1462 ;	genPointerGet
                           1463 ;	AOP_STK for _Script_CameraMoveTo_b_sloc0_1_0
                           1464 ;	AOP_STK for _Script_CameraMoveTo_b_sloc1_1_0
   041A 22                 1465 	ld	(hl+),a
   041B 72                 1466 	ld	(hl),d
   041C 5F                 1467 	ld	e,a
   041D 1A                 1468 	ld	a,(de)
   041E 2B                 1469 	dec	hl
   041F 2B                 1470 	dec	hl
                           1471 ;	genLeftShift
                           1472 ;	AOP_STK for _Script_CameraMoveTo_b_sloc1_1_0
                           1473 ;	AOP_STK for _Script_CameraMoveTo_b_sloc0_1_0
   0420 77                 1474 	ld      (hl),a
                           1475 ; Removed redundent load
   0421 CB 27              1476 	sla	a
   0423 CB 17              1477 	rl	a
   0425 CB 17              1478 	rl	a
   0427 E6 F8              1479 	and	a,#0xF8
   0429 23                 1480 	inc	hl
                           1481 ;	genAssign (pointer)
                           1482 ;	AOP_STK for _Script_CameraMoveTo_b_sloc0_1_0
   042A 77                 1483 	ld      (hl),a
                           1484 ; Removed redundent load
   042B 02                 1485 	ld	(bc),a
                           1486 ;	src/ScriptRunner_b.c 225
                           1487 ;	genPlus
                           1488 ;	genPlusIncr
   042C 01 02 00           1489 	ld	bc,#_script_cmd_args + 2
                           1490 ;	genPointerGet
   042F 0A                 1491 	ld	a,(bc)
                           1492 ;	genAnd
                           1493 ;	AOP_HL for _camera_settings
   0430 4F                 1494 	ld	c,a
   0431 E6 EF              1495 	and	a,#0xEF
   0433 21 00 00           1496 	ld	hl,#_camera_settings
   0436 77                 1497 	ld	(hl),a
                           1498 ;	src/ScriptRunner_b.c 226
                           1499 ;	genAnd
                           1500 ;	AOP_HL for _camera_speed
   0437 79                 1501 	ld	a,c
   0438 E6 0F              1502 	and	a,#0x0F
   043A 21 00 00           1503 	ld	hl,#_camera_speed
   043D 77                 1504 	ld	(hl),a
                           1505 ;	src/ScriptRunner_b.c 227
                           1506 ;	genPlus
                           1507 ;	AOP_HL for _script_cmd_args_len
                           1508 ;	genPlusIncr
   043E 21 00 00           1509 	ld	hl,#_script_cmd_args_len
   0441 4E                 1510 	ld	c,(hl)
   0442 0C                 1511 	inc	c
                           1512 ;	genCast
                           1513 ; Removed redundent load
   0443 06 00              1514 	ld	b,#0x00
                           1515 ;	genPlus
                           1516 ;	AOP_HL for _script_ptr
                           1517 ;	Can't optimise plus by inc, falling back to the normal way
   0445 21 00 00           1518 	ld	hl,#_script_ptr
   0448 7E                 1519 	ld	a,(hl)
   0449 81                 1520 	add	a,c
   044A 22                 1521 	ld	(hl+),a
   044B 7E                 1522 	ld	a,(hl)
   044C 88                 1523 	adc	a,b
   044D 77                 1524 	ld	(hl),a
                           1525 ;	src/ScriptRunner_b.c 228
                           1526 ;	genAssign
                           1527 ;	AOP_HL for _script_action_complete
   044E 21 00 00           1528 	ld	hl,#_script_action_complete
   0451 36 00              1529 	ld	(hl),#0x00
                           1530 ;	genLabel
   0453                    1531 00101$:
                           1532 ;	genEndFunction
   0453 E8 03              1533 	lda	sp,3(sp)
   0455 C9                 1534 	ret
   0456                    1535 ___Script_CameraMoveTo_b_end:
                           1536 ;	src/ScriptRunner_b.c 238
                           1537 ;	genLabel
                           1538 ;	genFunction
                           1539 ;	---------------------------------
                           1540 ; Function Script_CameraLock_b
                           1541 ; ---------------------------------
   0456                    1542 ___Script_CameraLock_b_start:
   0456                    1543 _Script_CameraLock_b:
   0456 E8 FD              1544 	lda	sp,-3(sp)
                           1545 ;	src/ScriptRunner_b.c 242
                           1546 ;	genPointerGet
   0458 11 00 00           1547 	ld	de,#_script_cmd_args
   045B 1A                 1548 	ld	a,(de)
                           1549 ;	genAnd
                           1550 ;	AOP_HL for _camera_settings
   045C 4F                 1551 	ld	c,a
   045D E6 EF              1552 	and	a,#0xEF
   045F 21 00 00           1553 	ld	hl,#_camera_settings
   0462 77                 1554 	ld	(hl),a
                           1555 ;	src/ScriptRunner_b.c 244
                           1556 ;	genLeftShift
                           1557 ;	AOP_HL for _scene_width
   0463 21 00 00           1558 	ld	hl,#_scene_width
   0466 7E                 1559 	ld	a,(hl)
   0467 CB 27              1560 	sla	a
   0469 CB 17              1561 	rl	a
   046B CB 17              1562 	rl	a
   046D E6 F8              1563 	and	a,#0xF8
                           1564 ;	genMinus
   046F 4F                 1565 	ld	c,a
   0470 C6 B0              1566 	add	a,#0xB0
   0472 4F                 1567 	ld	c,a
                           1568 ;	genPlus
                           1569 ;	AOP_STK for _Script_CameraLock_b_sloc0_1_0
                           1570 ;	genPlusIncr
                           1571 ;	Can't optimise plus by inc, falling back to the normal way
   0473 11 00 00           1572 	ld	de,#_actors
   0476 21 01 00           1573 	ld	hl,#0x0001
   0479 19                 1574 	add	hl,de
   047A 7D                 1575 	ld	a,l
   047B 54                 1576 	ld	d,h
   047C F8 00              1577 	lda	hl,0(sp)
                           1578 ;	genPointerGet
                           1579 ;	AOP_STK for _Script_CameraLock_b_sloc0_1_0
   047E 22                 1580 	ld	(hl+),a
   047F 72                 1581 	ld	(hl),d
   0480 5F                 1582 	ld	e,a
   0481 1A                 1583 	ld	a,(de)
   0482 47                 1584 	ld	b,a
                           1585 ;	genIpush
                           1586 ; _saveRegsForCall: sendSetSize: 0 deInUse: 0 bcInUse: 0 deSending: 0
   0483 79                 1587 	ld	a,c
   0484 F5                 1588 	push	af
   0485 33                 1589 	inc	sp
                           1590 ;	genIpush
   0486 3E 50              1591 	ld	a,#0x50
   0488 F5                 1592 	push	af
   0489 33                 1593 	inc	sp
                           1594 ;	genIpush
   048A 78                 1595 	ld	a,b
   048B F5                 1596 	push	af
   048C 33                 1597 	inc	sp
                           1598 ;	genCall
   048D CD 00 00           1599 	call	_ClampUBYTE
   0490 4B                 1600 	ld	c,e
   0491 E8 03              1601 	lda	sp,3(sp)
                           1602 ;	genAssign
                           1603 ;	(registers are the same)
                           1604 ;	src/ScriptRunner_b.c 245
                           1605 ;	genMinus
   0493 79                 1606 	ld	a,c
   0494 C6 B0              1607 	add	a,#0xB0
   0496 4F                 1608 	ld	c,a
                           1609 ;	genAssign (pointer)
   0497 11 00 00           1610 	ld	de,#_camera_dest
   049A 79                 1611 	ld	a,c
   049B 12                 1612 	ld	(de),a
                           1613 ;	src/ScriptRunner_b.c 246
                           1614 ;	genLeftShift
                           1615 ;	AOP_HL for _scene_height
   049C 21 00 00           1616 	ld	hl,#_scene_height
   049F 7E                 1617 	ld	a,(hl)
   04A0 CB 27              1618 	sla	a
   04A2 CB 17              1619 	rl	a
   04A4 CB 17              1620 	rl	a
   04A6 E6 F8              1621 	and	a,#0xF8
                           1622 ;	genMinus
   04A8 4F                 1623 	ld	c,a
   04A9 C6 B8              1624 	add	a,#0xB8
   04AB 4F                 1625 	ld	c,a
                           1626 ;	genPlus
                           1627 ;	AOP_STK for _Script_CameraLock_b_sloc0_1_0
                           1628 ;	genPlusIncr
                           1629 ;	Can't optimise plus by inc, falling back to the normal way
   04AC 11 00 00           1630 	ld	de,#_actors
   04AF 21 02 00           1631 	ld	hl,#0x0002
   04B2 19                 1632 	add	hl,de
   04B3 7D                 1633 	ld	a,l
   04B4 54                 1634 	ld	d,h
   04B5 F8 00              1635 	lda	hl,0(sp)
                           1636 ;	genPointerGet
                           1637 ;	AOP_STK for _Script_CameraLock_b_sloc0_1_0
   04B7 22                 1638 	ld	(hl+),a
   04B8 72                 1639 	ld	(hl),d
   04B9 5F                 1640 	ld	e,a
   04BA 1A                 1641 	ld	a,(de)
   04BB 47                 1642 	ld	b,a
                           1643 ;	genIpush
                           1644 ; _saveRegsForCall: sendSetSize: 0 deInUse: 0 bcInUse: 0 deSending: 0
   04BC 79                 1645 	ld	a,c
   04BD F5                 1646 	push	af
   04BE 33                 1647 	inc	sp
                           1648 ;	genIpush
   04BF 3E 48              1649 	ld	a,#0x48
   04C1 F5                 1650 	push	af
   04C2 33                 1651 	inc	sp
                           1652 ;	genIpush
   04C3 78                 1653 	ld	a,b
   04C4 F5                 1654 	push	af
   04C5 33                 1655 	inc	sp
                           1656 ;	genCall
   04C6 CD 00 00           1657 	call	_ClampUBYTE
   04C9 4B                 1658 	ld	c,e
   04CA E8 03              1659 	lda	sp,3(sp)
                           1660 ;	genAssign
                           1661 ;	AOP_STK for _Script_CameraLock_b_cam_y_1_1
   04CC F8 02              1662 	lda	hl,2(sp)
   04CE 71                 1663 	ld	(hl),c
                           1664 ;	src/ScriptRunner_b.c 247
                           1665 ;	genPlus
                           1666 ;	genPlusIncr
                           1667 ;	Can't optimise plus by inc, falling back to the normal way
   04CF 3E 00              1668 	ld	a,#<_camera_dest
   04D1 C6 01              1669 	add	a,#0x01
   04D3 47                 1670 	ld	b,a
   04D4 3E 00              1671 	ld	a,#>_camera_dest
   04D6 CE 00              1672 	adc	a,#0x00
   04D8 4F                 1673 	ld	c,a
                           1674 ;	genMinus
                           1675 ;	AOP_STK for _Script_CameraLock_b_cam_y_1_1
                           1676 ;	AOP_STK for _Script_CameraLock_b_sloc0_1_0
   04D9 7E                 1677 	ld	a,(hl)
   04DA C6 B8              1678 	add	a,#0xB8
   04DC 2B                 1679 	dec	hl
   04DD 2B                 1680 	dec	hl
   04DE 77                 1681 	ld	(hl),a
                           1682 ;	genAssign (pointer)
                           1683 ;	AOP_STK for _Script_CameraLock_b_sloc0_1_0
   04DF 58                 1684 	ld	e,b
   04E0 51                 1685 	ld	d,c
   04E1 7E                 1686 	ld	a,(hl)
   04E2 12                 1687 	ld	(de),a
                           1688 ;	src/ScriptRunner_b.c 249
                           1689 ;	genPlus
                           1690 ;	AOP_HL for _script_cmd_args_len
                           1691 ;	genPlusIncr
   04E3 21 00 00           1692 	ld	hl,#_script_cmd_args_len
   04E6 4E                 1693 	ld	c,(hl)
   04E7 0C                 1694 	inc	c
                           1695 ;	genCast
                           1696 ; Removed redundent load
   04E8 06 00              1697 	ld	b,#0x00
                           1698 ;	genPlus
                           1699 ;	AOP_HL for _script_ptr
                           1700 ;	Can't optimise plus by inc, falling back to the normal way
   04EA 21 00 00           1701 	ld	hl,#_script_ptr
   04ED 7E                 1702 	ld	a,(hl)
   04EE 81                 1703 	add	a,c
   04EF 22                 1704 	ld	(hl+),a
   04F0 7E                 1705 	ld	a,(hl)
   04F1 88                 1706 	adc	a,b
   04F2 77                 1707 	ld	(hl),a
                           1708 ;	src/ScriptRunner_b.c 250
                           1709 ;	genAssign
                           1710 ;	AOP_HL for _script_action_complete
   04F3 21 00 00           1711 	ld	hl,#_script_action_complete
   04F6 36 00              1712 	ld	(hl),#0x00
                           1713 ;	genLabel
   04F8                    1714 00101$:
                           1715 ;	genEndFunction
   04F8 E8 03              1716 	lda	sp,3(sp)
   04FA C9                 1717 	ret
   04FB                    1718 ___Script_CameraLock_b_end:
                           1719 ;	src/ScriptRunner_b.c 260
                           1720 ;	genLabel
                           1721 ;	genFunction
                           1722 ;	---------------------------------
                           1723 ; Function Script_Wait_b
                           1724 ; ---------------------------------
   04FB                    1725 ___Script_Wait_b_start:
   04FB                    1726 _Script_Wait_b:
                           1727 	
                           1728 ;	src/ScriptRunner_b.c 262
                           1729 ;	genPointerGet
                           1730 ;	AOP_HL for _wait_time
   04FB 11 00 00           1731 	ld	de,#_script_cmd_args
   04FE 1A                 1732 	ld	a,(de)
   04FF 21 00 00           1733 	ld	hl,#_wait_time
   0502 77                 1734 	ld	(hl),a
                           1735 ;	src/ScriptRunner_b.c 263
                           1736 ;	genPlus
                           1737 ;	AOP_HL for _script_cmd_args_len
                           1738 ;	genPlusIncr
   0503 21 00 00           1739 	ld	hl,#_script_cmd_args_len
   0506 4E                 1740 	ld	c,(hl)
   0507 0C                 1741 	inc	c
                           1742 ;	genCast
                           1743 ; Removed redundent load
   0508 06 00              1744 	ld	b,#0x00
                           1745 ;	genPlus
                           1746 ;	AOP_HL for _script_ptr
                           1747 ;	Can't optimise plus by inc, falling back to the normal way
   050A 21 00 00           1748 	ld	hl,#_script_ptr
   050D 7E                 1749 	ld	a,(hl)
   050E 81                 1750 	add	a,c
   050F 22                 1751 	ld	(hl+),a
   0510 7E                 1752 	ld	a,(hl)
   0511 88                 1753 	adc	a,b
   0512 77                 1754 	ld	(hl),a
                           1755 ;	src/ScriptRunner_b.c 264
                           1756 ;	genAssign
                           1757 ;	AOP_HL for _script_action_complete
   0513 21 00 00           1758 	ld	hl,#_script_action_complete
   0516 36 00              1759 	ld	(hl),#0x00
                           1760 ;	genLabel
   0518                    1761 00101$:
                           1762 ;	genEndFunction
                           1763 	
   0518 C9                 1764 	ret
   0519                    1765 ___Script_Wait_b_end:
                           1766 ;	src/ScriptRunner_b.c 274
                           1767 ;	genLabel
                           1768 ;	genFunction
                           1769 ;	---------------------------------
                           1770 ; Function Script_FadeOut_b
                           1771 ; ---------------------------------
   0519                    1772 ___Script_FadeOut_b_start:
   0519                    1773 _Script_FadeOut_b:
                           1774 	
                           1775 ;	src/ScriptRunner_b.c 276
                           1776 ;	genCall
                           1777 ; _saveRegsForCall: sendSetSize: 0 deInUse: 0 bcInUse: 0 deSending: 0
   0519 CD 00 00           1778 	call	_FadeOut
                           1779 ;	src/ScriptRunner_b.c 277
                           1780 ;	genPointerGet
   051C 11 00 00           1781 	ld	de,#_script_cmd_args
   051F 1A                 1782 	ld	a,(de)
                           1783 ;	genIpush
                           1784 ; _saveRegsForCall: sendSetSize: 0 deInUse: 0 bcInUse: 0 deSending: 0
   0520 4F                 1785 	ld	c,a
   0521 F5                 1786 	push	af
   0522 33                 1787 	inc	sp
                           1788 ;	genCall
   0523 CD 00 00           1789 	call	_FadeSetSpeed
   0526 E8 01              1790 	lda	sp,1(sp)
                           1791 ;	src/ScriptRunner_b.c 278
                           1792 ;	genPlus
                           1793 ;	AOP_HL for _script_cmd_args_len
                           1794 ;	genPlusIncr
   0528 21 00 00           1795 	ld	hl,#_script_cmd_args_len
   052B 4E                 1796 	ld	c,(hl)
   052C 0C                 1797 	inc	c
                           1798 ;	genCast
                           1799 ; Removed redundent load
   052D 06 00              1800 	ld	b,#0x00
                           1801 ;	genPlus
                           1802 ;	AOP_HL for _script_ptr
                           1803 ;	Can't optimise plus by inc, falling back to the normal way
   052F 21 00 00           1804 	ld	hl,#_script_ptr
   0532 7E                 1805 	ld	a,(hl)
   0533 81                 1806 	add	a,c
   0534 22                 1807 	ld	(hl+),a
   0535 7E                 1808 	ld	a,(hl)
   0536 88                 1809 	adc	a,b
   0537 77                 1810 	ld	(hl),a
                           1811 ;	src/ScriptRunner_b.c 279
                           1812 ;	genAssign
                           1813 ;	AOP_HL for _script_action_complete
   0538 21 00 00           1814 	ld	hl,#_script_action_complete
   053B 36 00              1815 	ld	(hl),#0x00
                           1816 ;	genLabel
   053D                    1817 00101$:
                           1818 ;	genEndFunction
                           1819 	
   053D C9                 1820 	ret
   053E                    1821 ___Script_FadeOut_b_end:
                           1822 ;	src/ScriptRunner_b.c 289
                           1823 ;	genLabel
                           1824 ;	genFunction
                           1825 ;	---------------------------------
                           1826 ; Function Script_FadeIn_b
                           1827 ; ---------------------------------
   053E                    1828 ___Script_FadeIn_b_start:
   053E                    1829 _Script_FadeIn_b:
                           1830 	
                           1831 ;	src/ScriptRunner_b.c 291
                           1832 ;	genCall
                           1833 ; _saveRegsForCall: sendSetSize: 0 deInUse: 0 bcInUse: 0 deSending: 0
   053E CD 00 00           1834 	call	_FadeIn
                           1835 ;	src/ScriptRunner_b.c 292
                           1836 ;	genPointerGet
   0541 11 00 00           1837 	ld	de,#_script_cmd_args
   0544 1A                 1838 	ld	a,(de)
                           1839 ;	genIpush
                           1840 ; _saveRegsForCall: sendSetSize: 0 deInUse: 0 bcInUse: 0 deSending: 0
   0545 4F                 1841 	ld	c,a
   0546 F5                 1842 	push	af
   0547 33                 1843 	inc	sp
                           1844 ;	genCall
   0548 CD 00 00           1845 	call	_FadeSetSpeed
   054B E8 01              1846 	lda	sp,1(sp)
                           1847 ;	src/ScriptRunner_b.c 293
                           1848 ;	genPlus
                           1849 ;	AOP_HL for _script_cmd_args_len
                           1850 ;	genPlusIncr
   054D 21 00 00           1851 	ld	hl,#_script_cmd_args_len
   0550 4E                 1852 	ld	c,(hl)
   0551 0C                 1853 	inc	c
                           1854 ;	genCast
                           1855 ; Removed redundent load
   0552 06 00              1856 	ld	b,#0x00
                           1857 ;	genPlus
                           1858 ;	AOP_HL for _script_ptr
                           1859 ;	Can't optimise plus by inc, falling back to the normal way
   0554 21 00 00           1860 	ld	hl,#_script_ptr
   0557 7E                 1861 	ld	a,(hl)
   0558 81                 1862 	add	a,c
   0559 22                 1863 	ld	(hl+),a
   055A 7E                 1864 	ld	a,(hl)
   055B 88                 1865 	adc	a,b
   055C 77                 1866 	ld	(hl),a
                           1867 ;	src/ScriptRunner_b.c 294
                           1868 ;	genAssign
                           1869 ;	AOP_HL for _script_action_complete
   055D 21 00 00           1870 	ld	hl,#_script_action_complete
   0560 36 00              1871 	ld	(hl),#0x00
                           1872 ;	genLabel
   0562                    1873 00101$:
                           1874 ;	genEndFunction
                           1875 	
   0562 C9                 1876 	ret
   0563                    1877 ___Script_FadeIn_b_end:
                           1878 ;	src/ScriptRunner_b.c 309
                           1879 ;	genLabel
                           1880 ;	genFunction
                           1881 ;	---------------------------------
                           1882 ; Function Script_LoadScene_b
                           1883 ; ---------------------------------
   0563                    1884 ___Script_LoadScene_b_start:
   0563                    1885 _Script_LoadScene_b:
   0563 E8 FD              1886 	lda	sp,-3(sp)
                           1887 ;	src/ScriptRunner_b.c 311
                           1888 ;	genPointerGet
   0565 11 00 00           1889 	ld	de,#_script_cmd_args
   0568 1A                 1890 	ld	a,(de)
   0569 4F                 1891 	ld	c,a
                           1892 ;	genCast
                           1893 ; Removed redundent load
   056A 06 00              1894 	ld	b,#0x00
                           1895 ;	genLeftShift
   056C 41                 1896 	ld	b,c
   056D 0E 00              1897 	ld	c,#0x00
                           1898 ;	genPlus
                           1899 ;	AOP_STK for _Script_LoadScene_b_sloc0_1_0
                           1900 ;	genPlusIncr
                           1901 ;	Can't optimise plus by inc, falling back to the normal way
   056F 11 00 00           1902 	ld	de,#_script_cmd_args
   0572 21 01 00           1903 	ld	hl,#0x0001
   0575 19                 1904 	add	hl,de
   0576 7D                 1905 	ld	a,l
   0577 54                 1906 	ld	d,h
   0578 F8 01              1907 	lda	hl,1(sp)
                           1908 ;	genPointerGet
                           1909 ;	AOP_STK for _Script_LoadScene_b_sloc0_1_0
                           1910 ;	AOP_STK for _Script_LoadScene_b_sloc1_1_0
   057A 22                 1911 	ld	(hl+),a
   057B 72                 1912 	ld	(hl),d
   057C 5F                 1913 	ld	e,a
   057D 1A                 1914 	ld	a,(de)
   057E 2B                 1915 	dec	hl
   057F 2B                 1916 	dec	hl
   0580 77                 1917 	ld	(hl),a
                           1918 ;	genCast
                           1919 ;	AOP_STK for _Script_LoadScene_b_sloc1_1_0
                           1920 ;	AOP_STK for _Script_LoadScene_b_sloc0_1_0
   0581 2A                 1921 	ld	a,(hl+)
   0582 22                 1922 	ld	(hl+),a
   0583 36 00              1923 	ld	(hl),#0x00
                           1924 ;	genPlus
                           1925 ;	AOP_STK for _Script_LoadScene_b_sloc0_1_0
                           1926 ;	AOP_HL for _scene_next_index
                           1927 ;	Can't optimise plus by inc, falling back to the normal way
   0585 2B                 1928 	dec	hl
   0586 2A                 1929 	ld	a,(hl+)
   0587 66                 1930 	ld	h,(hl)
   0588 6F                 1931 	ld	l,a
   0589 09                 1932 	add	hl,bc
   058A 7D                 1933 	ld	a,l
   058B 54                 1934 	ld	d,h
   058C 21 00 00           1935 	ld	hl,#_scene_next_index
   058F 22                 1936 	ld	(hl+),a
   0590 72                 1937 	ld	(hl),d
                           1938 ;	src/ScriptRunner_b.c 312
                           1939 ;	genPlus
                           1940 ;	AOP_HL for _scene_next_index
                           1941 ;	AOP_HL for _scene_index
                           1942 ;	genPlusIncr
                           1943 ;	Can't optimise plus by inc, falling back to the normal way
   0591 2B                 1944 	dec	hl
   0592 7E                 1945 	ld	a,(hl)
   0593 C6 01              1946 	add	a,#0x01
   0595 21 00 00           1947 	ld	hl,#_scene_index
   0598 77                 1948 	ld	(hl),a
   0599 21 01 00           1949 	ld	hl,#_scene_next_index + 1
   059C 7E                 1950 	ld	a,(hl)
   059D CE 00              1951 	adc	a,#0x00
   059F 21 01 00           1952 	ld	hl,#_scene_index + 1
   05A2 77                 1953 	ld	(hl),a
                           1954 ;	src/ScriptRunner_b.c 314
                           1955 ;	genAssign (pointer)
   05A3 11 00 00           1956 	ld	de,#_map_next_pos
   05A6 3E 00              1957 	ld	a,#0x00
   05A8 12                 1958 	ld	(de),a
                           1959 ;	src/ScriptRunner_b.c 315
                           1960 ;	genPlus
                           1961 ;	genPlusIncr
   05A9 01 02 00           1962 	ld	bc,#_script_cmd_args + 2
                           1963 ;	genPointerGet
   05AC 0A                 1964 	ld	a,(bc)
                           1965 ;	genLeftShift
   05AD 4F                 1966 	ld	c,a
   05AE CB 27              1967 	sla	a
   05B0 CB 17              1968 	rl	a
   05B2 CB 17              1969 	rl	a
   05B4 E6 F8              1970 	and	a,#0xF8
                           1971 ;	genPlus
                           1972 ;	genPlusIncr
                           1973 ;	Can't optimise plus by inc, falling back to the normal way
   05B6 4F                 1974 	ld	c,a
   05B7 C6 08              1975 	add	a,#0x08
                           1976 ;	genAssign (pointer)
   05B9 11 00 00           1977 	ld	de,#_map_next_pos
   05BC 12                 1978 	ld	(de),a
                           1979 ;	src/ScriptRunner_b.c 316
                           1980 ;	genPlus
                           1981 ;	genPlusIncr
   05BD 01 01 00           1982 	ld	bc,#_map_next_pos + 1
                           1983 ;	genAssign (pointer)
   05C0 3E 00              1984 	ld	a,#0x00
   05C2 02                 1985 	ld	(bc),a
                           1986 ;	src/ScriptRunner_b.c 317
                           1987 ;	genPlus
                           1988 ;	AOP_STK for _Script_LoadScene_b_sloc0_1_0
                           1989 ;	genPlusIncr
                           1990 ;	Can't optimise plus by inc, falling back to the normal way
   05C3 11 00 00           1991 	ld	de,#_script_cmd_args
   05C6 21 03 00           1992 	ld	hl,#0x0003
   05C9 19                 1993 	add	hl,de
   05CA 7D                 1994 	ld	a,l
   05CB 54                 1995 	ld	d,h
   05CC F8 01              1996 	lda	hl,1(sp)
                           1997 ;	genPointerGet
                           1998 ;	AOP_STK for _Script_LoadScene_b_sloc0_1_0
                           1999 ;	AOP_STK for _Script_LoadScene_b_sloc1_1_0
   05CE 22                 2000 	ld	(hl+),a
   05CF 72                 2001 	ld	(hl),d
   05D0 5F                 2002 	ld	e,a
   05D1 1A                 2003 	ld	a,(de)
   05D2 2B                 2004 	dec	hl
   05D3 2B                 2005 	dec	hl
                           2006 ;	genLeftShift
                           2007 ;	AOP_STK for _Script_LoadScene_b_sloc1_1_0
                           2008 ;	AOP_STK for _Script_LoadScene_b_sloc0_1_0
   05D4 77                 2009 	ld      (hl),a
                           2010 ; Removed redundent load
   05D5 CB 27              2011 	sla	a
   05D7 CB 17              2012 	rl	a
   05D9 CB 17              2013 	rl	a
   05DB E6 F8              2014 	and	a,#0xF8
   05DD 23                 2015 	inc	hl
                           2016 ;	genPlus
                           2017 ;	AOP_STK for _Script_LoadScene_b_sloc0_1_0
                           2018 ;	genPlusIncr
                           2019 ;	Can't optimise plus by inc, falling back to the normal way
   05DE 77                 2020 	ld      (hl),a
                           2021 ; Removed redundent load
   05DF C6 08              2022 	add	a,#0x08
                           2023 ;	genAssign (pointer)
   05E1 02                 2024 	ld	(bc),a
                           2025 ;	src/ScriptRunner_b.c 318
                           2026 ;	genPlus
                           2027 ;	genPlusIncr
   05E2 01 04 00           2028 	ld	bc,#_script_cmd_args + 4
                           2029 ;	genPointerGet
   05E5 0A                 2030 	ld	a,(bc)
                           2031 ;	genCmpEq
                           2032 ; genCmpEq: left 1, right 1, result 0
   05E6 4F                 2033 	ld	c,a
   05E7 FE 02              2034 	cp	a,#0x02
   05E9 C2 F6 05           2035 	jp	nz,00103$
   05EC 18 03              2036 	jr	00116$
   05EE                    2037 00115$:
   05EE C3 F6 05           2038 	jp	00103$
   05F1                    2039 00116$:
                           2040 ;	genAssign
   05F1 06 FF              2041 	ld	b,#0xFF
                           2042 ;	genGoto
   05F3 C3 0F 06           2043 	jp	00104$
                           2044 ;	genLabel
   05F6                    2045 00103$:
                           2046 ;	genCmpEq
                           2047 ; genCmpEq: left 1, right 1, result 0
   05F6 79                 2048 	ld	a,c
   05F7 FE 04              2049 	cp	a,#0x04
   05F9 C2 08 06           2050 	jp	nz,00105$
   05FC 18 03              2051 	jr	00118$
   05FE                    2052 00117$:
   05FE C3 08 06           2053 	jp	00105$
   0601                    2054 00118$:
                           2055 ;	genAssign
                           2056 ;	AOP_STK for _Script_LoadScene_b_sloc1_1_0
   0601 F8 00              2057 	lda	hl,0(sp)
   0603 36 01              2058 	ld	(hl),#0x01
                           2059 ;	genGoto
   0605 C3 0C 06           2060 	jp	00106$
                           2061 ;	genLabel
   0608                    2062 00105$:
                           2063 ;	genAssign
                           2064 ;	AOP_STK for _Script_LoadScene_b_sloc1_1_0
   0608 F8 00              2065 	lda	hl,0(sp)
   060A 36 00              2066 	ld	(hl),#0x00
                           2067 ;	genLabel
   060C                    2068 00106$:
                           2069 ;	genAssign
                           2070 ;	AOP_STK for _Script_LoadScene_b_sloc1_1_0
   060C F8 00              2071 	lda	hl,0(sp)
   060E 46                 2072 	ld	b,(hl)
                           2073 ;	genLabel
   060F                    2074 00104$:
                           2075 ;	genAssign (pointer)
   060F 11 00 00           2076 	ld	de,#_map_next_dir
   0612 78                 2077 	ld	a,b
   0613 12                 2078 	ld	(de),a
                           2079 ;	src/ScriptRunner_b.c 319
                           2080 ;	genPlus
                           2081 ;	AOP_STK for _Script_LoadScene_b_sloc0_1_0
                           2082 ;	genPlusIncr
                           2083 ;	Can't optimise plus by inc, falling back to the normal way
   0614 11 00 00           2084 	ld	de,#_map_next_dir
   0617 21 01 00           2085 	ld	hl,#0x0001
   061A 19                 2086 	add	hl,de
   061B 7D                 2087 	ld	a,l
   061C 54                 2088 	ld	d,h
   061D F8 01              2089 	lda	hl,1(sp)
   061F 22                 2090 	ld	(hl+),a
   0620 72                 2091 	ld	(hl),d
                           2092 ;	genCmpEq
                           2093 ; genCmpEq: left 1, right 1, result 0
   0621 79                 2094 	ld	a,c
   0622 FE 08              2095 	cp	a,#0x08
   0624 C2 31 06           2096 	jp	nz,00107$
   0627 18 03              2097 	jr	00120$
   0629                    2098 00119$:
   0629 C3 31 06           2099 	jp	00107$
   062C                    2100 00120$:
                           2101 ;	genAssign
   062C 06 FF              2102 	ld	b,#0xFF
                           2103 ;	genGoto
   062E C3 44 06           2104 	jp	00108$
                           2105 ;	genLabel
   0631                    2106 00107$:
                           2107 ;	genCmpEq
                           2108 ; genCmpEq: left 1, right 1, result 0
   0631 79                 2109 	ld	a,c
   0632 FE 01              2110 	cp	a,#0x01
   0634 C2 41 06           2111 	jp	nz,00109$
   0637 18 03              2112 	jr	00122$
   0639                    2113 00121$:
   0639 C3 41 06           2114 	jp	00109$
   063C                    2115 00122$:
                           2116 ;	genAssign
   063C 0E 01              2117 	ld	c,#0x01
                           2118 ;	genGoto
   063E C3 43 06           2119 	jp	00110$
                           2120 ;	genLabel
   0641                    2121 00109$:
                           2122 ;	genAssign
   0641 0E 00              2123 	ld	c,#0x00
                           2124 ;	genLabel
   0643                    2125 00110$:
                           2126 ;	genAssign
   0643 41                 2127 	ld	b,c
                           2128 ;	genLabel
   0644                    2129 00108$:
                           2130 ;	genAssign (pointer)
                           2131 ;	AOP_STK for _Script_LoadScene_b_sloc0_1_0
   0644 F8 01              2132 	lda	hl,1(sp)
   0646 5E                 2133 	ld	e,(hl)
   0647 23                 2134 	inc	hl
   0648 56                 2135 	ld	d,(hl)
   0649 78                 2136 	ld	a,b
   064A 12                 2137 	ld	(de),a
                           2138 ;	src/ScriptRunner_b.c 321
                           2139 ;	genAssign
                           2140 ;	AOP_HL for _stage_next_type
   064B 21 00 00           2141 	ld	hl,#_stage_next_type
   064E 36 01              2142 	ld	(hl),#0x01
                           2143 ;	src/ScriptRunner_b.c 322
                           2144 ;	genAssign
                           2145 ;	AOP_HL for _script_action_complete
   0650 21 00 00           2146 	ld	hl,#_script_action_complete
   0653 36 00              2147 	ld	(hl),#0x00
                           2148 ;	src/ScriptRunner_b.c 324
                           2149 ;	genPlus
                           2150 ;	genPlusIncr
   0655 01 05 00           2151 	ld	bc,#_script_cmd_args + 5
                           2152 ;	genPointerGet
   0658 0A                 2153 	ld	a,(bc)
                           2154 ;	genIpush
                           2155 ; _saveRegsForCall: sendSetSize: 0 deInUse: 0 bcInUse: 0 deSending: 0
   0659 4F                 2156 	ld	c,a
   065A F5                 2157 	push	af
   065B 33                 2158 	inc	sp
                           2159 ;	genCall
   065C CD 00 00           2160 	call	_FadeSetSpeed
   065F E8 01              2161 	lda	sp,1(sp)
                           2162 ;	src/ScriptRunner_b.c 325
                           2163 ;	genCall
                           2164 ; _saveRegsForCall: sendSetSize: 0 deInUse: 0 bcInUse: 0 deSending: 0
   0661 CD 00 00           2165 	call	_FadeOut
                           2166 ;	src/ScriptRunner_b.c 327
                           2167 ;	genPlus
                           2168 ;	AOP_HL for _script_cmd_args_len
                           2169 ;	genPlusIncr
   0664 21 00 00           2170 	ld	hl,#_script_cmd_args_len
   0667 4E                 2171 	ld	c,(hl)
   0668 0C                 2172 	inc	c
                           2173 ;	genCast
                           2174 ; Removed redundent load
   0669 06 00              2175 	ld	b,#0x00
                           2176 ;	genPlus
                           2177 ;	AOP_HL for _script_ptr
                           2178 ;	Can't optimise plus by inc, falling back to the normal way
   066B 21 00 00           2179 	ld	hl,#_script_ptr
   066E 7E                 2180 	ld	a,(hl)
   066F 81                 2181 	add	a,c
   0670 22                 2182 	ld	(hl+),a
   0671 7E                 2183 	ld	a,(hl)
   0672 88                 2184 	adc	a,b
   0673 77                 2185 	ld	(hl),a
                           2186 ;	genLabel
   0674                    2187 00101$:
                           2188 ;	genEndFunction
   0674 E8 03              2189 	lda	sp,3(sp)
   0676 C9                 2190 	ret
   0677                    2191 ___Script_LoadScene_b_end:
                           2192 ;	src/ScriptRunner_b.c 338
                           2193 ;	genLabel
                           2194 ;	genFunction
                           2195 ;	---------------------------------
                           2196 ; Function Script_ActorSetPos_b
                           2197 ; ---------------------------------
   0677                    2198 ___Script_ActorSetPos_b_start:
   0677                    2199 _Script_ActorSetPos_b:
   0677 E8 FC              2200 	lda	sp,-4(sp)
                           2201 ;	src/ScriptRunner_b.c 340
                           2202 ;	genMult
                           2203 ;	AOP_HL for _script_actor
   0679 21 00 00           2204 	ld	hl,#_script_actor
   067C 5E                 2205 	ld	e,(hl)
   067D 16 00              2206 	ld	d,#0x00
   067F 6B                 2207 	ld	l,e
   0680 62                 2208 	ld	h,d
   0681 29                 2209 	add	hl,hl
   0682 29                 2210 	add	hl,hl
   0683 19                 2211 	add	hl,de
   0684 29                 2212 	add	hl,hl
   0685 19                 2213 	add	hl,de
   0686 29                 2214 	add	hl,hl
   0687 4D                 2215 	ld	c,l
   0688 44                 2216 	ld	b,h
                           2217 ;	genPlus
                           2218 ;	Can't optimise plus by inc, falling back to the normal way
   0689 21 00 00           2219 	ld	hl,#_actors
   068C 09                 2220 	add	hl,bc
   068D 4D                 2221 	ld	c,l
   068E 44                 2222 	ld	b,h
                           2223 ;	genPlus
                           2224 ;	AOP_STK for _Script_ActorSetPos_b_sloc0_1_0
                           2225 ;	genPlusIncr
                           2226 ;	Can't optimise plus by inc, falling back to the normal way
   068F 21 01 00           2227 	ld	hl,#0x0001
   0692 09                 2228 	add	hl,bc
   0693 7D                 2229 	ld	a,l
   0694 54                 2230 	ld	d,h
   0695 F8 02              2231 	lda	hl,2(sp)
   0697 22                 2232 	ld	(hl+),a
   0698 72                 2233 	ld	(hl),d
                           2234 ;	genAssign (pointer)
                           2235 ;	AOP_STK for _Script_ActorSetPos_b_sloc0_1_0
   0699 2B                 2236 	dec	hl
   069A 5E                 2237 	ld	e,(hl)
   069B 23                 2238 	inc	hl
   069C 56                 2239 	ld	d,(hl)
   069D 3E 00              2240 	ld	a,#0x00
   069F 12                 2241 	ld	(de),a
                           2242 ;	src/ScriptRunner_b.c 341
                           2243 ;	genPointerGet
                           2244 ;	AOP_STK for _Script_ActorSetPos_b_sloc1_1_0
   06A0 11 00 00           2245 	ld	de,#_script_cmd_args
   06A3 1A                 2246 	ld	a,(de)
   06A4 2B                 2247 	dec	hl
   06A5 2B                 2248 	dec	hl
                           2249 ;	genLeftShift
                           2250 ;	AOP_STK for _Script_ActorSetPos_b_sloc1_1_0
                           2251 ;	AOP_STK for _Script_ActorSetPos_b_sloc2_1_0
   06A6 77                 2252 	ld      (hl),a
   06A7 7F                 2253 	ld      a,a
   06A8 CB 27              2254 	sla	a
   06AA CB 17              2255 	rl	a
   06AC CB 17              2256 	rl	a
   06AE E6 F8              2257 	and	a,#0xF8
   06B0 2B                 2258 	dec	hl
                           2259 ;	genPlus
                           2260 ;	AOP_STK for _Script_ActorSetPos_b_sloc2_1_0
                           2261 ;	genPlusIncr
                           2262 ;	Can't optimise plus by inc, falling back to the normal way
   06B1 77                 2263 	ld      (hl),a
   06B2 7F                 2264 	ld      a,a
   06B3 C6 08              2265 	add	a,#0x08
                           2266 ;	genAssign (pointer)
                           2267 ;	AOP_STK for _Script_ActorSetPos_b_sloc0_1_0
   06B5 23                 2268 	inc	hl
   06B6 23                 2269 	inc	hl
   06B7 5E                 2270 	ld	e,(hl)
   06B8 23                 2271 	inc	hl
   06B9 56                 2272 	ld	d,(hl)
   06BA 12                 2273 	ld	(de),a
                           2274 ;	src/ScriptRunner_b.c 342
                           2275 ;	genPlus
                           2276 ;	genPlusIncr
   06BB 03                 2277 	inc	bc
   06BC 03                 2278 	inc	bc
                           2279 ;	genAssign (pointer)
   06BD 3E 00              2280 	ld	a,#0x00
   06BF 02                 2281 	ld	(bc),a
                           2282 ;	src/ScriptRunner_b.c 343
                           2283 ;	genPlus
                           2284 ;	AOP_STK for _Script_ActorSetPos_b_sloc0_1_0
                           2285 ;	genPlusIncr
                           2286 ;	Can't optimise plus by inc, falling back to the normal way
   06C0 11 00 00           2287 	ld	de,#_script_cmd_args
   06C3 21 01 00           2288 	ld	hl,#0x0001
   06C6 19                 2289 	add	hl,de
   06C7 7D                 2290 	ld	a,l
   06C8 54                 2291 	ld	d,h
   06C9 F8 02              2292 	lda	hl,2(sp)
                           2293 ;	genPointerGet
                           2294 ;	AOP_STK for _Script_ActorSetPos_b_sloc0_1_0
                           2295 ;	AOP_STK for _Script_ActorSetPos_b_sloc2_1_0
   06CB 22                 2296 	ld	(hl+),a
   06CC 72                 2297 	ld	(hl),d
   06CD 5F                 2298 	ld	e,a
   06CE 1A                 2299 	ld	a,(de)
   06CF F8 00              2300 	lda	hl,0(sp)
                           2301 ;	genLeftShift
                           2302 ;	AOP_STK for _Script_ActorSetPos_b_sloc2_1_0
                           2303 ;	AOP_STK for _Script_ActorSetPos_b_sloc1_1_0
   06D1 77                 2304 	ld      (hl),a
   06D2 7F                 2305 	ld      a,a
   06D3 CB 27              2306 	sla	a
   06D5 CB 17              2307 	rl	a
   06D7 CB 17              2308 	rl	a
   06D9 E6 F8              2309 	and	a,#0xF8
   06DB 23                 2310 	inc	hl
                           2311 ;	genPlus
                           2312 ;	AOP_STK for _Script_ActorSetPos_b_sloc1_1_0
                           2313 ;	genPlusIncr
                           2314 ;	Can't optimise plus by inc, falling back to the normal way
   06DC 77                 2315 	ld      (hl),a
   06DD 7F                 2316 	ld      a,a
   06DE C6 08              2317 	add	a,#0x08
                           2318 ;	genAssign (pointer)
   06E0 02                 2319 	ld	(bc),a
                           2320 ;	src/ScriptRunner_b.c 344
                           2321 ;	genPlus
                           2322 ;	AOP_HL for _script_cmd_args_len
                           2323 ;	genPlusIncr
   06E1 21 00 00           2324 	ld	hl,#_script_cmd_args_len
   06E4 4E                 2325 	ld	c,(hl)
   06E5 0C                 2326 	inc	c
                           2327 ;	genCast
                           2328 ; Removed redundent load
   06E6 06 00              2329 	ld	b,#0x00
                           2330 ;	genPlus
                           2331 ;	AOP_HL for _script_ptr
                           2332 ;	Can't optimise plus by inc, falling back to the normal way
   06E8 21 00 00           2333 	ld	hl,#_script_ptr
   06EB 7E                 2334 	ld	a,(hl)
   06EC 81                 2335 	add	a,c
   06ED 22                 2336 	ld	(hl+),a
   06EE 7E                 2337 	ld	a,(hl)
   06EF 88                 2338 	adc	a,b
   06F0 77                 2339 	ld	(hl),a
                           2340 ;	src/ScriptRunner_b.c 345
                           2341 ;	genAssign
                           2342 ;	AOP_HL for _script_continue
   06F1 21 00 00           2343 	ld	hl,#_script_continue
   06F4 36 01              2344 	ld	(hl),#0x01
                           2345 ;	genLabel
   06F6                    2346 00101$:
                           2347 ;	genEndFunction
   06F6 E8 04              2348 	lda	sp,4(sp)
   06F8 C9                 2349 	ret
   06F9                    2350 ___Script_ActorSetPos_b_end:
                           2351 ;	src/ScriptRunner_b.c 356
                           2352 ;	genLabel
                           2353 ;	genFunction
                           2354 ;	---------------------------------
                           2355 ; Function Script_ActorMoveTo_b
                           2356 ; ---------------------------------
   06F9                    2357 ___Script_ActorMoveTo_b_start:
   06F9                    2358 _Script_ActorMoveTo_b:
   06F9 E8 FD              2359 	lda	sp,-3(sp)
                           2360 ;	src/ScriptRunner_b.c 358
                           2361 ;	genOr
                           2362 ;	AOP_HL for _actor_move_settings
   06FB 21 00 00           2363 	ld	hl,#_actor_move_settings
   06FE 7E                 2364 	ld	a,(hl)
   06FF F6 80              2365 	or	a,#0x80
                           2366 ;	src/ScriptRunner_b.c 359
                           2367 ;	genOr
                           2368 ;	AOP_HL for _actor_move_settings
   0701 77                 2369 	ld      (hl),a
                           2370 ; Removed redundent load
   0702 F6 40              2371 	or	a,#0x40
   0704 77                 2372 	ld	(hl),a
                           2373 ;	src/ScriptRunner_b.c 360
                           2374 ;	genAssign (pointer)
   0705 11 00 00           2375 	ld	de,#_actor_move_dest
   0708 3E 00              2376 	ld	a,#0x00
   070A 12                 2377 	ld	(de),a
                           2378 ;	src/ScriptRunner_b.c 361
                           2379 ;	genPointerGet
   070B 11 00 00           2380 	ld	de,#_script_cmd_args
   070E 1A                 2381 	ld	a,(de)
                           2382 ;	genLeftShift
   070F 4F                 2383 	ld	c,a
   0710 CB 27              2384 	sla	a
   0712 CB 17              2385 	rl	a
   0714 CB 17              2386 	rl	a
   0716 E6 F8              2387 	and	a,#0xF8
                           2388 ;	genPlus
                           2389 ;	genPlusIncr
                           2390 ;	Can't optimise plus by inc, falling back to the normal way
   0718 4F                 2391 	ld	c,a
   0719 C6 08              2392 	add	a,#0x08
                           2393 ;	genAssign (pointer)
   071B 11 00 00           2394 	ld	de,#_actor_move_dest
   071E 12                 2395 	ld	(de),a
                           2396 ;	src/ScriptRunner_b.c 362
                           2397 ;	genPlus
                           2398 ;	genPlusIncr
   071F 01 01 00           2399 	ld	bc,#_actor_move_dest + 1
                           2400 ;	genAssign (pointer)
   0722 3E 00              2401 	ld	a,#0x00
   0724 02                 2402 	ld	(bc),a
                           2403 ;	src/ScriptRunner_b.c 363
                           2404 ;	genPlus
                           2405 ;	AOP_STK for _Script_ActorMoveTo_b_sloc0_1_0
                           2406 ;	genPlusIncr
                           2407 ;	Can't optimise plus by inc, falling back to the normal way
   0725 11 00 00           2408 	ld	de,#_script_cmd_args
   0728 21 01 00           2409 	ld	hl,#0x0001
   072B 19                 2410 	add	hl,de
   072C 7D                 2411 	ld	a,l
   072D 54                 2412 	ld	d,h
   072E F8 01              2413 	lda	hl,1(sp)
                           2414 ;	genPointerGet
                           2415 ;	AOP_STK for _Script_ActorMoveTo_b_sloc0_1_0
                           2416 ;	AOP_STK for _Script_ActorMoveTo_b_sloc1_1_0
   0730 22                 2417 	ld	(hl+),a
   0731 72                 2418 	ld	(hl),d
   0732 5F                 2419 	ld	e,a
   0733 1A                 2420 	ld	a,(de)
   0734 2B                 2421 	dec	hl
   0735 2B                 2422 	dec	hl
                           2423 ;	genLeftShift
                           2424 ;	AOP_STK for _Script_ActorMoveTo_b_sloc1_1_0
                           2425 ;	AOP_STK for _Script_ActorMoveTo_b_sloc0_1_0
   0736 77                 2426 	ld      (hl),a
                           2427 ; Removed redundent load
   0737 CB 27              2428 	sla	a
   0739 CB 17              2429 	rl	a
   073B CB 17              2430 	rl	a
   073D E6 F8              2431 	and	a,#0xF8
   073F 23                 2432 	inc	hl
                           2433 ;	genPlus
                           2434 ;	AOP_STK for _Script_ActorMoveTo_b_sloc0_1_0
                           2435 ;	genPlusIncr
                           2436 ;	Can't optimise plus by inc, falling back to the normal way
   0740 77                 2437 	ld      (hl),a
                           2438 ; Removed redundent load
   0741 C6 08              2439 	add	a,#0x08
                           2440 ;	genAssign (pointer)
   0743 02                 2441 	ld	(bc),a
                           2442 ;	src/ScriptRunner_b.c 364
                           2443 ;	genPlus
                           2444 ;	AOP_HL for _script_cmd_args_len
                           2445 ;	genPlusIncr
   0744 21 00 00           2446 	ld	hl,#_script_cmd_args_len
   0747 4E                 2447 	ld	c,(hl)
   0748 0C                 2448 	inc	c
                           2449 ;	genCast
                           2450 ; Removed redundent load
   0749 06 00              2451 	ld	b,#0x00
                           2452 ;	genPlus
                           2453 ;	AOP_HL for _script_ptr
                           2454 ;	Can't optimise plus by inc, falling back to the normal way
   074B 21 00 00           2455 	ld	hl,#_script_ptr
   074E 7E                 2456 	ld	a,(hl)
   074F 81                 2457 	add	a,c
   0750 22                 2458 	ld	(hl+),a
   0751 7E                 2459 	ld	a,(hl)
   0752 88                 2460 	adc	a,b
   0753 77                 2461 	ld	(hl),a
                           2462 ;	src/ScriptRunner_b.c 365
                           2463 ;	genAssign
                           2464 ;	AOP_HL for _script_action_complete
   0754 21 00 00           2465 	ld	hl,#_script_action_complete
   0757 36 00              2466 	ld	(hl),#0x00
                           2467 ;	genLabel
   0759                    2468 00101$:
                           2469 ;	genEndFunction
   0759 E8 03              2470 	lda	sp,3(sp)
   075B C9                 2471 	ret
   075C                    2472 ___Script_ActorMoveTo_b_end:
                           2473 ;	src/ScriptRunner_b.c 373
                           2474 ;	genLabel
                           2475 ;	genFunction
                           2476 ;	---------------------------------
                           2477 ; Function Script_ShowSprites_b
                           2478 ; ---------------------------------
   075C                    2479 ___Script_ShowSprites_b_start:
   075C                    2480 _Script_ShowSprites_b:
   075C E8 FD              2481 	lda	sp,-3(sp)
                           2482 ;	src/ScriptRunner_b.c 375
                           2483 ;	genAssign
   075E 01 40 FF           2484 	ld	bc,#0xFF40
                           2485 ;	genAssign
                           2486 ;	AOP_STK for _Script_ShowSprites_b_sloc0_1_0
   0761 F8 01              2487 	lda	hl,1(sp)
   0763 36 40              2488 	ld	(hl),#0x40
   0765 23                 2489 	inc	hl
   0766 36 FF              2490 	ld	(hl),#0xFF
                           2491 ;	genPointerGet
                           2492 ;	AOP_STK for _Script_ShowSprites_b_sloc0_1_0
                           2493 ;	AOP_STK for _Script_ShowSprites_b_sloc1_1_0
   0768 2B                 2494 	dec	hl
   0769 5E                 2495 	ld	e,(hl)
   076A 23                 2496 	inc	hl
   076B 56                 2497 	ld	d,(hl)
   076C 1A                 2498 	ld	a,(de)
   076D 2B                 2499 	dec	hl
   076E 2B                 2500 	dec	hl
                           2501 ;	genOr
                           2502 ;	AOP_STK for _Script_ShowSprites_b_sloc1_1_0
   076F 77                 2503 	ld      (hl),a
   0770 7F                 2504 	ld      a,a
   0771 F6 02              2505 	or	a,#0x02
                           2506 ;	genAssign (pointer)
   0773 02                 2507 	ld	(bc),a
                           2508 ;	src/ScriptRunner_b.c 376
                           2509 ;	genPlus
                           2510 ;	AOP_HL for _script_cmd_args_len
                           2511 ;	genPlusIncr
   0774 21 00 00           2512 	ld	hl,#_script_cmd_args_len
   0777 4E                 2513 	ld	c,(hl)
   0778 0C                 2514 	inc	c
                           2515 ;	genCast
                           2516 ; Removed redundent load
   0779 06 00              2517 	ld	b,#0x00
                           2518 ;	genPlus
                           2519 ;	AOP_HL for _script_ptr
                           2520 ;	Can't optimise plus by inc, falling back to the normal way
   077B 21 00 00           2521 	ld	hl,#_script_ptr
   077E 7E                 2522 	ld	a,(hl)
   077F 81                 2523 	add	a,c
   0780 22                 2524 	ld	(hl+),a
   0781 7E                 2525 	ld	a,(hl)
   0782 88                 2526 	adc	a,b
   0783 77                 2527 	ld	(hl),a
                           2528 ;	src/ScriptRunner_b.c 377
                           2529 ;	genAssign
                           2530 ;	AOP_HL for _script_continue
   0784 21 00 00           2531 	ld	hl,#_script_continue
   0787 36 01              2532 	ld	(hl),#0x01
                           2533 ;	genLabel
   0789                    2534 00101$:
                           2535 ;	genEndFunction
   0789 E8 03              2536 	lda	sp,3(sp)
   078B C9                 2537 	ret
   078C                    2538 ___Script_ShowSprites_b_end:
                           2539 ;	src/ScriptRunner_b.c 385
                           2540 ;	genLabel
                           2541 ;	genFunction
                           2542 ;	---------------------------------
                           2543 ; Function Script_HideSprites_b
                           2544 ; ---------------------------------
   078C                    2545 ___Script_HideSprites_b_start:
   078C                    2546 _Script_HideSprites_b:
   078C E8 FD              2547 	lda	sp,-3(sp)
                           2548 ;	src/ScriptRunner_b.c 387
                           2549 ;	genAssign
   078E 01 40 FF           2550 	ld	bc,#0xFF40
                           2551 ;	genAssign
                           2552 ;	AOP_STK for _Script_HideSprites_b_sloc0_1_0
   0791 F8 01              2553 	lda	hl,1(sp)
   0793 36 40              2554 	ld	(hl),#0x40
   0795 23                 2555 	inc	hl
   0796 36 FF              2556 	ld	(hl),#0xFF
                           2557 ;	genPointerGet
                           2558 ;	AOP_STK for _Script_HideSprites_b_sloc0_1_0
                           2559 ;	AOP_STK for _Script_HideSprites_b_sloc1_1_0
   0798 2B                 2560 	dec	hl
   0799 5E                 2561 	ld	e,(hl)
   079A 23                 2562 	inc	hl
   079B 56                 2563 	ld	d,(hl)
   079C 1A                 2564 	ld	a,(de)
   079D 2B                 2565 	dec	hl
   079E 2B                 2566 	dec	hl
                           2567 ;	genAnd
                           2568 ;	AOP_STK for _Script_HideSprites_b_sloc1_1_0
   079F 77                 2569 	ld      (hl),a
   07A0 7F                 2570 	ld      a,a
   07A1 E6 FD              2571 	and	a,#0xFD
                           2572 ;	genAssign (pointer)
   07A3 02                 2573 	ld	(bc),a
                           2574 ;	src/ScriptRunner_b.c 388
                           2575 ;	genPlus
                           2576 ;	AOP_HL for _script_cmd_args_len
                           2577 ;	genPlusIncr
   07A4 21 00 00           2578 	ld	hl,#_script_cmd_args_len
   07A7 4E                 2579 	ld	c,(hl)
   07A8 0C                 2580 	inc	c
                           2581 ;	genCast
                           2582 ; Removed redundent load
   07A9 06 00              2583 	ld	b,#0x00
                           2584 ;	genPlus
                           2585 ;	AOP_HL for _script_ptr
                           2586 ;	Can't optimise plus by inc, falling back to the normal way
   07AB 21 00 00           2587 	ld	hl,#_script_ptr
   07AE 7E                 2588 	ld	a,(hl)
   07AF 81                 2589 	add	a,c
   07B0 22                 2590 	ld	(hl+),a
   07B1 7E                 2591 	ld	a,(hl)
   07B2 88                 2592 	adc	a,b
   07B3 77                 2593 	ld	(hl),a
                           2594 ;	src/ScriptRunner_b.c 389
                           2595 ;	genAssign
                           2596 ;	AOP_HL for _script_continue
   07B4 21 00 00           2597 	ld	hl,#_script_continue
   07B7 36 01              2598 	ld	(hl),#0x01
                           2599 ;	genLabel
   07B9                    2600 00101$:
                           2601 ;	genEndFunction
   07B9 E8 03              2602 	lda	sp,3(sp)
   07BB C9                 2603 	ret
   07BC                    2604 ___Script_HideSprites_b_end:
                           2605 ;	src/ScriptRunner_b.c 397
                           2606 ;	genLabel
                           2607 ;	genFunction
                           2608 ;	---------------------------------
                           2609 ; Function Script_ActorShow_b
                           2610 ; ---------------------------------
   07BC                    2611 ___Script_ActorShow_b_start:
   07BC                    2612 _Script_ActorShow_b:
                           2613 	
                           2614 ;	src/ScriptRunner_b.c 399
                           2615 ;	genPointerGet
   07BC 11 00 00           2616 	ld	de,#_script_cmd_args
   07BF 1A                 2617 	ld	a,(de)
   07C0 4F                 2618 	ld	c,a
                           2619 ;	genMult
   07C1 59                 2620 	ld	e,c
   07C2 16 00              2621 	ld	d,#0x00
   07C4 6B                 2622 	ld	l,e
   07C5 62                 2623 	ld	h,d
   07C6 29                 2624 	add	hl,hl
   07C7 29                 2625 	add	hl,hl
   07C8 19                 2626 	add	hl,de
   07C9 29                 2627 	add	hl,hl
   07CA 19                 2628 	add	hl,de
   07CB 29                 2629 	add	hl,hl
   07CC 4D                 2630 	ld	c,l
   07CD 44                 2631 	ld	b,h
                           2632 ;	genPlus
                           2633 ;	Can't optimise plus by inc, falling back to the normal way
   07CE 21 00 00           2634 	ld	hl,#_actors
   07D1 09                 2635 	add	hl,bc
   07D2 4D                 2636 	ld	c,l
   07D3 44                 2637 	ld	b,h
                           2638 ;	genPlus
                           2639 ;	genPlusIncr
   07D4 21 09 00           2640 	ld	hl,#0x0009
   07D7 09                 2641 	add	hl,bc
                           2642 ;	genAssign (pointer)
   07D8 36 01              2643 	ld	(hl),#0x01
                           2644 ;	src/ScriptRunner_b.c 400
                           2645 ;	genPlus
                           2646 ;	AOP_HL for _script_cmd_args_len
                           2647 ;	genPlusIncr
   07DA 21 00 00           2648 	ld	hl,#_script_cmd_args_len
   07DD 4E                 2649 	ld	c,(hl)
   07DE 0C                 2650 	inc	c
                           2651 ;	genCast
                           2652 ; Removed redundent load
   07DF 06 00              2653 	ld	b,#0x00
                           2654 ;	genPlus
                           2655 ;	AOP_HL for _script_ptr
                           2656 ;	Can't optimise plus by inc, falling back to the normal way
   07E1 21 00 00           2657 	ld	hl,#_script_ptr
   07E4 7E                 2658 	ld	a,(hl)
   07E5 81                 2659 	add	a,c
   07E6 22                 2660 	ld	(hl+),a
   07E7 7E                 2661 	ld	a,(hl)
   07E8 88                 2662 	adc	a,b
   07E9 77                 2663 	ld	(hl),a
                           2664 ;	src/ScriptRunner_b.c 401
                           2665 ;	genAssign
                           2666 ;	AOP_HL for _script_continue
   07EA 21 00 00           2667 	ld	hl,#_script_continue
   07ED 36 01              2668 	ld	(hl),#0x01
                           2669 ;	genLabel
   07EF                    2670 00101$:
                           2671 ;	genEndFunction
                           2672 	
   07EF C9                 2673 	ret
   07F0                    2674 ___Script_ActorShow_b_end:
                           2675 ;	src/ScriptRunner_b.c 409
                           2676 ;	genLabel
                           2677 ;	genFunction
                           2678 ;	---------------------------------
                           2679 ; Function Script_ActorHide_b
                           2680 ; ---------------------------------
   07F0                    2681 ___Script_ActorHide_b_start:
   07F0                    2682 _Script_ActorHide_b:
                           2683 	
                           2684 ;	src/ScriptRunner_b.c 411
                           2685 ;	genPointerGet
   07F0 11 00 00           2686 	ld	de,#_script_cmd_args
   07F3 1A                 2687 	ld	a,(de)
   07F4 4F                 2688 	ld	c,a
                           2689 ;	genMult
   07F5 59                 2690 	ld	e,c
   07F6 16 00              2691 	ld	d,#0x00
   07F8 6B                 2692 	ld	l,e
   07F9 62                 2693 	ld	h,d
   07FA 29                 2694 	add	hl,hl
   07FB 29                 2695 	add	hl,hl
   07FC 19                 2696 	add	hl,de
   07FD 29                 2697 	add	hl,hl
   07FE 19                 2698 	add	hl,de
   07FF 29                 2699 	add	hl,hl
   0800 4D                 2700 	ld	c,l
   0801 44                 2701 	ld	b,h
                           2702 ;	genPlus
                           2703 ;	Can't optimise plus by inc, falling back to the normal way
   0802 21 00 00           2704 	ld	hl,#_actors
   0805 09                 2705 	add	hl,bc
   0806 4D                 2706 	ld	c,l
   0807 44                 2707 	ld	b,h
                           2708 ;	genPlus
                           2709 ;	genPlusIncr
   0808 21 09 00           2710 	ld	hl,#0x0009
   080B 09                 2711 	add	hl,bc
                           2712 ;	genAssign (pointer)
   080C 36 00              2713 	ld	(hl),#0x00
                           2714 ;	src/ScriptRunner_b.c 412
                           2715 ;	genPlus
                           2716 ;	AOP_HL for _script_cmd_args_len
                           2717 ;	genPlusIncr
   080E 21 00 00           2718 	ld	hl,#_script_cmd_args_len
   0811 4E                 2719 	ld	c,(hl)
   0812 0C                 2720 	inc	c
                           2721 ;	genCast
                           2722 ; Removed redundent load
   0813 06 00              2723 	ld	b,#0x00
                           2724 ;	genPlus
                           2725 ;	AOP_HL for _script_ptr
                           2726 ;	Can't optimise plus by inc, falling back to the normal way
   0815 21 00 00           2727 	ld	hl,#_script_ptr
   0818 7E                 2728 	ld	a,(hl)
   0819 81                 2729 	add	a,c
   081A 22                 2730 	ld	(hl+),a
   081B 7E                 2731 	ld	a,(hl)
   081C 88                 2732 	adc	a,b
   081D 77                 2733 	ld	(hl),a
                           2734 ;	src/ScriptRunner_b.c 413
                           2735 ;	genAssign
                           2736 ;	AOP_HL for _script_continue
   081E 21 00 00           2737 	ld	hl,#_script_continue
   0821 36 01              2738 	ld	(hl),#0x01
                           2739 ;	genLabel
   0823                    2740 00101$:
                           2741 ;	genEndFunction
                           2742 	
   0823 C9                 2743 	ret
   0824                    2744 ___Script_ActorHide_b_end:
                           2745 ;	src/ScriptRunner_b.c 423
                           2746 ;	genLabel
                           2747 ;	genFunction
                           2748 ;	---------------------------------
                           2749 ; Function Script_ActorSetEmote_b
                           2750 ; ---------------------------------
   0824                    2751 ___Script_ActorSetEmote_b_start:
   0824                    2752 _Script_ActorSetEmote_b:
                           2753 	
                           2754 ;	src/ScriptRunner_b.c 425
                           2755 ;	genPlus
                           2756 ;	AOP_HL for _script_cmd_args_len
                           2757 ;	genPlusIncr
   0824 21 00 00           2758 	ld	hl,#_script_cmd_args_len
   0827 4E                 2759 	ld	c,(hl)
   0828 0C                 2760 	inc	c
                           2761 ;	genCast
                           2762 ; Removed redundent load
   0829 06 00              2763 	ld	b,#0x00
                           2764 ;	genPlus
                           2765 ;	AOP_HL for _script_ptr
                           2766 ;	Can't optimise plus by inc, falling back to the normal way
   082B 21 00 00           2767 	ld	hl,#_script_ptr
   082E 7E                 2768 	ld	a,(hl)
   082F 81                 2769 	add	a,c
   0830 22                 2770 	ld	(hl+),a
   0831 7E                 2771 	ld	a,(hl)
   0832 88                 2772 	adc	a,b
   0833 77                 2773 	ld	(hl),a
                           2774 ;	src/ScriptRunner_b.c 426
                           2775 ;	genPlus
                           2776 ;	genPlusIncr
   0834 01 01 00           2777 	ld	bc,#_script_cmd_args + 1
                           2778 ;	genPointerGet
   0837 0A                 2779 	ld	a,(bc)
   0838 4F                 2780 	ld	c,a
                           2781 ;	genPointerGet
   0839 11 00 00           2782 	ld	de,#_script_cmd_args
   083C 1A                 2783 	ld	a,(de)
   083D 47                 2784 	ld	b,a
                           2785 ;	genIpush
                           2786 ; _saveRegsForCall: sendSetSize: 0 deInUse: 0 bcInUse: 0 deSending: 0
   083E 79                 2787 	ld	a,c
   083F F5                 2788 	push	af
   0840 33                 2789 	inc	sp
                           2790 ;	genIpush
   0841 78                 2791 	ld	a,b
   0842 F5                 2792 	push	af
   0843 33                 2793 	inc	sp
                           2794 ;	genCall
   0844 CD 00 00           2795 	call	_SceneSetEmote
   0847 E8 02              2796 	lda	sp,2(sp)
                           2797 ;	src/ScriptRunner_b.c 427
                           2798 ;	genAssign
                           2799 ;	AOP_HL for _script_action_complete
   0849 21 00 00           2800 	ld	hl,#_script_action_complete
   084C 36 00              2801 	ld	(hl),#0x00
                           2802 ;	genLabel
   084E                    2803 00101$:
                           2804 ;	genEndFunction
                           2805 	
   084E C9                 2806 	ret
   084F                    2807 ___Script_ActorSetEmote_b_end:
                           2808 ;	src/ScriptRunner_b.c 437
                           2809 ;	genLabel
                           2810 ;	genFunction
                           2811 ;	---------------------------------
                           2812 ; Function Script_CameraShake_b
                           2813 ; ---------------------------------
   084F                    2814 ___Script_CameraShake_b_start:
   084F                    2815 _Script_CameraShake_b:
                           2816 	
                           2817 ;	src/ScriptRunner_b.c 439
                           2818 ;	genPointerGet
                           2819 ;	AOP_HL for _shake_time
   084F 11 00 00           2820 	ld	de,#_script_cmd_args
   0852 1A                 2821 	ld	a,(de)
   0853 21 00 00           2822 	ld	hl,#_shake_time
   0856 77                 2823 	ld	(hl),a
                           2824 ;	src/ScriptRunner_b.c 440
                           2825 ;	genPlus
                           2826 ;	AOP_HL for _script_cmd_args_len
                           2827 ;	genPlusIncr
   0857 21 00 00           2828 	ld	hl,#_script_cmd_args_len
   085A 4E                 2829 	ld	c,(hl)
   085B 0C                 2830 	inc	c
                           2831 ;	genCast
                           2832 ; Removed redundent load
   085C 06 00              2833 	ld	b,#0x00
                           2834 ;	genPlus
                           2835 ;	AOP_HL for _script_ptr
                           2836 ;	Can't optimise plus by inc, falling back to the normal way
   085E 21 00 00           2837 	ld	hl,#_script_ptr
   0861 7E                 2838 	ld	a,(hl)
   0862 81                 2839 	add	a,c
   0863 22                 2840 	ld	(hl+),a
   0864 7E                 2841 	ld	a,(hl)
   0865 88                 2842 	adc	a,b
   0866 77                 2843 	ld	(hl),a
                           2844 ;	src/ScriptRunner_b.c 441
                           2845 ;	genAssign
                           2846 ;	AOP_HL for _script_action_complete
   0867 21 00 00           2847 	ld	hl,#_script_action_complete
   086A 36 00              2848 	ld	(hl),#0x00
                           2849 ;	genLabel
   086C                    2850 00101$:
                           2851 ;	genEndFunction
                           2852 	
   086C C9                 2853 	ret
   086D                    2854 ___Script_CameraShake_b_end:
                           2855 ;	src/ScriptRunner_b.c 449
                           2856 ;	genLabel
                           2857 ;	genFunction
                           2858 ;	---------------------------------
                           2859 ; Function Script_ShowOverlay_b
                           2860 ; ---------------------------------
   086D                    2861 ___Script_ShowOverlay_b_start:
   086D                    2862 _Script_ShowOverlay_b:
   086D E8 FE              2863 	lda	sp,-2(sp)
                           2864 ;	src/ScriptRunner_b.c 451
                           2865 ;	genPointerGet
   086F 11 00 00           2866 	ld	de,#_script_cmd_args
   0872 1A                 2867 	ld	a,(de)
                           2868 ;	genIpush
                           2869 ; _saveRegsForCall: sendSetSize: 0 deInUse: 0 bcInUse: 0 deSending: 0
   0873 4F                 2870 	ld	c,a
   0874 F5                 2871 	push	af
   0875 33                 2872 	inc	sp
                           2873 ;	genCall
   0876 CD 00 00           2874 	call	_UISetColor
   0879 E8 01              2875 	lda	sp,1(sp)
                           2876 ;	src/ScriptRunner_b.c 452
                           2877 ;	genPlus
                           2878 ;	genPlusIncr
   087B 01 02 00           2879 	ld	bc,#_script_cmd_args + 2
                           2880 ;	genPointerGet
   087E 0A                 2881 	ld	a,(bc)
                           2882 ;	genLeftShift
   087F 4F                 2883 	ld	c,a
   0880 CB 27              2884 	sla	a
   0882 CB 17              2885 	rl	a
   0884 CB 17              2886 	rl	a
   0886 E6 F8              2887 	and	a,#0xF8
   0888 4F                 2888 	ld	c,a
                           2889 ;	genPlus
                           2890 ;	AOP_STK for _Script_ShowOverlay_b_sloc0_1_0
                           2891 ;	genPlusIncr
                           2892 ;	Can't optimise plus by inc, falling back to the normal way
   0889 11 00 00           2893 	ld	de,#_script_cmd_args
   088C 21 01 00           2894 	ld	hl,#0x0001
   088F 19                 2895 	add	hl,de
   0890 7D                 2896 	ld	a,l
   0891 54                 2897 	ld	d,h
   0892 F8 00              2898 	lda	hl,0(sp)
                           2899 ;	genPointerGet
                           2900 ;	AOP_STK for _Script_ShowOverlay_b_sloc0_1_0
   0894 22                 2901 	ld	(hl+),a
   0895 72                 2902 	ld	(hl),d
   0896 5F                 2903 	ld	e,a
   0897 1A                 2904 	ld	a,(de)
                           2905 ;	genLeftShift
   0898 47                 2906 	ld	b,a
   0899 CB 27              2907 	sla	a
   089B CB 17              2908 	rl	a
   089D CB 17              2909 	rl	a
   089F E6 F8              2910 	and	a,#0xF8
   08A1 47                 2911 	ld	b,a
                           2912 ;	genIpush
                           2913 ; _saveRegsForCall: sendSetSize: 0 deInUse: 0 bcInUse: 0 deSending: 0
   08A2 79                 2914 	ld	a,c
   08A3 F5                 2915 	push	af
   08A4 33                 2916 	inc	sp
                           2917 ;	genIpush
   08A5 78                 2918 	ld	a,b
   08A6 F5                 2919 	push	af
   08A7 33                 2920 	inc	sp
                           2921 ;	genCall
   08A8 CD 00 00           2922 	call	_UISetPos
   08AB E8 02              2923 	lda	sp,2(sp)
                           2924 ;	src/ScriptRunner_b.c 453
                           2925 ;	genPlus
                           2926 ;	AOP_HL for _script_cmd_args_len
                           2927 ;	genPlusIncr
   08AD 21 00 00           2928 	ld	hl,#_script_cmd_args_len
   08B0 4E                 2929 	ld	c,(hl)
   08B1 0C                 2930 	inc	c
                           2931 ;	genCast
                           2932 ; Removed redundent load
   08B2 06 00              2933 	ld	b,#0x00
                           2934 ;	genPlus
                           2935 ;	AOP_HL for _script_ptr
                           2936 ;	Can't optimise plus by inc, falling back to the normal way
   08B4 21 00 00           2937 	ld	hl,#_script_ptr
   08B7 7E                 2938 	ld	a,(hl)
   08B8 81                 2939 	add	a,c
   08B9 22                 2940 	ld	(hl+),a
   08BA 7E                 2941 	ld	a,(hl)
   08BB 88                 2942 	adc	a,b
   08BC 77                 2943 	ld	(hl),a
                           2944 ;	src/ScriptRunner_b.c 454
                           2945 ;	genAssign
                           2946 ;	AOP_HL for _script_continue
   08BD 21 00 00           2947 	ld	hl,#_script_continue
   08C0 36 01              2948 	ld	(hl),#0x01
                           2949 ;	genLabel
   08C2                    2950 00101$:
                           2951 ;	genEndFunction
   08C2 E8 02              2952 	lda	sp,2(sp)
   08C4 C9                 2953 	ret
   08C5                    2954 ___Script_ShowOverlay_b_end:
                           2955 ;	src/ScriptRunner_b.c 462
                           2956 ;	genLabel
                           2957 ;	genFunction
                           2958 ;	---------------------------------
                           2959 ; Function Script_HideOverlay_b
                           2960 ; ---------------------------------
   08C5                    2961 ___Script_HideOverlay_b_start:
   08C5                    2962 _Script_HideOverlay_b:
                           2963 	
                           2964 ;	src/ScriptRunner_b.c 464
                           2965 ;	genIpush
                           2966 ; _saveRegsForCall: sendSetSize: 0 deInUse: 0 bcInUse: 0 deSending: 0
   08C5 21 00 90           2967 	ld	hl,#0x9000
   08C8 E5                 2968 	push	hl
                           2969 ;	genCall
   08C9 CD 00 00           2970 	call	_UISetPos
   08CC E8 02              2971 	lda	sp,2(sp)
                           2972 ;	src/ScriptRunner_b.c 465
                           2973 ;	genPlus
                           2974 ;	AOP_HL for _script_cmd_args_len
                           2975 ;	genPlusIncr
   08CE 21 00 00           2976 	ld	hl,#_script_cmd_args_len
   08D1 4E                 2977 	ld	c,(hl)
   08D2 0C                 2978 	inc	c
                           2979 ;	genCast
                           2980 ; Removed redundent load
   08D3 06 00              2981 	ld	b,#0x00
                           2982 ;	genPlus
                           2983 ;	AOP_HL for _script_ptr
                           2984 ;	Can't optimise plus by inc, falling back to the normal way
   08D5 21 00 00           2985 	ld	hl,#_script_ptr
   08D8 7E                 2986 	ld	a,(hl)
   08D9 81                 2987 	add	a,c
   08DA 22                 2988 	ld	(hl+),a
   08DB 7E                 2989 	ld	a,(hl)
   08DC 88                 2990 	adc	a,b
   08DD 77                 2991 	ld	(hl),a
                           2992 ;	src/ScriptRunner_b.c 466
                           2993 ;	genAssign
                           2994 ;	AOP_HL for _script_continue
   08DE 21 00 00           2995 	ld	hl,#_script_continue
   08E1 36 01              2996 	ld	(hl),#0x01
                           2997 ;	genLabel
   08E3                    2998 00101$:
                           2999 ;	genEndFunction
                           3000 	
   08E3 C9                 3001 	ret
   08E4                    3002 ___Script_HideOverlay_b_end:
                           3003 ;	src/ScriptRunner_b.c 474
                           3004 ;	genLabel
                           3005 ;	genFunction
                           3006 ;	---------------------------------
                           3007 ; Function Script_OverlaySetPos_b
                           3008 ; ---------------------------------
   08E4                    3009 ___Script_OverlaySetPos_b_start:
   08E4                    3010 _Script_OverlaySetPos_b:
                           3011 	
                           3012 ;	src/ScriptRunner_b.c 476
                           3013 ;	genPlus
                           3014 ;	genPlusIncr
   08E4 01 01 00           3015 	ld	bc,#_script_cmd_args + 1
                           3016 ;	genPointerGet
   08E7 0A                 3017 	ld	a,(bc)
                           3018 ;	genLeftShift
   08E8 4F                 3019 	ld	c,a
   08E9 CB 27              3020 	sla	a
   08EB CB 17              3021 	rl	a
   08ED CB 17              3022 	rl	a
   08EF E6 F8              3023 	and	a,#0xF8
   08F1 4F                 3024 	ld	c,a
                           3025 ;	genPointerGet
   08F2 11 00 00           3026 	ld	de,#_script_cmd_args
   08F5 1A                 3027 	ld	a,(de)
                           3028 ;	genLeftShift
   08F6 47                 3029 	ld	b,a
   08F7 CB 27              3030 	sla	a
   08F9 CB 17              3031 	rl	a
   08FB CB 17              3032 	rl	a
   08FD E6 F8              3033 	and	a,#0xF8
   08FF 47                 3034 	ld	b,a
                           3035 ;	genIpush
                           3036 ; _saveRegsForCall: sendSetSize: 0 deInUse: 0 bcInUse: 0 deSending: 0
   0900 79                 3037 	ld	a,c
   0901 F5                 3038 	push	af
   0902 33                 3039 	inc	sp
                           3040 ;	genIpush
   0903 78                 3041 	ld	a,b
   0904 F5                 3042 	push	af
   0905 33                 3043 	inc	sp
                           3044 ;	genCall
   0906 CD 00 00           3045 	call	_UISetPos
   0909 E8 02              3046 	lda	sp,2(sp)
                           3047 ;	src/ScriptRunner_b.c 477
                           3048 ;	genPlus
                           3049 ;	AOP_HL for _script_cmd_args_len
                           3050 ;	genPlusIncr
   090B 21 00 00           3051 	ld	hl,#_script_cmd_args_len
   090E 4E                 3052 	ld	c,(hl)
   090F 0C                 3053 	inc	c
                           3054 ;	genCast
                           3055 ; Removed redundent load
   0910 06 00              3056 	ld	b,#0x00
                           3057 ;	genPlus
                           3058 ;	AOP_HL for _script_ptr
                           3059 ;	Can't optimise plus by inc, falling back to the normal way
   0912 21 00 00           3060 	ld	hl,#_script_ptr
   0915 7E                 3061 	ld	a,(hl)
   0916 81                 3062 	add	a,c
   0917 22                 3063 	ld	(hl+),a
   0918 7E                 3064 	ld	a,(hl)
   0919 88                 3065 	adc	a,b
   091A 77                 3066 	ld	(hl),a
                           3067 ;	src/ScriptRunner_b.c 478
                           3068 ;	genAssign
                           3069 ;	AOP_HL for _script_continue
   091B 21 00 00           3070 	ld	hl,#_script_continue
   091E 36 01              3071 	ld	(hl),#0x01
                           3072 ;	genLabel
   0920                    3073 00101$:
                           3074 ;	genEndFunction
                           3075 	
   0920 C9                 3076 	ret
   0921                    3077 ___Script_OverlaySetPos_b_end:
                           3078 ;	src/ScriptRunner_b.c 486
                           3079 ;	genLabel
                           3080 ;	genFunction
                           3081 ;	---------------------------------
                           3082 ; Function Script_OverlayMoveTo_b
                           3083 ; ---------------------------------
   0921                    3084 ___Script_OverlayMoveTo_b_start:
   0921                    3085 _Script_OverlayMoveTo_b:
   0921 E8 FD              3086 	lda	sp,-3(sp)
                           3087 ;	src/ScriptRunner_b.c 488
                           3088 ;	genPlus
                           3089 ;	genPlusIncr
   0923 01 02 00           3090 	ld	bc,#_script_cmd_args + 2
                           3091 ;	genPointerGet
   0926 0A                 3092 	ld	a,(bc)
   0927 4F                 3093 	ld	c,a
                           3094 ;	genPlus
                           3095 ;	AOP_STK for _Script_OverlayMoveTo_b_sloc0_1_0
                           3096 ;	genPlusIncr
                           3097 ;	Can't optimise plus by inc, falling back to the normal way
   0928 11 00 00           3098 	ld	de,#_script_cmd_args
   092B 21 01 00           3099 	ld	hl,#0x0001
   092E 19                 3100 	add	hl,de
   092F 7D                 3101 	ld	a,l
   0930 54                 3102 	ld	d,h
   0931 F8 01              3103 	lda	hl,1(sp)
                           3104 ;	genPointerGet
                           3105 ;	AOP_STK for _Script_OverlayMoveTo_b_sloc0_1_0
   0933 22                 3106 	ld	(hl+),a
   0934 72                 3107 	ld	(hl),d
   0935 5F                 3108 	ld	e,a
   0936 1A                 3109 	ld	a,(de)
                           3110 ;	genLeftShift
   0937 47                 3111 	ld	b,a
   0938 CB 27              3112 	sla	a
   093A CB 17              3113 	rl	a
   093C CB 17              3114 	rl	a
   093E E6 F8              3115 	and	a,#0xF8
   0940 47                 3116 	ld	b,a
                           3117 ;	genPointerGet
                           3118 ;	AOP_STK for _Script_OverlayMoveTo_b_sloc0_1_0
   0941 11 00 00           3119 	ld	de,#_script_cmd_args
   0944 1A                 3120 	ld	a,(de)
   0945 2B                 3121 	dec	hl
                           3122 ;	genLeftShift
                           3123 ;	AOP_STK for _Script_OverlayMoveTo_b_sloc0_1_0
                           3124 ;	AOP_STK for _Script_OverlayMoveTo_b_sloc1_1_0
   0946 77                 3125 	ld      (hl),a
                           3126 ; Removed redundent load
   0947 CB 27              3127 	sla	a
   0949 CB 17              3128 	rl	a
   094B CB 17              3129 	rl	a
   094D E6 F8              3130 	and	a,#0xF8
   094F 2B                 3131 	dec	hl
   0950 77                 3132 	ld	(hl),a
                           3133 ;	genIpush
                           3134 ; _saveRegsForCall: sendSetSize: 0 deInUse: 0 bcInUse: 0 deSending: 0
   0951 79                 3135 	ld	a,c
   0952 F5                 3136 	push	af
   0953 33                 3137 	inc	sp
                           3138 ;	genIpush
   0954 78                 3139 	ld	a,b
   0955 F5                 3140 	push	af
   0956 33                 3141 	inc	sp
                           3142 ;	genIpush
                           3143 ;	AOP_STK for _Script_OverlayMoveTo_b_sloc1_1_0
   0957 7E                 3144 	ld	a,(hl)
   0958 F5                 3145 	push	af
   0959 33                 3146 	inc	sp
                           3147 ;	genCall
   095A CD 00 00           3148 	call	_UIMoveTo
   095D E8 03              3149 	lda	sp,3(sp)
                           3150 ;	src/ScriptRunner_b.c 489
                           3151 ;	genPlus
                           3152 ;	AOP_HL for _script_cmd_args_len
                           3153 ;	genPlusIncr
   095F 21 00 00           3154 	ld	hl,#_script_cmd_args_len
   0962 4E                 3155 	ld	c,(hl)
   0963 0C                 3156 	inc	c
                           3157 ;	genCast
                           3158 ; Removed redundent load
   0964 06 00              3159 	ld	b,#0x00
                           3160 ;	genPlus
                           3161 ;	AOP_HL for _script_ptr
                           3162 ;	Can't optimise plus by inc, falling back to the normal way
   0966 21 00 00           3163 	ld	hl,#_script_ptr
   0969 7E                 3164 	ld	a,(hl)
   096A 81                 3165 	add	a,c
   096B 22                 3166 	ld	(hl+),a
   096C 7E                 3167 	ld	a,(hl)
   096D 88                 3168 	adc	a,b
   096E 77                 3169 	ld	(hl),a
                           3170 ;	src/ScriptRunner_b.c 490
                           3171 ;	genAssign
                           3172 ;	AOP_HL for _script_action_complete
   096F 21 00 00           3173 	ld	hl,#_script_action_complete
   0972 36 00              3174 	ld	(hl),#0x00
                           3175 ;	genLabel
   0974                    3176 00101$:
                           3177 ;	genEndFunction
   0974 E8 03              3178 	lda	sp,3(sp)
   0976 C9                 3179 	ret
   0977                    3180 ___Script_OverlayMoveTo_b_end:
                           3181 ;	src/ScriptRunner_b.c 498
                           3182 ;	genLabel
                           3183 ;	genFunction
                           3184 ;	---------------------------------
                           3185 ; Function Script_AwaitInput_b
                           3186 ; ---------------------------------
   0977                    3187 ___Script_AwaitInput_b_start:
   0977                    3188 _Script_AwaitInput_b:
                           3189 	
                           3190 ;	src/ScriptRunner_b.c 500
                           3191 ;	genPointerGet
                           3192 ;	AOP_HL for _await_input
   0977 11 00 00           3193 	ld	de,#_script_cmd_args
   097A 1A                 3194 	ld	a,(de)
   097B 21 00 00           3195 	ld	hl,#_await_input
   097E 77                 3196 	ld	(hl),a
                           3197 ;	src/ScriptRunner_b.c 501
                           3198 ;	genPlus
                           3199 ;	AOP_HL for _script_cmd_args_len
                           3200 ;	genPlusIncr
   097F 21 00 00           3201 	ld	hl,#_script_cmd_args_len
   0982 4E                 3202 	ld	c,(hl)
   0983 0C                 3203 	inc	c
                           3204 ;	genCast
                           3205 ; Removed redundent load
   0984 06 00              3206 	ld	b,#0x00
                           3207 ;	genPlus
                           3208 ;	AOP_HL for _script_ptr
                           3209 ;	Can't optimise plus by inc, falling back to the normal way
   0986 21 00 00           3210 	ld	hl,#_script_ptr
   0989 7E                 3211 	ld	a,(hl)
   098A 81                 3212 	add	a,c
   098B 22                 3213 	ld	(hl+),a
   098C 7E                 3214 	ld	a,(hl)
   098D 88                 3215 	adc	a,b
   098E 77                 3216 	ld	(hl),a
                           3217 ;	src/ScriptRunner_b.c 502
                           3218 ;	genAssign
                           3219 ;	AOP_HL for _script_action_complete
   098F 21 00 00           3220 	ld	hl,#_script_action_complete
   0992 36 00              3221 	ld	(hl),#0x00
                           3222 ;	genLabel
   0994                    3223 00101$:
                           3224 ;	genEndFunction
                           3225 	
   0994 C9                 3226 	ret
   0995                    3227 ___Script_AwaitInput_b_end:
                           3228 ;	src/ScriptRunner_b.c 510
                           3229 ;	genLabel
                           3230 ;	genFunction
                           3231 ;	---------------------------------
                           3232 ; Function Script_MusicPlay_b
                           3233 ; ---------------------------------
   0995                    3234 ___Script_MusicPlay_b_start:
   0995                    3235 _Script_MusicPlay_b:
                           3236 	
                           3237 ;	src/ScriptRunner_b.c 512
                           3238 ;	genPlus
                           3239 ;	genPlusIncr
   0995 01 01 00           3240 	ld	bc,#_script_cmd_args + 1
                           3241 ;	genPointerGet
   0998 0A                 3242 	ld	a,(bc)
   0999 4F                 3243 	ld	c,a
                           3244 ;	genPointerGet
   099A 11 00 00           3245 	ld	de,#_script_cmd_args
   099D 1A                 3246 	ld	a,(de)
   099E 47                 3247 	ld	b,a
                           3248 ;	genIpush
                           3249 ; _saveRegsForCall: sendSetSize: 0 deInUse: 0 bcInUse: 0 deSending: 0
                           3250 ;	AOP_HL for _scriptrunner_bank
   099F 21 00 00           3251 	ld	hl,#_scriptrunner_bank
   09A2 7E                 3252 	ld	a,(hl)
   09A3 F5                 3253 	push	af
   09A4 33                 3254 	inc	sp
                           3255 ;	genIpush
   09A5 79                 3256 	ld	a,c
   09A6 F5                 3257 	push	af
   09A7 33                 3258 	inc	sp
                           3259 ;	genIpush
   09A8 78                 3260 	ld	a,b
   09A9 F5                 3261 	push	af
   09AA 33                 3262 	inc	sp
                           3263 ;	genCall
   09AB CD 00 00           3264 	call	_MusicPlay
   09AE E8 03              3265 	lda	sp,3(sp)
                           3266 ;	src/ScriptRunner_b.c 513
                           3267 ;	genPlus
                           3268 ;	AOP_HL for _script_cmd_args_len
                           3269 ;	genPlusIncr
   09B0 21 00 00           3270 	ld	hl,#_script_cmd_args_len
   09B3 4E                 3271 	ld	c,(hl)
   09B4 0C                 3272 	inc	c
                           3273 ;	genCast
                           3274 ; Removed redundent load
   09B5 06 00              3275 	ld	b,#0x00
                           3276 ;	genPlus
                           3277 ;	AOP_HL for _script_ptr
                           3278 ;	Can't optimise plus by inc, falling back to the normal way
   09B7 21 00 00           3279 	ld	hl,#_script_ptr
   09BA 7E                 3280 	ld	a,(hl)
   09BB 81                 3281 	add	a,c
   09BC 22                 3282 	ld	(hl+),a
   09BD 7E                 3283 	ld	a,(hl)
   09BE 88                 3284 	adc	a,b
   09BF 77                 3285 	ld	(hl),a
                           3286 ;	src/ScriptRunner_b.c 514
                           3287 ;	genAssign
                           3288 ;	AOP_HL for _script_continue
   09C0 21 00 00           3289 	ld	hl,#_script_continue
   09C3 36 01              3290 	ld	(hl),#0x01
                           3291 ;	genLabel
   09C5                    3292 00101$:
                           3293 ;	genEndFunction
                           3294 	
   09C5 C9                 3295 	ret
   09C6                    3296 ___Script_MusicPlay_b_end:
                           3297 ;	src/ScriptRunner_b.c 522
                           3298 ;	genLabel
                           3299 ;	genFunction
                           3300 ;	---------------------------------
                           3301 ; Function Script_MusicStop_b
                           3302 ; ---------------------------------
   09C6                    3303 ___Script_MusicStop_b_start:
   09C6                    3304 _Script_MusicStop_b:
                           3305 	
                           3306 ;	src/ScriptRunner_b.c 524
                           3307 ;	genIpush
                           3308 ; _saveRegsForCall: sendSetSize: 0 deInUse: 0 bcInUse: 0 deSending: 0
                           3309 ;	AOP_HL for _scriptrunner_bank
   09C6 21 00 00           3310 	ld	hl,#_scriptrunner_bank
   09C9 7E                 3311 	ld	a,(hl)
   09CA F5                 3312 	push	af
   09CB 33                 3313 	inc	sp
                           3314 ;	genCall
   09CC CD 00 00           3315 	call	_MusicStop
   09CF E8 01              3316 	lda	sp,1(sp)
                           3317 ;	src/ScriptRunner_b.c 525
                           3318 ;	genPlus
                           3319 ;	AOP_HL for _script_cmd_args_len
                           3320 ;	genPlusIncr
   09D1 21 00 00           3321 	ld	hl,#_script_cmd_args_len
   09D4 4E                 3322 	ld	c,(hl)
   09D5 0C                 3323 	inc	c
                           3324 ;	genCast
                           3325 ; Removed redundent load
   09D6 06 00              3326 	ld	b,#0x00
                           3327 ;	genPlus
                           3328 ;	AOP_HL for _script_ptr
                           3329 ;	Can't optimise plus by inc, falling back to the normal way
   09D8 21 00 00           3330 	ld	hl,#_script_ptr
   09DB 7E                 3331 	ld	a,(hl)
   09DC 81                 3332 	add	a,c
   09DD 22                 3333 	ld	(hl+),a
   09DE 7E                 3334 	ld	a,(hl)
   09DF 88                 3335 	adc	a,b
   09E0 77                 3336 	ld	(hl),a
                           3337 ;	src/ScriptRunner_b.c 526
                           3338 ;	genAssign
                           3339 ;	AOP_HL for _script_continue
   09E1 21 00 00           3340 	ld	hl,#_script_continue
   09E4 36 01              3341 	ld	(hl),#0x01
                           3342 ;	genLabel
   09E6                    3343 00101$:
                           3344 ;	genEndFunction
                           3345 	
   09E6 C9                 3346 	ret
   09E7                    3347 ___Script_MusicStop_b_end:
                           3348 ;	src/ScriptRunner_b.c 534
                           3349 ;	genLabel
                           3350 ;	genFunction
                           3351 ;	---------------------------------
                           3352 ; Function Script_ResetVariables_b
                           3353 ; ---------------------------------
   09E7                    3354 ___Script_ResetVariables_b_start:
   09E7                    3355 _Script_ResetVariables_b:
   09E7 E8 FE              3356 	lda	sp,-2(sp)
                           3357 ;	src/ScriptRunner_b.c 537
                           3358 ;	genAssign
   09E9 0E 00              3359 	ld	c,#0x00
                           3360 ;	genLabel
   09EB                    3361 00101$:
                           3362 ;	genCmpEq
                           3363 ; genCmpEq: left 1, right 1, result 0
   09EB 79                 3364 	ld	a,c
   09EC FE 66              3365 	cp	a,#0x66
   09EE CA 09 0A           3366 	jp	z,00104$
   09F1                    3367 00109$:
                           3368 ;	src/ScriptRunner_b.c 539
                           3369 ;	genPlus
                           3370 ;	AOP_STK for _Script_ResetVariables_b_sloc0_1_0
                           3371 ;	Can't optimise plus by inc, falling back to the normal way
   09F1 11 00 00           3372 	ld	de,#_script_variables
   09F4 69                 3373 	ld	l,c
   09F5 26 00              3374 	ld	h,#0x00
   09F7 19                 3375 	add	hl,de
   09F8 7D                 3376 	ld	a,l
   09F9 54                 3377 	ld	d,h
   09FA F8 00              3378 	lda	hl,0(sp)
   09FC 22                 3379 	ld	(hl+),a
   09FD 72                 3380 	ld	(hl),d
                           3381 ;	genAssign (pointer)
                           3382 ;	AOP_STK for _Script_ResetVariables_b_sloc0_1_0
   09FE 2B                 3383 	dec	hl
   09FF 5E                 3384 	ld	e,(hl)
   0A00 23                 3385 	inc	hl
   0A01 56                 3386 	ld	d,(hl)
   0A02 3E 00              3387 	ld	a,#0x00
   0A04 12                 3388 	ld	(de),a
                           3389 ;	src/ScriptRunner_b.c 537
                           3390 ;	genPlus
                           3391 ;	genPlusIncr
                           3392 ; Removed redundent load
   0A05 0C                 3393 	inc	c
                           3394 ;	genGoto
   0A06 C3 EB 09           3395 	jp	00101$
                           3396 ;	genLabel
   0A09                    3397 00104$:
                           3398 ;	src/ScriptRunner_b.c 541
                           3399 ;	genPlus
                           3400 ;	AOP_HL for _script_cmd_args_len
                           3401 ;	genPlusIncr
   0A09 21 00 00           3402 	ld	hl,#_script_cmd_args_len
   0A0C 4E                 3403 	ld	c,(hl)
   0A0D 0C                 3404 	inc	c
                           3405 ;	genCast
                           3406 ; Removed redundent load
   0A0E 06 00              3407 	ld	b,#0x00
                           3408 ;	genPlus
                           3409 ;	AOP_HL for _script_ptr
                           3410 ;	Can't optimise plus by inc, falling back to the normal way
   0A10 21 00 00           3411 	ld	hl,#_script_ptr
   0A13 7E                 3412 	ld	a,(hl)
   0A14 81                 3413 	add	a,c
   0A15 22                 3414 	ld	(hl+),a
   0A16 7E                 3415 	ld	a,(hl)
   0A17 88                 3416 	adc	a,b
   0A18 77                 3417 	ld	(hl),a
                           3418 ;	src/ScriptRunner_b.c 542
                           3419 ;	genAssign
                           3420 ;	AOP_HL for _script_continue
   0A19 21 00 00           3421 	ld	hl,#_script_continue
   0A1C 36 01              3422 	ld	(hl),#0x01
                           3423 ;	genLabel
   0A1E                    3424 00105$:
                           3425 ;	genEndFunction
   0A1E E8 02              3426 	lda	sp,2(sp)
   0A20 C9                 3427 	ret
   0A21                    3428 ___Script_ResetVariables_b_end:
                           3429 ;	src/ScriptRunner_b.c 550
                           3430 ;	genLabel
                           3431 ;	genFunction
                           3432 ;	---------------------------------
                           3433 ; Function Script_NextFrame_b
                           3434 ; ---------------------------------
   0A21                    3435 ___Script_NextFrame_b_start:
   0A21                    3436 _Script_NextFrame_b:
                           3437 	
                           3438 ;	src/ScriptRunner_b.c 552
                           3439 ;	genPlus
                           3440 ;	AOP_HL for _script_cmd_args_len
                           3441 ;	genPlusIncr
   0A21 21 00 00           3442 	ld	hl,#_script_cmd_args_len
   0A24 4E                 3443 	ld	c,(hl)
   0A25 0C                 3444 	inc	c
                           3445 ;	genCast
                           3446 ; Removed redundent load
   0A26 06 00              3447 	ld	b,#0x00
                           3448 ;	genPlus
                           3449 ;	AOP_HL for _script_ptr
                           3450 ;	Can't optimise plus by inc, falling back to the normal way
   0A28 21 00 00           3451 	ld	hl,#_script_ptr
   0A2B 7E                 3452 	ld	a,(hl)
   0A2C 81                 3453 	add	a,c
   0A2D 22                 3454 	ld	(hl+),a
   0A2E 7E                 3455 	ld	a,(hl)
   0A2F 88                 3456 	adc	a,b
   0A30 77                 3457 	ld	(hl),a
                           3458 ;	src/ScriptRunner_b.c 553
                           3459 ;	genAssign
                           3460 ;	AOP_HL for _script_continue
   0A31 21 00 00           3461 	ld	hl,#_script_continue
   0A34 36 00              3462 	ld	(hl),#0x00
                           3463 ;	genLabel
   0A36                    3464 00101$:
                           3465 ;	genEndFunction
                           3466 	
   0A36 C9                 3467 	ret
   0A37                    3468 ___Script_NextFrame_b_end:
                           3469 ;	src/ScriptRunner_b.c 561
                           3470 ;	genLabel
                           3471 ;	genFunction
                           3472 ;	---------------------------------
                           3473 ; Function Script_IncFlag_b
                           3474 ; ---------------------------------
   0A37                    3475 ___Script_IncFlag_b_start:
   0A37                    3476 _Script_IncFlag_b:
   0A37 E8 FC              3477 	lda	sp,-4(sp)
                           3478 ;	src/ScriptRunner_b.c 564
                           3479 ;	genPointerGet
   0A39 11 00 00           3480 	ld	de,#_script_cmd_args
   0A3C 1A                 3481 	ld	a,(de)
   0A3D 4F                 3482 	ld	c,a
                           3483 ;	genCast
                           3484 ; Removed redundent load
   0A3E 06 00              3485 	ld	b,#0x00
                           3486 ;	genLeftShift
   0A40 41                 3487 	ld	b,c
   0A41 0E 00              3488 	ld	c,#0x00
                           3489 ;	genPlus
                           3490 ;	AOP_STK for _Script_IncFlag_b_sloc0_1_0
                           3491 ;	genPlusIncr
                           3492 ;	Can't optimise plus by inc, falling back to the normal way
   0A43 11 00 00           3493 	ld	de,#_script_cmd_args
   0A46 21 01 00           3494 	ld	hl,#0x0001
   0A49 19                 3495 	add	hl,de
   0A4A 7D                 3496 	ld	a,l
   0A4B 54                 3497 	ld	d,h
   0A4C F8 01              3498 	lda	hl,1(sp)
                           3499 ;	genPointerGet
                           3500 ;	AOP_STK for _Script_IncFlag_b_sloc0_1_0
                           3501 ;	AOP_STK for _Script_IncFlag_b_sloc1_1_0
   0A4E 22                 3502 	ld	(hl+),a
   0A4F 72                 3503 	ld	(hl),d
   0A50 5F                 3504 	ld	e,a
   0A51 1A                 3505 	ld	a,(de)
   0A52 2B                 3506 	dec	hl
   0A53 2B                 3507 	dec	hl
   0A54 77                 3508 	ld	(hl),a
                           3509 ;	genCast
                           3510 ;	AOP_STK for _Script_IncFlag_b_sloc1_1_0
                           3511 ;	AOP_STK for _Script_IncFlag_b_sloc0_1_0
   0A55 2A                 3512 	ld	a,(hl+)
   0A56 22                 3513 	ld	(hl+),a
   0A57 36 00              3514 	ld	(hl),#0x00
                           3515 ;	genPlus
                           3516 ;	AOP_STK for _Script_IncFlag_b_sloc0_1_0
                           3517 ;	Can't optimise plus by inc, falling back to the normal way
   0A59 2B                 3518 	dec	hl
   0A5A 2A                 3519 	ld	a,(hl+)
   0A5B 66                 3520 	ld	h,(hl)
   0A5C 6F                 3521 	ld	l,a
   0A5D 09                 3522 	add	hl,bc
   0A5E 4D                 3523 	ld	c,l
   0A5F 44                 3524 	ld	b,h
                           3525 ;	genAssign
                           3526 ;	(registers are the same)
                           3527 ;	src/ScriptRunner_b.c 565
                           3528 ;	genPlus
                           3529 ;	AOP_STK for _Script_IncFlag_b_sloc0_1_0
                           3530 ;	Can't optimise plus by inc, falling back to the normal way
   0A60 21 00 00           3531 	ld	hl,#_script_variables
   0A63 09                 3532 	add	hl,bc
   0A64 7D                 3533 	ld	a,l
   0A65 54                 3534 	ld	d,h
   0A66 F8 01              3535 	lda	hl,1(sp)
                           3536 ;	genPointerGet
                           3537 ;	AOP_STK for _Script_IncFlag_b_sloc0_1_0
                           3538 ;	AOP_STK for _Script_IncFlag_b_value_1_1
   0A68 22                 3539 	ld	(hl+),a
   0A69 72                 3540 	ld	(hl),d
   0A6A 5F                 3541 	ld	e,a
   0A6B 1A                 3542 	ld	a,(de)
   0A6C 23                 3543 	inc	hl
                           3544 ;	genAssign
                           3545 ;	AOP_STK for _Script_IncFlag_b_value_1_1
   0A6D 77                 3546 	ld      (hl),a
                           3547 ;	src/ScriptRunner_b.c 566
                           3548 ;	genCmpEq
                           3549 ; genCmpEq: left 1, right 1, result 0
   0A6E 4F                 3550 	ld	c,a
   0A6F FE FF              3551 	cp	a,#0xFF
   0A71 CA 7D 0A           3552 	jp	z,00102$
   0A74                    3553 00106$:
                           3554 ;	src/ScriptRunner_b.c 568
                           3555 ;	genPlus
                           3556 ;	genPlusIncr
                           3557 ;	Can't optimise plus by inc, falling back to the normal way
   0A74 79                 3558 	ld	a,c
   0A75 C6 01              3559 	add	a,#0x01
                           3560 ;	genAssign (pointer)
                           3561 ;	AOP_STK for _Script_IncFlag_b_sloc0_1_0
   0A77 F8 01              3562 	lda	hl,1(sp)
   0A79 5E                 3563 	ld	e,(hl)
   0A7A 23                 3564 	inc	hl
   0A7B 56                 3565 	ld	d,(hl)
   0A7C 12                 3566 	ld	(de),a
                           3567 ;	genLabel
   0A7D                    3568 00102$:
                           3569 ;	src/ScriptRunner_b.c 570
                           3570 ;	genPlus
                           3571 ;	AOP_HL for _script_cmd_args_len
                           3572 ;	genPlusIncr
   0A7D 21 00 00           3573 	ld	hl,#_script_cmd_args_len
   0A80 4E                 3574 	ld	c,(hl)
   0A81 0C                 3575 	inc	c
                           3576 ;	genCast
                           3577 ; Removed redundent load
   0A82 06 00              3578 	ld	b,#0x00
                           3579 ;	genPlus
                           3580 ;	AOP_HL for _script_ptr
                           3581 ;	Can't optimise plus by inc, falling back to the normal way
   0A84 21 00 00           3582 	ld	hl,#_script_ptr
   0A87 7E                 3583 	ld	a,(hl)
   0A88 81                 3584 	add	a,c
   0A89 22                 3585 	ld	(hl+),a
   0A8A 7E                 3586 	ld	a,(hl)
   0A8B 88                 3587 	adc	a,b
   0A8C 77                 3588 	ld	(hl),a
                           3589 ;	src/ScriptRunner_b.c 571
                           3590 ;	genAssign
                           3591 ;	AOP_HL for _script_continue
   0A8D 21 00 00           3592 	ld	hl,#_script_continue
   0A90 36 01              3593 	ld	(hl),#0x01
                           3594 ;	genLabel
   0A92                    3595 00103$:
                           3596 ;	genEndFunction
   0A92 E8 04              3597 	lda	sp,4(sp)
   0A94 C9                 3598 	ret
   0A95                    3599 ___Script_IncFlag_b_end:
                           3600 ;	src/ScriptRunner_b.c 579
                           3601 ;	genLabel
                           3602 ;	genFunction
                           3603 ;	---------------------------------
                           3604 ; Function Script_DecFlag_b
                           3605 ; ---------------------------------
   0A95                    3606 ___Script_DecFlag_b_start:
   0A95                    3607 _Script_DecFlag_b:
   0A95 E8 FC              3608 	lda	sp,-4(sp)
                           3609 ;	src/ScriptRunner_b.c 582
                           3610 ;	genPointerGet
   0A97 11 00 00           3611 	ld	de,#_script_cmd_args
   0A9A 1A                 3612 	ld	a,(de)
   0A9B 4F                 3613 	ld	c,a
                           3614 ;	genCast
                           3615 ; Removed redundent load
   0A9C 06 00              3616 	ld	b,#0x00
                           3617 ;	genLeftShift
   0A9E 41                 3618 	ld	b,c
   0A9F 0E 00              3619 	ld	c,#0x00
                           3620 ;	genPlus
                           3621 ;	AOP_STK for _Script_DecFlag_b_sloc0_1_0
                           3622 ;	genPlusIncr
                           3623 ;	Can't optimise plus by inc, falling back to the normal way
   0AA1 11 00 00           3624 	ld	de,#_script_cmd_args
   0AA4 21 01 00           3625 	ld	hl,#0x0001
   0AA7 19                 3626 	add	hl,de
   0AA8 7D                 3627 	ld	a,l
   0AA9 54                 3628 	ld	d,h
   0AAA F8 01              3629 	lda	hl,1(sp)
                           3630 ;	genPointerGet
                           3631 ;	AOP_STK for _Script_DecFlag_b_sloc0_1_0
                           3632 ;	AOP_STK for _Script_DecFlag_b_sloc1_1_0
   0AAC 22                 3633 	ld	(hl+),a
   0AAD 72                 3634 	ld	(hl),d
   0AAE 5F                 3635 	ld	e,a
   0AAF 1A                 3636 	ld	a,(de)
   0AB0 2B                 3637 	dec	hl
   0AB1 2B                 3638 	dec	hl
   0AB2 77                 3639 	ld	(hl),a
                           3640 ;	genCast
                           3641 ;	AOP_STK for _Script_DecFlag_b_sloc1_1_0
                           3642 ;	AOP_STK for _Script_DecFlag_b_sloc0_1_0
   0AB3 2A                 3643 	ld	a,(hl+)
   0AB4 22                 3644 	ld	(hl+),a
   0AB5 36 00              3645 	ld	(hl),#0x00
                           3646 ;	genPlus
                           3647 ;	AOP_STK for _Script_DecFlag_b_sloc0_1_0
                           3648 ;	Can't optimise plus by inc, falling back to the normal way
   0AB7 2B                 3649 	dec	hl
   0AB8 2A                 3650 	ld	a,(hl+)
   0AB9 66                 3651 	ld	h,(hl)
   0ABA 6F                 3652 	ld	l,a
   0ABB 09                 3653 	add	hl,bc
   0ABC 4D                 3654 	ld	c,l
   0ABD 44                 3655 	ld	b,h
                           3656 ;	genAssign
                           3657 ;	(registers are the same)
                           3658 ;	src/ScriptRunner_b.c 583
                           3659 ;	genPlus
                           3660 ;	AOP_STK for _Script_DecFlag_b_sloc0_1_0
                           3661 ;	Can't optimise plus by inc, falling back to the normal way
   0ABE 21 00 00           3662 	ld	hl,#_script_variables
   0AC1 09                 3663 	add	hl,bc
   0AC2 7D                 3664 	ld	a,l
   0AC3 54                 3665 	ld	d,h
   0AC4 F8 01              3666 	lda	hl,1(sp)
                           3667 ;	genPointerGet
                           3668 ;	AOP_STK for _Script_DecFlag_b_sloc0_1_0
                           3669 ;	AOP_STK for _Script_DecFlag_b_value_1_1
   0AC6 22                 3670 	ld	(hl+),a
   0AC7 72                 3671 	ld	(hl),d
   0AC8 5F                 3672 	ld	e,a
   0AC9 1A                 3673 	ld	a,(de)
   0ACA 23                 3674 	inc	hl
                           3675 ;	genAssign
                           3676 ;	AOP_STK for _Script_DecFlag_b_value_1_1
   0ACB 77                 3677 	ld      (hl),a
                           3678 ;	src/ScriptRunner_b.c 584
                           3679 ;	genCmpEq
                           3680 ; genCmpEq: left 1, right 1, result 0
   0ACC 4F                 3681 	ld	c,a
   0ACD B7                 3682 	or	a,a
   0ACE CA D9 0A           3683 	jp	z,00102$
   0AD1                    3684 00106$:
                           3685 ;	src/ScriptRunner_b.c 586
                           3686 ;	genMinus
   0AD1 0D                 3687 	dec	c
                           3688 ;	genAssign (pointer)
                           3689 ;	AOP_STK for _Script_DecFlag_b_sloc0_1_0
   0AD2 F8 01              3690 	lda	hl,1(sp)
   0AD4 5E                 3691 	ld	e,(hl)
   0AD5 23                 3692 	inc	hl
   0AD6 56                 3693 	ld	d,(hl)
   0AD7 79                 3694 	ld	a,c
   0AD8 12                 3695 	ld	(de),a
                           3696 ;	genLabel
   0AD9                    3697 00102$:
                           3698 ;	src/ScriptRunner_b.c 588
                           3699 ;	genPlus
                           3700 ;	AOP_HL for _script_cmd_args_len
                           3701 ;	genPlusIncr
   0AD9 21 00 00           3702 	ld	hl,#_script_cmd_args_len
   0ADC 4E                 3703 	ld	c,(hl)
   0ADD 0C                 3704 	inc	c
                           3705 ;	genCast
                           3706 ; Removed redundent load
   0ADE 06 00              3707 	ld	b,#0x00
                           3708 ;	genPlus
                           3709 ;	AOP_HL for _script_ptr
                           3710 ;	Can't optimise plus by inc, falling back to the normal way
   0AE0 21 00 00           3711 	ld	hl,#_script_ptr
   0AE3 7E                 3712 	ld	a,(hl)
   0AE4 81                 3713 	add	a,c
   0AE5 22                 3714 	ld	(hl+),a
   0AE6 7E                 3715 	ld	a,(hl)
   0AE7 88                 3716 	adc	a,b
   0AE8 77                 3717 	ld	(hl),a
                           3718 ;	src/ScriptRunner_b.c 589
                           3719 ;	genAssign
                           3720 ;	AOP_HL for _script_continue
   0AE9 21 00 00           3721 	ld	hl,#_script_continue
   0AEC 36 01              3722 	ld	(hl),#0x01
                           3723 ;	genLabel
   0AEE                    3724 00103$:
                           3725 ;	genEndFunction
   0AEE E8 04              3726 	lda	sp,4(sp)
   0AF0 C9                 3727 	ret
   0AF1                    3728 ___Script_DecFlag_b_end:
                           3729 ;	src/ScriptRunner_b.c 597
                           3730 ;	genLabel
                           3731 ;	genFunction
                           3732 ;	---------------------------------
                           3733 ; Function Script_SetFlagValue_b
                           3734 ; ---------------------------------
   0AF1                    3735 ___Script_SetFlagValue_b_start:
   0AF1                    3736 _Script_SetFlagValue_b:
   0AF1 E8 FD              3737 	lda	sp,-3(sp)
                           3738 ;	src/ScriptRunner_b.c 599
                           3739 ;	genPointerGet
   0AF3 11 00 00           3740 	ld	de,#_script_cmd_args
   0AF6 1A                 3741 	ld	a,(de)
   0AF7 4F                 3742 	ld	c,a
                           3743 ;	genCast
                           3744 ; Removed redundent load
   0AF8 06 00              3745 	ld	b,#0x00
                           3746 ;	genLeftShift
   0AFA 41                 3747 	ld	b,c
   0AFB 0E 00              3748 	ld	c,#0x00
                           3749 ;	genPlus
                           3750 ;	AOP_STK for _Script_SetFlagValue_b_sloc0_1_0
                           3751 ;	genPlusIncr
                           3752 ;	Can't optimise plus by inc, falling back to the normal way
   0AFD 11 00 00           3753 	ld	de,#_script_cmd_args
   0B00 21 01 00           3754 	ld	hl,#0x0001
   0B03 19                 3755 	add	hl,de
   0B04 7D                 3756 	ld	a,l
   0B05 54                 3757 	ld	d,h
   0B06 F8 01              3758 	lda	hl,1(sp)
                           3759 ;	genPointerGet
                           3760 ;	AOP_STK for _Script_SetFlagValue_b_sloc0_1_0
                           3761 ;	AOP_STK for _Script_SetFlagValue_b_sloc1_1_0
   0B08 22                 3762 	ld	(hl+),a
   0B09 72                 3763 	ld	(hl),d
   0B0A 5F                 3764 	ld	e,a
   0B0B 1A                 3765 	ld	a,(de)
   0B0C 2B                 3766 	dec	hl
   0B0D 2B                 3767 	dec	hl
   0B0E 77                 3768 	ld	(hl),a
                           3769 ;	genCast
                           3770 ;	AOP_STK for _Script_SetFlagValue_b_sloc1_1_0
                           3771 ;	AOP_STK for _Script_SetFlagValue_b_sloc0_1_0
   0B0F 2A                 3772 	ld	a,(hl+)
   0B10 22                 3773 	ld	(hl+),a
   0B11 36 00              3774 	ld	(hl),#0x00
                           3775 ;	genPlus
                           3776 ;	AOP_STK for _Script_SetFlagValue_b_sloc0_1_0
                           3777 ;	Can't optimise plus by inc, falling back to the normal way
   0B13 2B                 3778 	dec	hl
   0B14 2A                 3779 	ld	a,(hl+)
   0B15 66                 3780 	ld	h,(hl)
   0B16 6F                 3781 	ld	l,a
   0B17 09                 3782 	add	hl,bc
   0B18 4D                 3783 	ld	c,l
   0B19 44                 3784 	ld	b,h
                           3785 ;	genAssign
                           3786 ;	(registers are the same)
                           3787 ;	src/ScriptRunner_b.c 600
                           3788 ;	genPlus
                           3789 ;	Can't optimise plus by inc, falling back to the normal way
   0B1A 21 00 00           3790 	ld	hl,#_script_variables
   0B1D 09                 3791 	add	hl,bc
   0B1E 4D                 3792 	ld	c,l
   0B1F 44                 3793 	ld	b,h
                           3794 ;	genPlus
                           3795 ;	AOP_STK for _Script_SetFlagValue_b_sloc0_1_0
                           3796 ;	genPlusIncr
                           3797 ;	Can't optimise plus by inc, falling back to the normal way
   0B20 11 00 00           3798 	ld	de,#_script_cmd_args
   0B23 21 02 00           3799 	ld	hl,#0x0002
   0B26 19                 3800 	add	hl,de
   0B27 7D                 3801 	ld	a,l
   0B28 54                 3802 	ld	d,h
   0B29 F8 01              3803 	lda	hl,1(sp)
                           3804 ;	genPointerGet
                           3805 ;	AOP_STK for _Script_SetFlagValue_b_sloc0_1_0
   0B2B 22                 3806 	ld	(hl+),a
   0B2C 72                 3807 	ld	(hl),d
   0B2D 5F                 3808 	ld	e,a
   0B2E 1A                 3809 	ld	a,(de)
                           3810 ;	genAssign (pointer)
   0B2F 02                 3811 	ld	(bc),a
                           3812 ;	src/ScriptRunner_b.c 601
                           3813 ;	genPlus
                           3814 ;	AOP_HL for _script_cmd_args_len
                           3815 ;	genPlusIncr
   0B30 21 00 00           3816 	ld	hl,#_script_cmd_args_len
   0B33 4E                 3817 	ld	c,(hl)
   0B34 0C                 3818 	inc	c
                           3819 ;	genCast
                           3820 ; Removed redundent load
   0B35 06 00              3821 	ld	b,#0x00
                           3822 ;	genPlus
                           3823 ;	AOP_HL for _script_ptr
                           3824 ;	Can't optimise plus by inc, falling back to the normal way
   0B37 21 00 00           3825 	ld	hl,#_script_ptr
   0B3A 7E                 3826 	ld	a,(hl)
   0B3B 81                 3827 	add	a,c
   0B3C 22                 3828 	ld	(hl+),a
   0B3D 7E                 3829 	ld	a,(hl)
   0B3E 88                 3830 	adc	a,b
   0B3F 77                 3831 	ld	(hl),a
                           3832 ;	src/ScriptRunner_b.c 602
                           3833 ;	genAssign
                           3834 ;	AOP_HL for _script_continue
   0B40 21 00 00           3835 	ld	hl,#_script_continue
   0B43 36 01              3836 	ld	(hl),#0x01
                           3837 ;	genLabel
   0B45                    3838 00101$:
                           3839 ;	genEndFunction
   0B45 E8 03              3840 	lda	sp,3(sp)
   0B47 C9                 3841 	ret
   0B48                    3842 ___Script_SetFlagValue_b_end:
                           3843 ;	src/ScriptRunner_b.c 610
                           3844 ;	genLabel
                           3845 ;	genFunction
                           3846 ;	---------------------------------
                           3847 ; Function Script_IfInput_b
                           3848 ; ---------------------------------
   0B48                    3849 ___Script_IfInput_b_start:
   0B48                    3850 _Script_IfInput_b:
   0B48 E8 FD              3851 	lda	sp,-3(sp)
                           3852 ;	src/ScriptRunner_b.c 614
                           3853 ;	genPointerGet
   0B4A 11 00 00           3854 	ld	de,#_script_cmd_args
   0B4D 1A                 3855 	ld	a,(de)
                           3856 ;	genAssign
                           3857 ;	(registers are the same)
                           3858 ;	src/ScriptRunner_b.c 615
                           3859 ;	genAnd
                           3860 ;	AOP_HL for _joy
   0B4E 4F                 3861 	ld	c,a
   0B4F 21 00 00           3862 	ld	hl,#_joy
   0B52 A6                 3863 	and	a,(hl)
                           3864 ;	genCmpEq
                           3865 ; genCmpEq: left 1, right 1, result 0
   0B53 4F                 3866 	ld	c,a
   0B54 B7                 3867 	or	a,a
   0B55 CA 91 0B           3868 	jp	z,00102$
   0B58                    3869 00107$:
                           3870 ;	src/ScriptRunner_b.c 617
                           3871 ;	genPlus
                           3872 ;	genPlusIncr
   0B58 01 01 00           3873 	ld	bc,#_script_cmd_args + 1
                           3874 ;	genPointerGet
   0B5B 0A                 3875 	ld	a,(bc)
   0B5C 4F                 3876 	ld	c,a
                           3877 ;	genCast
                           3878 ; Removed redundent load
   0B5D 06 00              3879 	ld	b,#0x00
                           3880 ;	genLeftShift
   0B5F 41                 3881 	ld	b,c
   0B60 0E 00              3882 	ld	c,#0x00
                           3883 ;	genPlus
                           3884 ;	AOP_HL for _script_start_ptr
                           3885 ;	Can't optimise plus by inc, falling back to the normal way
   0B62 21 00 00           3886 	ld	hl,#_script_start_ptr
   0B65 7E                 3887 	ld	a,(hl)
   0B66 81                 3888 	add	a,c
   0B67 4F                 3889 	ld	c,a
   0B68 23                 3890 	inc	hl
   0B69 7E                 3891 	ld	a,(hl)
   0B6A 88                 3892 	adc	a,b
   0B6B 47                 3893 	ld	b,a
                           3894 ;	genPlus
                           3895 ;	AOP_STK for _Script_IfInput_b_sloc0_1_0
                           3896 ;	genPlusIncr
                           3897 ;	Can't optimise plus by inc, falling back to the normal way
   0B6C 11 00 00           3898 	ld	de,#_script_cmd_args
   0B6F 21 02 00           3899 	ld	hl,#0x0002
   0B72 19                 3900 	add	hl,de
   0B73 7D                 3901 	ld	a,l
   0B74 54                 3902 	ld	d,h
   0B75 F8 01              3903 	lda	hl,1(sp)
                           3904 ;	genPointerGet
                           3905 ;	AOP_STK for _Script_IfInput_b_sloc0_1_0
                           3906 ;	AOP_STK for _Script_IfInput_b_sloc1_1_0
   0B77 22                 3907 	ld	(hl+),a
   0B78 72                 3908 	ld	(hl),d
   0B79 5F                 3909 	ld	e,a
   0B7A 1A                 3910 	ld	a,(de)
   0B7B 2B                 3911 	dec	hl
   0B7C 2B                 3912 	dec	hl
   0B7D 77                 3913 	ld	(hl),a
                           3914 ;	genCast
                           3915 ;	AOP_STK for _Script_IfInput_b_sloc1_1_0
                           3916 ;	AOP_STK for _Script_IfInput_b_sloc0_1_0
   0B7E 2A                 3917 	ld	a,(hl+)
   0B7F 22                 3918 	ld	(hl+),a
   0B80 36 00              3919 	ld	(hl),#0x00
                           3920 ;	genPlus
                           3921 ;	AOP_STK for _Script_IfInput_b_sloc0_1_0
                           3922 ;	AOP_HL for _script_ptr
                           3923 ;	Can't optimise plus by inc, falling back to the normal way
   0B82 2B                 3924 	dec	hl
   0B83 2A                 3925 	ld	a,(hl+)
   0B84 66                 3926 	ld	h,(hl)
   0B85 6F                 3927 	ld	l,a
   0B86 09                 3928 	add	hl,bc
   0B87 7D                 3929 	ld	a,l
   0B88 54                 3930 	ld	d,h
   0B89 21 00 00           3931 	ld	hl,#_script_ptr
   0B8C 22                 3932 	ld	(hl+),a
   0B8D 72                 3933 	ld	(hl),d
                           3934 ;	genGoto
   0B8E C3 A1 0B           3935 	jp	00103$
                           3936 ;	genLabel
   0B91                    3937 00102$:
                           3938 ;	src/ScriptRunner_b.c 621
                           3939 ;	genPlus
                           3940 ;	AOP_HL for _script_cmd_args_len
                           3941 ;	genPlusIncr
   0B91 21 00 00           3942 	ld	hl,#_script_cmd_args_len
   0B94 4E                 3943 	ld	c,(hl)
   0B95 0C                 3944 	inc	c
                           3945 ;	genCast
                           3946 ; Removed redundent load
   0B96 06 00              3947 	ld	b,#0x00
                           3948 ;	genPlus
                           3949 ;	AOP_HL for _script_ptr
                           3950 ;	Can't optimise plus by inc, falling back to the normal way
   0B98 21 00 00           3951 	ld	hl,#_script_ptr
   0B9B 7E                 3952 	ld	a,(hl)
   0B9C 81                 3953 	add	a,c
   0B9D 22                 3954 	ld	(hl+),a
   0B9E 7E                 3955 	ld	a,(hl)
   0B9F 88                 3956 	adc	a,b
   0BA0 77                 3957 	ld	(hl),a
                           3958 ;	genLabel
   0BA1                    3959 00103$:
                           3960 ;	src/ScriptRunner_b.c 623
                           3961 ;	genAssign
                           3962 ;	AOP_HL for _script_continue
   0BA1 21 00 00           3963 	ld	hl,#_script_continue
   0BA4 36 01              3964 	ld	(hl),#0x01
                           3965 ;	genLabel
   0BA6                    3966 00104$:
                           3967 ;	genEndFunction
   0BA6 E8 03              3968 	lda	sp,3(sp)
   0BA8 C9                 3969 	ret
   0BA9                    3970 ___Script_IfInput_b_end:
                           3971 ;	src/ScriptRunner_b.c 631
                           3972 ;	genLabel
                           3973 ;	genFunction
                           3974 ;	---------------------------------
                           3975 ; Function Script_Choice_b
                           3976 ; ---------------------------------
   0BA9                    3977 ___Script_Choice_b_start:
   0BA9                    3978 _Script_Choice_b:
   0BA9 E8 F9              3979 	lda	sp,-7(sp)
                           3980 ;	src/ScriptRunner_b.c 633
                           3981 ;	genPlus
                           3982 ;	AOP_HL for _script_cmd_args_len
                           3983 ;	genPlusIncr
   0BAB 21 00 00           3984 	ld	hl,#_script_cmd_args_len
   0BAE 4E                 3985 	ld	c,(hl)
   0BAF 0C                 3986 	inc	c
                           3987 ;	genCast
                           3988 ; Removed redundent load
   0BB0 06 00              3989 	ld	b,#0x00
                           3990 ;	genPlus
                           3991 ;	AOP_HL for _script_ptr
                           3992 ;	Can't optimise plus by inc, falling back to the normal way
   0BB2 21 00 00           3993 	ld	hl,#_script_ptr
   0BB5 7E                 3994 	ld	a,(hl)
   0BB6 81                 3995 	add	a,c
   0BB7 22                 3996 	ld	(hl+),a
   0BB8 7E                 3997 	ld	a,(hl)
   0BB9 88                 3998 	adc	a,b
   0BBA 77                 3999 	ld	(hl),a
                           4000 ;	src/ScriptRunner_b.c 634
                           4001 ;	genPlus
                           4002 ;	genPlusIncr
   0BBB 01 02 00           4003 	ld	bc,#_script_cmd_args + 2
                           4004 ;	genPointerGet
   0BBE 0A                 4005 	ld	a,(bc)
   0BBF 4F                 4006 	ld	c,a
                           4007 ;	genCast
                           4008 ; Removed redundent load
   0BC0 06 00              4009 	ld	b,#0x00
                           4010 ;	genLeftShift
   0BC2 41                 4011 	ld	b,c
   0BC3 0E 00              4012 	ld	c,#0x00
                           4013 ;	genPlus
                           4014 ;	AOP_STK for _Script_Choice_b_sloc0_1_0
                           4015 ;	genPlusIncr
                           4016 ;	Can't optimise plus by inc, falling back to the normal way
   0BC5 11 00 00           4017 	ld	de,#_script_cmd_args
   0BC8 21 03 00           4018 	ld	hl,#0x0003
   0BCB 19                 4019 	add	hl,de
   0BCC 7D                 4020 	ld	a,l
   0BCD 54                 4021 	ld	d,h
   0BCE F8 05              4022 	lda	hl,5(sp)
                           4023 ;	genPointerGet
                           4024 ;	AOP_STK for _Script_Choice_b_sloc0_1_0
                           4025 ;	AOP_STK for _Script_Choice_b_sloc1_1_0
   0BD0 22                 4026 	ld	(hl+),a
   0BD1 72                 4027 	ld	(hl),d
   0BD2 5F                 4028 	ld	e,a
   0BD3 1A                 4029 	ld	a,(de)
   0BD4 2B                 4030 	dec	hl
   0BD5 2B                 4031 	dec	hl
   0BD6 77                 4032 	ld	(hl),a
                           4033 ;	genCast
                           4034 ;	AOP_STK for _Script_Choice_b_sloc1_1_0
                           4035 ;	AOP_STK for _Script_Choice_b_sloc0_1_0
   0BD7 2A                 4036 	ld	a,(hl+)
   0BD8 22                 4037 	ld	(hl+),a
   0BD9 36 00              4038 	ld	(hl),#0x00
                           4039 ;	genPlus
                           4040 ;	AOP_STK for _Script_Choice_b_sloc0_1_0
                           4041 ;	Can't optimise plus by inc, falling back to the normal way
   0BDB 2B                 4042 	dec	hl
   0BDC 2A                 4043 	ld	a,(hl+)
   0BDD 66                 4044 	ld	h,(hl)
   0BDE 6F                 4045 	ld	l,a
   0BDF 09                 4046 	add	hl,bc
   0BE0 4D                 4047 	ld	c,l
   0BE1 44                 4048 	ld	b,h
                           4049 ;	genPointerGet
                           4050 ;	AOP_STK for _Script_Choice_b_sloc1_1_0
   0BE2 11 00 00           4051 	ld	de,#_script_cmd_args
   0BE5 1A                 4052 	ld	a,(de)
   0BE6 F8 04              4053 	lda	hl,4(sp)
   0BE8 77                 4054 	ld	(hl),a
                           4055 ;	genCast
                           4056 ;	AOP_STK for _Script_Choice_b_sloc1_1_0
                           4057 ;	AOP_STK for _Script_Choice_b_sloc0_1_0
   0BE9 2A                 4058 	ld	a,(hl+)
   0BEA 22                 4059 	ld	(hl+),a
   0BEB 36 00              4060 	ld	(hl),#0x00
                           4061 ;	genLeftShift
                           4062 ;	AOP_STK for _Script_Choice_b_sloc0_1_0
                           4063 ;	AOP_STK for _Script_Choice_b_sloc2_1_0
   0BED 2B                 4064 	dec	hl
   0BEE 7E                 4065 	ld	a,(hl)
   0BEF 2B                 4066 	dec	hl
   0BF0 2B                 4067 	dec	hl
   0BF1 32                 4068 	ld      (hl-),a
   0BF2 36 00              4069 	ld	(hl),#0x00
                           4070 ;	genPlus
                           4071 ;	AOP_STK for _Script_Choice_b_sloc0_1_0
                           4072 ;	genPlusIncr
                           4073 ;	Can't optimise plus by inc, falling back to the normal way
   0BF4 11 00 00           4074 	ld	de,#_script_cmd_args
   0BF7 21 01 00           4075 	ld	hl,#0x0001
   0BFA 19                 4076 	add	hl,de
   0BFB 7D                 4077 	ld	a,l
   0BFC 54                 4078 	ld	d,h
   0BFD F8 05              4079 	lda	hl,5(sp)
                           4080 ;	genPointerGet
                           4081 ;	AOP_STK for _Script_Choice_b_sloc0_1_0
                           4082 ;	AOP_STK for _Script_Choice_b_sloc1_1_0
   0BFF 22                 4083 	ld	(hl+),a
   0C00 72                 4084 	ld	(hl),d
   0C01 5F                 4085 	ld	e,a
   0C02 1A                 4086 	ld	a,(de)
   0C03 2B                 4087 	dec	hl
   0C04 2B                 4088 	dec	hl
   0C05 77                 4089 	ld	(hl),a
                           4090 ;	genCast
                           4091 ;	AOP_STK for _Script_Choice_b_sloc1_1_0
                           4092 ;	AOP_STK for _Script_Choice_b_sloc0_1_0
   0C06 2A                 4093 	ld	a,(hl+)
   0C07 22                 4094 	ld	(hl+),a
   0C08 36 00              4095 	ld	(hl),#0x00
                           4096 ;	genPlus
                           4097 ;	AOP_STK for _Script_Choice_b_sloc2_1_0
                           4098 ;	AOP_STK for _Script_Choice_b_sloc0_1_0
                           4099 ;	AOP_STK for _Script_Choice_b_sloc3_1_0
                           4100 ;	Can't optimise plus by inc, falling back to the normal way
   0C0A F8 02              4101 	lda	hl,2(sp)
   0C0C 5E                 4102 	ld	e,(hl)
   0C0D 23                 4103 	inc	hl
   0C0E 56                 4104 	ld	d,(hl)
   0C0F 23                 4105 	inc	hl
   0C10 23                 4106 	inc	hl
   0C11 2A                 4107 	ld	a,(hl+)
   0C12 66                 4108 	ld	h,(hl)
   0C13 6F                 4109 	ld	l,a
   0C14 19                 4110 	add	hl,de
   0C15 7D                 4111 	ld	a,l
   0C16 54                 4112 	ld	d,h
   0C17 F8 00              4113 	lda	hl,0(sp)
   0C19 22                 4114 	ld	(hl+),a
   0C1A 72                 4115 	ld	(hl),d
                           4116 ;	genIpush
                           4117 ; _saveRegsForCall: sendSetSize: 0 deInUse: 0 bcInUse: 0 deSending: 0
   0C1B C5                 4118 	push	bc
                           4119 ;	genIpush
                           4120 ;	AOP_STK for _Script_Choice_b_sloc3_1_0
   0C1C 2B                 4121 	dec	hl
   0C1D 2A                 4122 	ld	a,(hl+)
   0C1E 66                 4123 	ld	h,(hl)
   0C1F 6F                 4124 	ld	l,a
   0C20 E5                 4125 	push	hl
                           4126 ;	genCall
   0C21 CD 00 00           4127 	call	_UIShowChoice
   0C24 E8 04              4128 	lda	sp,4(sp)
                           4129 ;	src/ScriptRunner_b.c 635
                           4130 ;	genAssign
                           4131 ;	AOP_HL for _script_action_complete
   0C26 21 00 00           4132 	ld	hl,#_script_action_complete
   0C29 36 00              4133 	ld	(hl),#0x00
                           4134 ;	genLabel
   0C2B                    4135 00101$:
                           4136 ;	genEndFunction
   0C2B E8 07              4137 	lda	sp,7(sp)
   0C2D C9                 4138 	ret
   0C2E                    4139 ___Script_Choice_b_end:
                           4140 ;	src/ScriptRunner_b.c 643
                           4141 ;	genLabel
                           4142 ;	genFunction
                           4143 ;	---------------------------------
                           4144 ; Function Script_PlayerSetSprite_b
                           4145 ; ---------------------------------
   0C2E                    4146 ___Script_PlayerSetSprite_b_start:
   0C2E                    4147 _Script_PlayerSetSprite_b:
   0C2E E8 EF              4148 	lda	sp,-17(sp)
                           4149 ;	src/ScriptRunner_b.c 650
                           4150 ;	genPointerGet
   0C30 11 00 00           4151 	ld	de,#_script_cmd_args
   0C33 1A                 4152 	ld	a,(de)
   0C34 4F                 4153 	ld	c,a
                           4154 ;	genAssign
                           4155 ;	AOP_STK for _Script_PlayerSetSprite_b_sprite_index_1_1
   0C35 F8 0B              4156 	lda	hl,11(sp)
   0C37 71                 4157 	ld	(hl),c
                           4158 ;	src/ScriptRunner_b.c 651
                           4159 ;	genMult
                           4160 ;	AOP_STK for _Script_PlayerSetSprite_b_sprite_index_1_1
                           4161 ;	AOP_STK for _Script_PlayerSetSprite_b_sloc0_1_0
   0C38 5E                 4162 	ld	e,(hl)
   0C39 16 00              4163 	ld	d,#0x00
   0C3B 6B                 4164 	ld	l,e
   0C3C 62                 4165 	ld	h,d
   0C3D 29                 4166 	add	hl,hl
   0C3E 19                 4167 	add	hl,de
   0C3F 7D                 4168 	ld	a,l
   0C40 54                 4169 	ld	d,h
   0C41 F8 07              4170 	lda	hl,7(sp)
   0C43 22                 4171 	ld	(hl+),a
   0C44 72                 4172 	ld	(hl),d
                           4173 ;	genPlus
                           4174 ;	AOP_STK for _Script_PlayerSetSprite_b_sloc0_1_0
                           4175 ;	Can't optimise plus by inc, falling back to the normal way
   0C45 11 00 00           4176 	ld	de,#_sprite_bank_ptrs
   0C48 2B                 4177 	dec	hl
   0C49 2A                 4178 	ld	a,(hl+)
   0C4A 66                 4179 	ld	h,(hl)
   0C4B 6F                 4180 	ld	l,a
   0C4C 19                 4181 	add	hl,de
   0C4D 45                 4182 	ld	b,l
   0C4E 4C                 4183 	ld	c,h
                           4184 ;	genAddrOf
                           4185 ;	AOP_STK for _Script_PlayerSetSprite_b_sloc0_1_0
   0C4F F8 0E              4186 	lda	hl,14(sp)
   0C51 7D                 4187 	ld	a,l
   0C52 54                 4188 	ld	d,h
   0C53 F8 07              4189 	lda	hl,7(sp)
   0C55 22                 4190 	ld	(hl+),a
   0C56 72                 4191 	ld	(hl),d
                           4192 ;	genIpush
                           4193 ; _saveRegsForCall: sendSetSize: 0 deInUse: 0 bcInUse: 0 deSending: 0
   0C57 68                 4194 	ld	l,b
   0C58 61                 4195 	ld	h,c
   0C59 E5                 4196 	push	hl
                           4197 ;	genIpush
                           4198 ;	AOP_STK for _Script_PlayerSetSprite_b_sloc0_1_0
   0C5A F8 09              4199 	lda	hl,9(sp)
   0C5C 2A                 4200 	ld	a,(hl+)
   0C5D 66                 4201 	ld	h,(hl)
   0C5E 6F                 4202 	ld	l,a
   0C5F E5                 4203 	push	hl
                           4204 ;	genIpush
   0C60 3E 05              4205 	ld	a,#0x05
   0C62 F5                 4206 	push	af
   0C63 33                 4207 	inc	sp
                           4208 ;	genCall
   0C64 CD 00 00           4209 	call	_ReadBankedBankPtr
   0C67 E8 05              4210 	lda	sp,5(sp)
                           4211 ;	src/ScriptRunner_b.c 652
                           4212 ;	genPointerGet
                           4213 ;	AOP_STK for _Script_PlayerSetSprite_b_sloc0_1_0
                           4214 ;	AOP_STK for _Script_PlayerSetSprite_b_sloc4_1_0
   0C69 F8 07              4215 	lda	hl,7(sp)
   0C6B 5E                 4216 	ld	e,(hl)
   0C6C 23                 4217 	inc	hl
   0C6D 56                 4218 	ld	d,(hl)
   0C6E 1A                 4219 	ld	a,(de)
   0C6F F8 00              4220 	lda	hl,0(sp)
                           4221 ;	genCast
                           4222 ;	AOP_STK for _Script_PlayerSetSprite_b_sloc4_1_0
                           4223 ;	AOP_STK for _Script_PlayerSetSprite_b_sloc1_1_0
   0C71 77                 4224 	ld      (hl),a
                           4225 ; Removed redundent load
   0C72 F8 05              4226 	lda	hl,5(sp)
   0C74 22                 4227 	ld	(hl+),a
   0C75 36 00              4228 	ld	(hl),#0x00
                           4229 ;	genLeftShift
                           4230 ;	AOP_STK for _Script_PlayerSetSprite_b_sloc1_1_0
                           4231 ;	AOP_STK for _Script_PlayerSetSprite_b_sloc2_1_0
   0C77 2B                 4232 	dec	hl
   0C78 7E                 4233 	ld	a,(hl)
   0C79 2B                 4234 	dec	hl
   0C7A 2B                 4235 	dec	hl
   0C7B 77                 4236 	ld	(hl),a
   0C7C F8 06              4237 	lda	hl,6(sp)
   0C7E 7E                 4238 	ld	a,(hl)
   0C7F 2B                 4239 	dec	hl
   0C80 2B                 4240 	dec	hl
   0C81 32                 4241 	ld      (hl-),a
   0C82 CB 26              4242 	sla	(hl)
   0C84 23                 4243 	inc	hl
   0C85 CB 16              4244 	rl	(hl)
                           4245 ;	genPlus
                           4246 ;	AOP_STK for _Script_PlayerSetSprite_b_sloc2_1_0
                           4247 ;	AOP_STK for _Script_PlayerSetSprite_b_sloc1_1_0
                           4248 ;	Can't optimise plus by inc, falling back to the normal way
   0C87 11 00 00           4249 	ld	de,#_bank_data_ptrs
   0C8A 2B                 4250 	dec	hl
   0C8B 2A                 4251 	ld	a,(hl+)
   0C8C 66                 4252 	ld	h,(hl)
   0C8D 6F                 4253 	ld	l,a
   0C8E 19                 4254 	add	hl,de
   0C8F 7D                 4255 	ld	a,l
   0C90 54                 4256 	ld	d,h
   0C91 F8 05              4257 	lda	hl,5(sp)
                           4258 ;	genPointerGet
                           4259 ;	AOP_STK for _Script_PlayerSetSprite_b_sloc1_1_0
                           4260 ;	AOP_STK for _Script_PlayerSetSprite_b_sloc2_1_0
   0C93 22                 4261 	ld	(hl+),a
   0C94 72                 4262 	ld	(hl),d
   0C95 5F                 4263 	ld	e,a
   0C96 1A                 4264 	ld	a,(de)
   0C97 F8 03              4265 	lda	hl,3(sp)
   0C99 77                 4266 	ld	(hl),a
   0C9A 13                 4267 	inc	de
   0C9B 1A                 4268 	ld	a,(de)
   0C9C 23                 4269 	inc	hl
                           4270 ;	genCast
                           4271 ;	AOP_STK for _Script_PlayerSetSprite_b_sloc2_1_0
                           4272 ;	AOP_STK for _Script_PlayerSetSprite_b_sloc1_1_0
   0C9D 32                 4273 	ld      (hl-),a
   0C9E 2A                 4274 	ld	a,(hl+)
   0C9F 23                 4275 	inc	hl
   0CA0 32                 4276 	ld      (hl-),a
   0CA1 2A                 4277 	ld	a,(hl+)
   0CA2 23                 4278 	inc	hl
                           4279 ;	genPlus
                           4280 ;	AOP_STK for _Script_PlayerSetSprite_b_sloc0_1_0
                           4281 ;	AOP_STK for _Script_PlayerSetSprite_b_sloc2_1_0
                           4282 ;	genPlusIncr
                           4283 ;	Can't optimise plus by inc, falling back to the normal way
   0CA3 22                 4284 	ld	(hl+),a
   0CA4 5E                 4285 	ld	e,(hl)
   0CA5 23                 4286 	inc	hl
   0CA6 56                 4287 	ld	d,(hl)
   0CA7 21 01 00           4288 	ld	hl,#0x0001
   0CAA 19                 4289 	add	hl,de
   0CAB 7D                 4290 	ld	a,l
   0CAC 54                 4291 	ld	d,h
   0CAD F8 03              4292 	lda	hl,3(sp)
                           4293 ;	genPointerGet
                           4294 ;	AOP_STK for _Script_PlayerSetSprite_b_sloc2_1_0
                           4295 ;	AOP_STK for _Script_PlayerSetSprite_b_sloc3_1_0
   0CAF 22                 4296 	ld	(hl+),a
   0CB0 72                 4297 	ld	(hl),d
   0CB1 5F                 4298 	ld	e,a
   0CB2 1A                 4299 	ld	a,(de)
   0CB3 F8 01              4300 	lda	hl,1(sp)
   0CB5 77                 4301 	ld	(hl),a
   0CB6 13                 4302 	inc	de
   0CB7 1A                 4303 	ld	a,(de)
   0CB8 23                 4304 	inc	hl
   0CB9 77                 4305 	ld	(hl),a
                           4306 ;	genPlus
                           4307 ;	AOP_STK for _Script_PlayerSetSprite_b_sloc1_1_0
                           4308 ;	AOP_STK for _Script_PlayerSetSprite_b_sloc3_1_0
                           4309 ;	AOP_STK for _Script_PlayerSetSprite_b_sprite_ptr_1_1
                           4310 ;	Can't optimise plus by inc, falling back to the normal way
   0CBA F8 05              4311 	lda	hl,5(sp)
   0CBC 5E                 4312 	ld	e,(hl)
   0CBD 23                 4313 	inc	hl
   0CBE 56                 4314 	ld	d,(hl)
   0CBF F8 01              4315 	lda	hl,1(sp)
   0CC1 2A                 4316 	ld	a,(hl+)
   0CC2 66                 4317 	ld	h,(hl)
   0CC3 6F                 4318 	ld	l,a
   0CC4 19                 4319 	add	hl,de
   0CC5 7D                 4320 	ld	a,l
   0CC6 54                 4321 	ld	d,h
   0CC7 F8 0C              4322 	lda	hl,12(sp)
   0CC9 22                 4323 	ld	(hl+),a
   0CCA 72                 4324 	ld	(hl),d
                           4325 ;	genAssign
                           4326 ;	AOP_STK for _Script_PlayerSetSprite_b_sprite_ptr_1_1
                           4327 ;	(registers are the same)
                           4328 ;	src/ScriptRunner_b.c 653
                           4329 ;	genCast
                           4330 ;	AOP_STK for _Script_PlayerSetSprite_b_sprite_ptr_1_1
                           4331 ;	AOP_STK for _Script_PlayerSetSprite_b_sloc3_1_0
   0CCB 2B                 4332 	dec	hl
   0CCC 7E                 4333 	ld	a,(hl)
   0CCD F8 01              4334 	lda	hl,1(sp)
   0CCF 77                 4335 	ld	(hl),a
   0CD0 F8 0D              4336 	lda	hl,13(sp)
   0CD2 7E                 4337 	ld	a,(hl)
   0CD3 F8 02              4338 	lda	hl,2(sp)
                           4339 ;	genIpush
                           4340 ; _saveRegsForCall: sendSetSize: 0 deInUse: 0 bcInUse: 0 deSending: 0
                           4341 ;	AOP_STK for _Script_PlayerSetSprite_b_sloc3_1_0
   0CD5 32                 4342 	ld      (hl-),a
   0CD6 2A                 4343 	ld	a,(hl+)
   0CD7 66                 4344 	ld	h,(hl)
   0CD8 6F                 4345 	ld	l,a
   0CD9 E5                 4346 	push	hl
                           4347 ;	genIpush
                           4348 ;	AOP_STK for _Script_PlayerSetSprite_b_sloc4_1_0
   0CDA F8 02              4349 	lda	hl,2(sp)
   0CDC 7E                 4350 	ld	a,(hl)
   0CDD F5                 4351 	push	af
   0CDE 33                 4352 	inc	sp
                           4353 ;	genCall
   0CDF CD 00 00           4354 	call	_ReadBankedUBYTE
                           4355 ;	AOP_STK for _Script_PlayerSetSprite_b_sprite_frames_1_1
   0CE2 F8 0D              4356 	lda	hl,13(sp)
   0CE4 73                 4357 	ld	(hl),e
   0CE5 E8 03              4358 	lda	sp,3(sp)
                           4359 ;	genAssign
                           4360 ;	AOP_STK for _Script_PlayerSetSprite_b_sprite_frames_1_1
                           4361 ;	(registers are the same)
                           4362 ;	src/ScriptRunner_b.c 654
                           4363 ;	genLeftShift
                           4364 ;	AOP_STK for _Script_PlayerSetSprite_b_sprite_frames_1_1
                           4365 ;	AOP_STK for _Script_PlayerSetSprite_b_sprite_len_1_1
   0CE7 F8 0A              4366 	lda	hl,10(sp)
   0CE9 7E                 4367 	ld	a,(hl)
   0CEA 87                 4368 	add	a,a
   0CEB 87                 4369 	add	a,a
   0CEC 2B                 4370 	dec	hl
   0CED 77                 4371 	ld	(hl),a
                           4372 ;	src/ScriptRunner_b.c 655
                           4373 ;	genPlus
                           4374 ;	AOP_STK for _Script_PlayerSetSprite_b_sprite_ptr_1_1
                           4375 ;	genPlusIncr
                           4376 ;	Can't optimise plus by inc, falling back to the normal way
   0CEE F8 0C              4377 	lda	hl,12(sp)
   0CF0 5E                 4378 	ld	e,(hl)
   0CF1 23                 4379 	inc	hl
   0CF2 56                 4380 	ld	d,(hl)
   0CF3 21 01 00           4381 	ld	hl,#0x0001
   0CF6 19                 4382 	add	hl,de
   0CF7 45                 4383 	ld	b,l
   0CF8 4C                 4384 	ld	c,h
                           4385 ;	genCast
                           4386 ;	genPointerGet
                           4387 ;	AOP_STK for _Script_PlayerSetSprite_b_sloc0_1_0
                           4388 ;	AOP_STK for _Script_PlayerSetSprite_b_sloc4_1_0
   0CF9 F8 07              4389 	lda	hl,7(sp)
   0CFB 5E                 4390 	ld	e,(hl)
   0CFC 23                 4391 	inc	hl
   0CFD 56                 4392 	ld	d,(hl)
   0CFE 1A                 4393 	ld	a,(de)
   0CFF F8 00              4394 	lda	hl,0(sp)
   0D01 77                 4395 	ld	(hl),a
                           4396 ;	genIpush
                           4397 ; _saveRegsForCall: sendSetSize: 0 deInUse: 0 bcInUse: 0 deSending: 0
   0D02 68                 4398 	ld	l,b
   0D03 61                 4399 	ld	h,c
   0D04 E5                 4400 	push	hl
                           4401 ;	genIpush
                           4402 ;	AOP_STK for _Script_PlayerSetSprite_b_sprite_len_1_1
   0D05 F8 0B              4403 	lda	hl,11(sp)
   0D07 7E                 4404 	ld	a,(hl)
   0D08 F5                 4405 	push	af
   0D09 33                 4406 	inc	sp
                           4407 ;	genIpush
   0D0A 3E 00              4408 	ld	a,#0x00
   0D0C F5                 4409 	push	af
   0D0D 33                 4410 	inc	sp
                           4411 ;	genIpush
                           4412 ;	AOP_STK for _Script_PlayerSetSprite_b_sloc4_1_0
   0D0E F8 04              4413 	lda	hl,4(sp)
   0D10 7E                 4414 	ld	a,(hl)
   0D11 F5                 4415 	push	af
   0D12 33                 4416 	inc	sp
                           4417 ;	genCall
   0D13 CD 00 00           4418 	call	_SetBankedSpriteData
   0D16 E8 05              4419 	lda	sp,5(sp)
                           4420 ;	src/ScriptRunner_b.c 656
                           4421 ;	genAssign (pointer)
   0D18 11 00 00           4422 	ld	de,#_actors
   0D1B 3E 00              4423 	ld	a,#0x00
   0D1D 12                 4424 	ld	(de),a
                           4425 ;	src/ScriptRunner_b.c 657
                           4426 ;	genPlus
                           4427 ;	genPlusIncr
   0D1E 21 06 00           4428 	ld	hl,#_actors + 6
                           4429 ;	genAssign (pointer)
   0D21 36 00              4430 	ld	(hl),#0x00
                           4431 ;	src/ScriptRunner_b.c 658
                           4432 ;	genPlus
                           4433 ;	genPlusIncr
   0D23 01 0F 00           4434 	ld	bc,#_actors + 15
                           4435 ;	genCmpEq
                           4436 ;	AOP_STK for _Script_PlayerSetSprite_b_sprite_frames_1_1
                           4437 ;	AOP_STK for _Script_PlayerSetSprite_b_sloc4_1_0
                           4438 ; genCmpEq: left 1, right 1, result 1
   0D26 F8 0A              4439 	lda	hl,10(sp)
   0D28 7E                 4440 	ld	a,(hl)
   0D29 FE 06              4441 	cp	a,#0x06
   0D2B C2 32 0D           4442 	jp	nz,00117$
   0D2E 3E 01              4443 	ld	a,#0x01
   0D30 18 01              4444 	jr	00118$
   0D32                    4445 00117$:
   0D32 AF                 4446 	xor	a,a
   0D33                    4447 00118$:
   0D33 F8 00              4448 	lda	hl,0(sp)
   0D35 77                 4449 	ld	(hl),a
                           4450 ;	genIfx
                           4451 ;	AOP_STK for _Script_PlayerSetSprite_b_sloc4_1_0
   0D36 AF                 4452 	xor	a,a
   0D37 B6                 4453 	or	a,(hl)
   0D38 CA 41 0D           4454 	jp	z,00103$
                           4455 ;	genAssign
                           4456 ;	AOP_STK for _Script_PlayerSetSprite_b_sloc3_1_0
   0D3B 23                 4457 	inc	hl
   0D3C 36 02              4458 	ld	(hl),#0x02
                           4459 ;	genGoto
   0D3E C3 5F 0D           4460 	jp	00104$
                           4461 ;	genLabel
   0D41                    4462 00103$:
                           4463 ;	genCmpEq
                           4464 ;	AOP_STK for _Script_PlayerSetSprite_b_sprite_frames_1_1
                           4465 ; genCmpEq: left 1, right 1, result 0
   0D41 F8 0A              4466 	lda	hl,10(sp)
   0D43 7E                 4467 	ld	a,(hl)
   0D44 FE 03              4468 	cp	a,#0x03
   0D46 C2 55 0D           4469 	jp	nz,00105$
   0D49 18 03              4470 	jr	00120$
   0D4B                    4471 00119$:
   0D4B C3 55 0D           4472 	jp	00105$
   0D4E                    4473 00120$:
                           4474 ;	genAssign
                           4475 ;	AOP_STK for _Script_PlayerSetSprite_b_sloc2_1_0
   0D4E F8 03              4476 	lda	hl,3(sp)
   0D50 36 01              4477 	ld	(hl),#0x01
                           4478 ;	genGoto
   0D52 C3 59 0D           4479 	jp	00106$
                           4480 ;	genLabel
   0D55                    4481 00105$:
                           4482 ;	genAssign
                           4483 ;	AOP_STK for _Script_PlayerSetSprite_b_sloc2_1_0
   0D55 F8 03              4484 	lda	hl,3(sp)
   0D57 36 00              4485 	ld	(hl),#0x00
                           4486 ;	genLabel
   0D59                    4487 00106$:
                           4488 ;	genAssign
                           4489 ;	AOP_STK for _Script_PlayerSetSprite_b_sloc2_1_0
                           4490 ;	AOP_STK for _Script_PlayerSetSprite_b_sloc3_1_0
   0D59 F8 03              4491 	lda	hl,3(sp)
   0D5B 7E                 4492 	ld	a,(hl)
   0D5C 2B                 4493 	dec	hl
   0D5D 2B                 4494 	dec	hl
   0D5E 77                 4495 	ld	(hl),a
                           4496 ;	genLabel
   0D5F                    4497 00104$:
                           4498 ;	genAssign (pointer)
                           4499 ;	AOP_STK for _Script_PlayerSetSprite_b_sloc3_1_0
   0D5F F8 01              4500 	lda	hl,1(sp)
   0D61 7E                 4501 	ld	a,(hl)
   0D62 02                 4502 	ld	(bc),a
                           4503 ;	src/ScriptRunner_b.c 659
                           4504 ;	genPlus
                           4505 ;	genPlusIncr
   0D63 01 07 00           4506 	ld	bc,#_actors + 7
                           4507 ;	genIfx
                           4508 ;	AOP_STK for _Script_PlayerSetSprite_b_sloc4_1_0
   0D66 AF                 4509 	xor	a,a
   0D67 2B                 4510 	dec	hl
   0D68 B6                 4511 	or	a,(hl)
   0D69 CA 71 0D           4512 	jp	z,00107$
                           4513 ;	genAssign
                           4514 ;	AOP_STK for _Script_PlayerSetSprite_b_sloc4_1_0
   0D6C 36 02              4515 	ld	(hl),#0x02
                           4516 ;	genGoto
   0D6E C3 90 0D           4517 	jp	00108$
                           4518 ;	genLabel
   0D71                    4519 00107$:
                           4520 ;	genCmpEq
                           4521 ;	AOP_STK for _Script_PlayerSetSprite_b_sprite_frames_1_1
                           4522 ; genCmpEq: left 1, right 1, result 0
   0D71 F8 0A              4523 	lda	hl,10(sp)
   0D73 7E                 4524 	ld	a,(hl)
   0D74 FE 03              4525 	cp	a,#0x03
   0D76 C2 85 0D           4526 	jp	nz,00109$
   0D79 18 03              4527 	jr	00122$
   0D7B                    4528 00121$:
   0D7B C3 85 0D           4529 	jp	00109$
   0D7E                    4530 00122$:
                           4531 ;	genAssign
                           4532 ;	AOP_STK for _Script_PlayerSetSprite_b_sloc3_1_0
   0D7E F8 01              4533 	lda	hl,1(sp)
   0D80 36 01              4534 	ld	(hl),#0x01
                           4535 ;	genGoto
   0D82 C3 8B 0D           4536 	jp	00110$
                           4537 ;	genLabel
   0D85                    4538 00109$:
                           4539 ;	genAssign
                           4540 ;	AOP_STK for _Script_PlayerSetSprite_b_sprite_frames_1_1
                           4541 ;	AOP_STK for _Script_PlayerSetSprite_b_sloc3_1_0
   0D85 F8 0A              4542 	lda	hl,10(sp)
   0D87 7E                 4543 	ld	a,(hl)
   0D88 F8 01              4544 	lda	hl,1(sp)
   0D8A 77                 4545 	ld	(hl),a
                           4546 ;	genLabel
   0D8B                    4547 00110$:
                           4548 ;	genAssign
                           4549 ;	AOP_STK for _Script_PlayerSetSprite_b_sloc3_1_0
                           4550 ;	AOP_STK for _Script_PlayerSetSprite_b_sloc4_1_0
   0D8B F8 01              4551 	lda	hl,1(sp)
   0D8D 7E                 4552 	ld	a,(hl)
   0D8E 2B                 4553 	dec	hl
   0D8F 77                 4554 	ld	(hl),a
                           4555 ;	genLabel
   0D90                    4556 00108$:
                           4557 ;	genAssign (pointer)
                           4558 ;	AOP_STK for _Script_PlayerSetSprite_b_sloc4_1_0
   0D90 F8 00              4559 	lda	hl,0(sp)
   0D92 7E                 4560 	ld	a,(hl)
   0D93 02                 4561 	ld	(bc),a
                           4562 ;	src/ScriptRunner_b.c 660
                           4563 ;	genIpush
                           4564 ; _saveRegsForCall: sendSetSize: 0 deInUse: 0 bcInUse: 0 deSending: 0
   0D94 3E 00              4565 	ld	a,#0x00
   0D96 F5                 4566 	push	af
   0D97 33                 4567 	inc	sp
                           4568 ;	genCall
   0D98 CD 00 00           4569 	call	_SceneRenderActor
   0D9B E8 01              4570 	lda	sp,1(sp)
                           4571 ;	src/ScriptRunner_b.c 663
                           4572 ;	genAssign
                           4573 ;	AOP_STK for _Script_PlayerSetSprite_b_sprite_index_1_1
                           4574 ;	AOP_HL for _map_next_sprite
   0D9D F8 0B              4575 	lda	hl,11(sp)
   0D9F 7E                 4576 	ld	a,(hl)
   0DA0 21 00 00           4577 	ld	hl,#_map_next_sprite
   0DA3 77                 4578 	ld	(hl),a
                           4579 ;	src/ScriptRunner_b.c 665
                           4580 ;	genPlus
                           4581 ;	AOP_HL for _script_cmd_args_len
                           4582 ;	genPlusIncr
   0DA4 21 00 00           4583 	ld	hl,#_script_cmd_args_len
   0DA7 4E                 4584 	ld	c,(hl)
   0DA8 0C                 4585 	inc	c
                           4586 ;	genCast
                           4587 ; Removed redundent load
   0DA9 06 00              4588 	ld	b,#0x00
                           4589 ;	genPlus
                           4590 ;	AOP_HL for _script_ptr
                           4591 ;	Can't optimise plus by inc, falling back to the normal way
   0DAB 21 00 00           4592 	ld	hl,#_script_ptr
   0DAE 7E                 4593 	ld	a,(hl)
   0DAF 81                 4594 	add	a,c
   0DB0 22                 4595 	ld	(hl+),a
   0DB1 7E                 4596 	ld	a,(hl)
   0DB2 88                 4597 	adc	a,b
   0DB3 77                 4598 	ld	(hl),a
                           4599 ;	src/ScriptRunner_b.c 666
                           4600 ;	genAssign
                           4601 ;	AOP_HL for _script_continue
   0DB4 21 00 00           4602 	ld	hl,#_script_continue
   0DB7 36 01              4603 	ld	(hl),#0x01
                           4604 ;	genLabel
   0DB9                    4605 00101$:
                           4606 ;	genEndFunction
   0DB9 E8 11              4607 	lda	sp,17(sp)
   0DBB C9                 4608 	ret
   0DBC                    4609 ___Script_PlayerSetSprite_b_end:
                           4610 ;	src/ScriptRunner_b.c 674
                           4611 ;	genLabel
                           4612 ;	genFunction
                           4613 ;	---------------------------------
                           4614 ; Function Script_ActorPush_b
                           4615 ; ---------------------------------
   0DBC                    4616 ___Script_ActorPush_b_start:
   0DBC                    4617 _Script_ActorPush_b:
   0DBC E8 F7              4618 	lda	sp,-9(sp)
                           4619 ;	src/ScriptRunner_b.c 678
                           4620 ;	genPointerGet
   0DBE 11 00 00           4621 	ld	de,#_script_cmd_args
   0DC1 1A                 4622 	ld	a,(de)
                           4623 ;	genIfx
   0DC2 B7                 4624 	or	a,a
   0DC3 CA 4C 0E           4625 	jp	z,00114$
                           4626 ;	src/ScriptRunner_b.c 680
                           4627 ;	genPlus
                           4628 ;	genPlusIncr
   0DC6 01 03 00           4629 	ld	bc,#_actors + 3
                           4630 ;	genPointerGet
   0DC9 0A                 4631 	ld	a,(bc)
                           4632 ;	genCmpLt
   0DCA 4F                 4633 	ld	c,a
   0DCB EE 80              4634 	xor	a,#0x80
   0DCD FE 80              4635 	cp	#0x00^0x80
   0DCF D2 D9 0D           4636 	jp	nc,00105$
                           4637 ;	src/ScriptRunner_b.c 682
                           4638 ;	genAssign
                           4639 ;	AOP_STK for _Script_ActorPush_b_dest_x_1_1
   0DD2 F8 08              4640 	lda	hl,8(sp)
   0DD4 36 00              4641 	ld	(hl),#0x00
                           4642 ;	genGoto
   0DD6 C3 07 0E           4643 	jp	00106$
                           4644 ;	genLabel
   0DD9                    4645 00105$:
                           4646 ;	src/ScriptRunner_b.c 684
                           4647 ;	genCmpGt
   0DD9 1E 80              4648 	ld	e,#0x80
   0DDB 79                 4649 	ld	a,c
   0DDC EE 80              4650 	xor	a,#0x80
   0DDE 57                 4651 	ld	d,a
   0DDF 7B                 4652 	ld	a,e
   0DE0 92                 4653 	sub	a,d
   0DE1 D2 EB 0D           4654 	jp	nc,00102$
                           4655 ;	src/ScriptRunner_b.c 686
                           4656 ;	genAssign
                           4657 ;	AOP_STK for _Script_ActorPush_b_dest_x_1_1
   0DE4 F8 08              4658 	lda	hl,8(sp)
   0DE6 36 F0              4659 	ld	(hl),#0xF0
                           4660 ;	genGoto
   0DE8 C3 07 0E           4661 	jp	00106$
                           4662 ;	genLabel
   0DEB                    4663 00102$:
                           4664 ;	src/ScriptRunner_b.c 690
                           4665 ;	genMult
                           4666 ;	AOP_HL for _script_actor
   0DEB 21 00 00           4667 	ld	hl,#_script_actor
   0DEE 5E                 4668 	ld	e,(hl)
   0DEF 16 00              4669 	ld	d,#0x00
   0DF1 6B                 4670 	ld	l,e
   0DF2 62                 4671 	ld	h,d
   0DF3 29                 4672 	add	hl,hl
   0DF4 29                 4673 	add	hl,hl
   0DF5 19                 4674 	add	hl,de
   0DF6 29                 4675 	add	hl,hl
   0DF7 19                 4676 	add	hl,de
   0DF8 29                 4677 	add	hl,hl
   0DF9 4D                 4678 	ld	c,l
   0DFA 44                 4679 	ld	b,h
                           4680 ;	genPlus
                           4681 ;	Can't optimise plus by inc, falling back to the normal way
   0DFB 21 00 00           4682 	ld	hl,#_actors
   0DFE 09                 4683 	add	hl,bc
   0DFF 4D                 4684 	ld	c,l
   0E00 44                 4685 	ld	b,h
                           4686 ;	genPlus
                           4687 ;	genPlusIncr
   0E01 03                 4688 	inc	bc
                           4689 ;	genPointerGet
   0E02 0A                 4690 	ld	a,(bc)
   0E03 4F                 4691 	ld	c,a
                           4692 ;	genAssign
                           4693 ;	AOP_STK for _Script_ActorPush_b_dest_x_1_1
   0E04 F8 08              4694 	lda	hl,8(sp)
   0E06 71                 4695 	ld	(hl),c
                           4696 ;	genLabel
   0E07                    4697 00106$:
                           4698 ;	src/ScriptRunner_b.c 692
                           4699 ;	genPlus
                           4700 ;	genPlusIncr
   0E07 01 04 00           4701 	ld	bc,#_actors + 4
                           4702 ;	genPointerGet
   0E0A 0A                 4703 	ld	a,(bc)
                           4704 ;	genCmpLt
   0E0B 4F                 4705 	ld	c,a
   0E0C EE 80              4706 	xor	a,#0x80
   0E0E FE 80              4707 	cp	#0x00^0x80
   0E10 D2 1A 0E           4708 	jp	nc,00111$
                           4709 ;	src/ScriptRunner_b.c 694
                           4710 ;	genAssign
                           4711 ;	AOP_STK for _Script_ActorPush_b_dest_y_1_1
   0E13 F8 07              4712 	lda	hl,7(sp)
   0E15 36 00              4713 	ld	(hl),#0x00
                           4714 ;	genGoto
   0E17 C3 0C 0F           4715 	jp	00115$
                           4716 ;	genLabel
   0E1A                    4717 00111$:
                           4718 ;	src/ScriptRunner_b.c 696
                           4719 ;	genCmpGt
   0E1A 1E 80              4720 	ld	e,#0x80
   0E1C 79                 4721 	ld	a,c
   0E1D EE 80              4722 	xor	a,#0x80
   0E1F 57                 4723 	ld	d,a
   0E20 7B                 4724 	ld	a,e
   0E21 92                 4725 	sub	a,d
   0E22 D2 2C 0E           4726 	jp	nc,00108$
                           4727 ;	src/ScriptRunner_b.c 698
                           4728 ;	genAssign
                           4729 ;	AOP_STK for _Script_ActorPush_b_dest_y_1_1
   0E25 F8 07              4730 	lda	hl,7(sp)
   0E27 36 F0              4731 	ld	(hl),#0xF0
                           4732 ;	genGoto
   0E29 C3 0C 0F           4733 	jp	00115$
                           4734 ;	genLabel
   0E2C                    4735 00108$:
                           4736 ;	src/ScriptRunner_b.c 702
                           4737 ;	genMult
                           4738 ;	AOP_HL for _script_actor
   0E2C 21 00 00           4739 	ld	hl,#_script_actor
   0E2F 5E                 4740 	ld	e,(hl)
   0E30 16 00              4741 	ld	d,#0x00
   0E32 6B                 4742 	ld	l,e
   0E33 62                 4743 	ld	h,d
   0E34 29                 4744 	add	hl,hl
   0E35 29                 4745 	add	hl,hl
   0E36 19                 4746 	add	hl,de
   0E37 29                 4747 	add	hl,hl
   0E38 19                 4748 	add	hl,de
   0E39 29                 4749 	add	hl,hl
   0E3A 4D                 4750 	ld	c,l
   0E3B 44                 4751 	ld	b,h
                           4752 ;	genPlus
                           4753 ;	Can't optimise plus by inc, falling back to the normal way
   0E3C 21 00 00           4754 	ld	hl,#_actors
   0E3F 09                 4755 	add	hl,bc
   0E40 4D                 4756 	ld	c,l
   0E41 44                 4757 	ld	b,h
                           4758 ;	genPlus
                           4759 ;	genPlusIncr
   0E42 03                 4760 	inc	bc
   0E43 03                 4761 	inc	bc
                           4762 ;	genPointerGet
   0E44 0A                 4763 	ld	a,(bc)
   0E45 4F                 4764 	ld	c,a
                           4765 ;	genAssign
                           4766 ;	AOP_STK for _Script_ActorPush_b_dest_y_1_1
   0E46 F8 07              4767 	lda	hl,7(sp)
   0E48 71                 4768 	ld	(hl),c
                           4769 ;	genGoto
   0E49 C3 0C 0F           4770 	jp	00115$
                           4771 ;	genLabel
   0E4C                    4772 00114$:
                           4773 ;	src/ScriptRunner_b.c 707
                           4774 ;	genMult
                           4775 ;	AOP_HL for _script_actor
   0E4C 21 00 00           4776 	ld	hl,#_script_actor
   0E4F 5E                 4777 	ld	e,(hl)
   0E50 16 00              4778 	ld	d,#0x00
   0E52 6B                 4779 	ld	l,e
   0E53 62                 4780 	ld	h,d
   0E54 29                 4781 	add	hl,hl
   0E55 29                 4782 	add	hl,hl
   0E56 19                 4783 	add	hl,de
   0E57 29                 4784 	add	hl,hl
   0E58 19                 4785 	add	hl,de
   0E59 29                 4786 	add	hl,hl
   0E5A 4D                 4787 	ld	c,l
   0E5B 44                 4788 	ld	b,h
                           4789 ;	genPlus
                           4790 ;	AOP_STK for _Script_ActorPush_b_sloc0_1_0
                           4791 ;	Can't optimise plus by inc, falling back to the normal way
   0E5C 21 00 00           4792 	ld	hl,#_actors
   0E5F 09                 4793 	add	hl,bc
   0E60 7D                 4794 	ld	a,l
   0E61 54                 4795 	ld	d,h
   0E62 F8 05              4796 	lda	hl,5(sp)
   0E64 22                 4797 	ld	(hl+),a
   0E65 72                 4798 	ld	(hl),d
                           4799 ;	genPlus
                           4800 ;	AOP_STK for _Script_ActorPush_b_sloc0_1_0
                           4801 ;	AOP_STK for _Script_ActorPush_b_sloc1_1_0
                           4802 ;	genPlusIncr
                           4803 ;	Can't optimise plus by inc, falling back to the normal way
   0E66 2B                 4804 	dec	hl
   0E67 5E                 4805 	ld	e,(hl)
   0E68 23                 4806 	inc	hl
   0E69 56                 4807 	ld	d,(hl)
   0E6A 21 01 00           4808 	ld	hl,#0x0001
   0E6D 19                 4809 	add	hl,de
   0E6E 7D                 4810 	ld	a,l
   0E6F 54                 4811 	ld	d,h
   0E70 F8 03              4812 	lda	hl,3(sp)
                           4813 ;	genPointerGet
                           4814 ;	AOP_STK for _Script_ActorPush_b_sloc1_1_0
                           4815 ;	AOP_STK for _Script_ActorPush_b_sloc0_1_0
   0E72 22                 4816 	ld	(hl+),a
   0E73 72                 4817 	ld	(hl),d
   0E74 5F                 4818 	ld	e,a
   0E75 1A                 4819 	ld	a,(de)
   0E76 23                 4820 	inc	hl
   0E77 77                 4821 	ld	(hl),a
                           4822 ;	genPlus
                           4823 ;	AOP_STK for _Script_ActorPush_b_sloc1_1_0
                           4824 ;	genPlusIncr
                           4825 ;	Can't optimise plus by inc, falling back to the normal way
   0E78 11 00 00           4826 	ld	de,#_actors
   0E7B 21 03 00           4827 	ld	hl,#0x0003
   0E7E 19                 4828 	add	hl,de
   0E7F 7D                 4829 	ld	a,l
   0E80 54                 4830 	ld	d,h
   0E81 F8 03              4831 	lda	hl,3(sp)
                           4832 ;	genPointerGet
                           4833 ;	AOP_STK for _Script_ActorPush_b_sloc1_1_0
                           4834 ;	AOP_STK for _Script_ActorPush_b_sloc2_1_0
   0E83 22                 4835 	ld	(hl+),a
   0E84 72                 4836 	ld	(hl),d
   0E85 5F                 4837 	ld	e,a
   0E86 1A                 4838 	ld	a,(de)
   0E87 2B                 4839 	dec	hl
   0E88 2B                 4840 	dec	hl
   0E89 77                 4841 	ld	(hl),a
                           4842 ;	genCast
                           4843 ;	AOP_STK for _Script_ActorPush_b_sloc2_1_0
                           4844 ;	AOP_STK for _Script_ActorPush_b_sloc1_1_0
   0E8A 2A                 4845 	ld	a,(hl+)
   0E8B 32                 4846 	ld      (hl-),a
   0E8C 7E                 4847 	ld	a,(hl)
   0E8D 17                 4848 	rla	
   0E8E 9F                 4849 	sbc	a,a
   0E8F 23                 4850 	inc	hl
   0E90 23                 4851 	inc	hl
                           4852 ;	genLeftShift
                           4853 ;	AOP_STK for _Script_ActorPush_b_sloc1_1_0
                           4854 ;	AOP_STK for _Script_ActorPush_b_sloc3_1_0
   0E91 32                 4855 	ld      (hl-),a
   0E92 7E                 4856 	ld	a,(hl)
   0E93 F8 00              4857 	lda	hl,0(sp)
   0E95 77                 4858 	ld	(hl),a
   0E96 F8 04              4859 	lda	hl,4(sp)
   0E98 7E                 4860 	ld	a,(hl)
   0E99 F8 01              4861 	lda	hl,1(sp)
   0E9B 77                 4862 	ld	(hl),a
   0E9C 3E 05              4863 	ld	a,#0x04+1
   0E9E 18 07              4864 	jr	00124$
   0EA0                    4865 00123$:
   0EA0 F8 00              4866 	lda	hl,0(sp)
   0EA2 CB 26              4867 	sla	(hl)
   0EA4 23                 4868 	inc	hl
   0EA5 CB 16              4869 	rl	(hl)
   0EA7                    4870 00124$:
   0EA7 3D                 4871 	dec	a
   0EA8 20 F6              4872 	jr	nz,00123$
                           4873 ;	genCast
                           4874 ;	AOP_STK for _Script_ActorPush_b_sloc0_1_0
                           4875 ;	AOP_STK for _Script_ActorPush_b_sloc1_1_0
   0EAA F8 05              4876 	lda	hl,5(sp)
   0EAC 7E                 4877 	ld	a,(hl)
   0EAD 2B                 4878 	dec	hl
   0EAE 2B                 4879 	dec	hl
   0EAF 22                 4880 	ld	(hl+),a
   0EB0 36 00              4881 	ld	(hl),#0x00
                           4882 ;	genPlus
                           4883 ;	AOP_STK for _Script_ActorPush_b_sloc1_1_0
                           4884 ;	AOP_STK for _Script_ActorPush_b_sloc3_1_0
                           4885 ;	AOP_STK for _Script_ActorPush_b_sloc0_1_0
                           4886 ;	Can't optimise plus by inc, falling back to the normal way
   0EB2 2B                 4887 	dec	hl
   0EB3 5E                 4888 	ld	e,(hl)
   0EB4 23                 4889 	inc	hl
   0EB5 56                 4890 	ld	d,(hl)
   0EB6 F8 00              4891 	lda	hl,0(sp)
   0EB8 2A                 4892 	ld	a,(hl+)
   0EB9 66                 4893 	ld	h,(hl)
   0EBA 6F                 4894 	ld	l,a
   0EBB 19                 4895 	add	hl,de
   0EBC 7D                 4896 	ld	a,l
   0EBD 54                 4897 	ld	d,h
   0EBE F8 05              4898 	lda	hl,5(sp)
   0EC0 22                 4899 	ld	(hl+),a
   0EC1 72                 4900 	ld	(hl),d
                           4901 ;	genCast
                           4902 ;	AOP_STK for _Script_ActorPush_b_sloc0_1_0
                           4903 ;	AOP_STK for _Script_ActorPush_b_dest_x_1_1
   0EC2 2B                 4904 	dec	hl
   0EC3 7E                 4905 	ld	a,(hl)
   0EC4 F8 08              4906 	lda	hl,8(sp)
   0EC6 77                 4907 	ld	(hl),a
                           4908 ;	src/ScriptRunner_b.c 708
                           4909 ;	genPlus
                           4910 ;	Can't optimise plus by inc, falling back to the normal way
   0EC7 21 00 00           4911 	ld	hl,#_actors
   0ECA 09                 4912 	add	hl,bc
   0ECB 4D                 4913 	ld	c,l
   0ECC 44                 4914 	ld	b,h
                           4915 ;	genPlus
                           4916 ;	genPlusIncr
   0ECD 03                 4917 	inc	bc
   0ECE 03                 4918 	inc	bc
                           4919 ;	genPointerGet
   0ECF 0A                 4920 	ld	a,(bc)
   0ED0 4F                 4921 	ld	c,a
                           4922 ;	genPlus
                           4923 ;	AOP_STK for _Script_ActorPush_b_sloc3_1_0
                           4924 ;	genPlusIncr
                           4925 ;	Can't optimise plus by inc, falling back to the normal way
   0ED1 11 00 00           4926 	ld	de,#_actors
   0ED4 21 04 00           4927 	ld	hl,#0x0004
   0ED7 19                 4928 	add	hl,de
   0ED8 7D                 4929 	ld	a,l
   0ED9 54                 4930 	ld	d,h
   0EDA F8 00              4931 	lda	hl,0(sp)
                           4932 ;	genPointerGet
                           4933 ;	AOP_STK for _Script_ActorPush_b_sloc3_1_0
   0EDC 22                 4934 	ld	(hl+),a
   0EDD 72                 4935 	ld	(hl),d
   0EDE 5F                 4936 	ld	e,a
   0EDF 1A                 4937 	ld	a,(de)
   0EE0 47                 4938 	ld	b,a
                           4939 ;	genCast
                           4940 ;	AOP_STK for _Script_ActorPush_b_sloc3_1_0
   0EE1 2B                 4941 	dec	hl
   0EE2 70                 4942 	ld	(hl),b
   0EE3 78                 4943 	ld	a,b
   0EE4 17                 4944 	rla	
   0EE5 9F                 4945 	sbc	a,a
   0EE6 23                 4946 	inc	hl
                           4947 ;	genLeftShift
                           4948 ;	AOP_STK for _Script_ActorPush_b_sloc3_1_0
                           4949 ;	AOP_STK for _Script_ActorPush_b_sloc1_1_0
   0EE7 32                 4950 	ld      (hl-),a
   0EE8 7E                 4951 	ld	a,(hl)
   0EE9 F8 03              4952 	lda	hl,3(sp)
   0EEB 32                 4953 	ld      (hl-),a
   0EEC 2B                 4954 	dec	hl
   0EED 7E                 4955 	ld	a,(hl)
   0EEE F8 04              4956 	lda	hl,4(sp)
   0EF0 77                 4957 	ld	(hl),a
   0EF1 3E 05              4958 	ld	a,#0x04+1
   0EF3 18 07              4959 	jr	00126$
   0EF5                    4960 00125$:
   0EF5 F8 03              4961 	lda	hl,3(sp)
   0EF7 CB 26              4962 	sla	(hl)
   0EF9 23                 4963 	inc	hl
   0EFA CB 16              4964 	rl	(hl)
   0EFC                    4965 00126$:
   0EFC 3D                 4966 	dec	a
   0EFD 20 F6              4967 	jr	nz,00125$
                           4968 ;	genCast
                           4969 ; Removed redundent load
   0EFF 06 00              4970 	ld	b,#0x00
                           4971 ;	genPlus
                           4972 ;	AOP_STK for _Script_ActorPush_b_sloc1_1_0
                           4973 ;	Can't optimise plus by inc, falling back to the normal way
   0F01 F8 03              4974 	lda	hl,3(sp)
   0F03 2A                 4975 	ld	a,(hl+)
   0F04 66                 4976 	ld	h,(hl)
   0F05 6F                 4977 	ld	l,a
   0F06 09                 4978 	add	hl,bc
   0F07 4D                 4979 	ld	c,l
   0F08 44                 4980 	ld	b,h
                           4981 ;	genCast
                           4982 ;	AOP_STK for _Script_ActorPush_b_dest_y_1_1
   0F09 F8 07              4983 	lda	hl,7(sp)
   0F0B 71                 4984 	ld	(hl),c
                           4985 ;	genLabel
   0F0C                    4986 00115$:
                           4987 ;	src/ScriptRunner_b.c 711
                           4988 ;	genOr
                           4989 ;	AOP_HL for _actor_move_settings
   0F0C 21 00 00           4990 	ld	hl,#_actor_move_settings
   0F0F 7E                 4991 	ld	a,(hl)
   0F10 F6 80              4992 	or	a,#0x80
                           4993 ;	src/ScriptRunner_b.c 712
                           4994 ;	genAnd
                           4995 ;	AOP_HL for _actor_move_settings
   0F12 77                 4996 	ld      (hl),a
                           4997 ; Removed redundent load
   0F13 E6 BF              4998 	and	a,#0xBF
   0F15 77                 4999 	ld	(hl),a
                           5000 ;	src/ScriptRunner_b.c 713
                           5001 ;	genAssign (pointer)
   0F16 11 00 00           5002 	ld	de,#_actor_move_dest
   0F19 3E 00              5003 	ld	a,#0x00
   0F1B 12                 5004 	ld	(de),a
                           5005 ;	src/ScriptRunner_b.c 714
                           5006 ;	genAssign (pointer)
                           5007 ;	AOP_STK for _Script_ActorPush_b_dest_x_1_1
   0F1C 11 00 00           5008 	ld	de,#_actor_move_dest
   0F1F F8 08              5009 	lda	hl,8(sp)
   0F21 7E                 5010 	ld	a,(hl)
   0F22 12                 5011 	ld	(de),a
                           5012 ;	src/ScriptRunner_b.c 715
                           5013 ;	genPlus
                           5014 ;	genPlusIncr
   0F23 01 01 00           5015 	ld	bc,#_actor_move_dest + 1
                           5016 ;	genAssign (pointer)
   0F26 3E 00              5017 	ld	a,#0x00
   0F28 02                 5018 	ld	(bc),a
                           5019 ;	src/ScriptRunner_b.c 716
                           5020 ;	genAssign (pointer)
                           5021 ;	AOP_STK for _Script_ActorPush_b_dest_y_1_1
   0F29 2B                 5022 	dec	hl
   0F2A 7E                 5023 	ld	a,(hl)
   0F2B 02                 5024 	ld	(bc),a
                           5025 ;	src/ScriptRunner_b.c 720
                           5026 ;	genPlus
                           5027 ;	AOP_HL for _script_cmd_args_len
                           5028 ;	genPlusIncr
   0F2C 21 00 00           5029 	ld	hl,#_script_cmd_args_len
   0F2F 4E                 5030 	ld	c,(hl)
   0F30 0C                 5031 	inc	c
                           5032 ;	genCast
                           5033 ; Removed redundent load
   0F31 06 00              5034 	ld	b,#0x00
                           5035 ;	genPlus
                           5036 ;	AOP_HL for _script_ptr
                           5037 ;	Can't optimise plus by inc, falling back to the normal way
   0F33 21 00 00           5038 	ld	hl,#_script_ptr
   0F36 7E                 5039 	ld	a,(hl)
   0F37 81                 5040 	add	a,c
   0F38 22                 5041 	ld	(hl+),a
   0F39 7E                 5042 	ld	a,(hl)
   0F3A 88                 5043 	adc	a,b
   0F3B 77                 5044 	ld	(hl),a
                           5045 ;	src/ScriptRunner_b.c 721
                           5046 ;	genAssign
                           5047 ;	AOP_HL for _script_action_complete
   0F3C 21 00 00           5048 	ld	hl,#_script_action_complete
   0F3F 36 00              5049 	ld	(hl),#0x00
                           5050 ;	genLabel
   0F41                    5051 00116$:
                           5052 ;	genEndFunction
   0F41 E8 09              5053 	lda	sp,9(sp)
   0F43 C9                 5054 	ret
   0F44                    5055 ___Script_ActorPush_b_end:
                           5056 ;	src/ScriptRunner_b.c 735
                           5057 ;	genLabel
                           5058 ;	genFunction
                           5059 ;	---------------------------------
                           5060 ; Function Script_IfActorPos_b
                           5061 ; ---------------------------------
   0F44                    5062 ___Script_IfActorPos_b_start:
   0F44                    5063 _Script_IfActorPos_b:
   0F44 E8 FC              5064 	lda	sp,-4(sp)
                           5065 ;	src/ScriptRunner_b.c 738
                           5066 ;	genPlus
                           5067 ;	genPlusIncr
   0F46 01 01 00           5068 	ld	bc,#_script_cmd_args + 1
                           5069 ;	genPointerGet
   0F49 0A                 5070 	ld	a,(bc)
                           5071 ;	genLeftShift
   0F4A 4F                 5072 	ld	c,a
   0F4B CB 27              5073 	sla	a
   0F4D CB 17              5074 	rl	a
   0F4F CB 17              5075 	rl	a
   0F51 E6 F8              5076 	and	a,#0xF8
                           5077 ;	genPlus
                           5078 ;	genPlusIncr
                           5079 ;	Can't optimise plus by inc, falling back to the normal way
   0F53 4F                 5080 	ld	c,a
   0F54 C6 08              5081 	add	a,#0x08
   0F56 4F                 5082 	ld	c,a
                           5083 ;	genPointerGet
   0F57 11 00 00           5084 	ld	de,#_script_cmd_args
   0F5A 1A                 5085 	ld	a,(de)
   0F5B 47                 5086 	ld	b,a
                           5087 ;	genMult
                           5088 ;	AOP_STK for _Script_IfActorPos_b_sloc0_1_0
   0F5C 58                 5089 	ld	e,b
   0F5D 16 00              5090 	ld	d,#0x00
   0F5F 6B                 5091 	ld	l,e
   0F60 62                 5092 	ld	h,d
   0F61 29                 5093 	add	hl,hl
   0F62 29                 5094 	add	hl,hl
   0F63 19                 5095 	add	hl,de
   0F64 29                 5096 	add	hl,hl
   0F65 19                 5097 	add	hl,de
   0F66 29                 5098 	add	hl,hl
   0F67 7D                 5099 	ld	a,l
   0F68 54                 5100 	ld	d,h
   0F69 F8 02              5101 	lda	hl,2(sp)
   0F6B 22                 5102 	ld	(hl+),a
   0F6C 72                 5103 	ld	(hl),d
                           5104 ;	genPlus
                           5105 ;	AOP_STK for _Script_IfActorPos_b_sloc0_1_0
                           5106 ;	AOP_STK for _Script_IfActorPos_b_sloc1_1_0
                           5107 ;	Can't optimise plus by inc, falling back to the normal way
   0F6D 11 00 00           5108 	ld	de,#_actors
   0F70 2B                 5109 	dec	hl
   0F71 2A                 5110 	ld	a,(hl+)
   0F72 66                 5111 	ld	h,(hl)
   0F73 6F                 5112 	ld	l,a
   0F74 19                 5113 	add	hl,de
   0F75 7D                 5114 	ld	a,l
   0F76 54                 5115 	ld	d,h
   0F77 F8 00              5116 	lda	hl,0(sp)
   0F79 22                 5117 	ld	(hl+),a
   0F7A 72                 5118 	ld	(hl),d
                           5119 ;	genPlus
                           5120 ;	AOP_STK for _Script_IfActorPos_b_sloc1_1_0
                           5121 ;	AOP_STK for _Script_IfActorPos_b_sloc0_1_0
                           5122 ;	genPlusIncr
                           5123 ;	Can't optimise plus by inc, falling back to the normal way
   0F7B 2B                 5124 	dec	hl
   0F7C 5E                 5125 	ld	e,(hl)
   0F7D 23                 5126 	inc	hl
   0F7E 56                 5127 	ld	d,(hl)
   0F7F 21 01 00           5128 	ld	hl,#0x0001
   0F82 19                 5129 	add	hl,de
   0F83 7D                 5130 	ld	a,l
   0F84 54                 5131 	ld	d,h
   0F85 F8 02              5132 	lda	hl,2(sp)
                           5133 ;	genPointerGet
                           5134 ;	AOP_STK for _Script_IfActorPos_b_sloc0_1_0
   0F87 22                 5135 	ld	(hl+),a
   0F88 72                 5136 	ld	(hl),d
   0F89 5F                 5137 	ld	e,a
   0F8A 1A                 5138 	ld	a,(de)
   0F8B 47                 5139 	ld	b,a
                           5140 ;	genCmpEq
                           5141 ; genCmpEq: left 1, right 1, result 0
   0F8C 79                 5142 	ld	a,c
   0F8D B8                 5143 	cp	b
   0F8E C2 FB 0F           5144 	jp	nz,00102$
   0F91 18 03              5145 	jr	00110$
   0F93                    5146 00109$:
   0F93 C3 FB 0F           5147 	jp	00102$
   0F96                    5148 00110$:
                           5149 ;	src/ScriptRunner_b.c 739
                           5150 ;	genPlus
                           5151 ;	genPlusIncr
   0F96 01 02 00           5152 	ld	bc,#_script_cmd_args + 2
                           5153 ;	genPointerGet
   0F99 0A                 5154 	ld	a,(bc)
                           5155 ;	genLeftShift
   0F9A 4F                 5156 	ld	c,a
   0F9B CB 27              5157 	sla	a
   0F9D CB 17              5158 	rl	a
   0F9F CB 17              5159 	rl	a
   0FA1 E6 F8              5160 	and	a,#0xF8
                           5161 ;	genPlus
                           5162 ;	genPlusIncr
                           5163 ;	Can't optimise plus by inc, falling back to the normal way
   0FA3 4F                 5164 	ld	c,a
   0FA4 C6 08              5165 	add	a,#0x08
   0FA6 4F                 5166 	ld	c,a
                           5167 ;	genPlus
                           5168 ;	AOP_STK for _Script_IfActorPos_b_sloc1_1_0
                           5169 ;	AOP_STK for _Script_IfActorPos_b_sloc0_1_0
                           5170 ;	genPlusIncr
                           5171 ;	Can't optimise plus by inc, falling back to the normal way
   0FA7 F8 00              5172 	lda	hl,0(sp)
   0FA9 5E                 5173 	ld	e,(hl)
   0FAA 23                 5174 	inc	hl
   0FAB 56                 5175 	ld	d,(hl)
   0FAC 21 02 00           5176 	ld	hl,#0x0002
   0FAF 19                 5177 	add	hl,de
   0FB0 7D                 5178 	ld	a,l
   0FB1 54                 5179 	ld	d,h
   0FB2 F8 02              5180 	lda	hl,2(sp)
                           5181 ;	genPointerGet
                           5182 ;	AOP_STK for _Script_IfActorPos_b_sloc0_1_0
   0FB4 22                 5183 	ld	(hl+),a
   0FB5 72                 5184 	ld	(hl),d
   0FB6 5F                 5185 	ld	e,a
   0FB7 1A                 5186 	ld	a,(de)
   0FB8 47                 5187 	ld	b,a
                           5188 ;	genCmpEq
                           5189 ; genCmpEq: left 1, right 1, result 0
   0FB9 79                 5190 	ld	a,c
   0FBA B8                 5191 	cp	b
   0FBB C2 FB 0F           5192 	jp	nz,00102$
   0FBE 18 03              5193 	jr	00112$
   0FC0                    5194 00111$:
   0FC0 C3 FB 0F           5195 	jp	00102$
   0FC3                    5196 00112$:
                           5197 ;	src/ScriptRunner_b.c 741
                           5198 ;	genPlus
                           5199 ;	genPlusIncr
   0FC3 01 03 00           5200 	ld	bc,#_script_cmd_args + 3
                           5201 ;	genPointerGet
   0FC6 0A                 5202 	ld	a,(bc)
   0FC7 4F                 5203 	ld	c,a
                           5204 ;	genCast
                           5205 ; Removed redundent load
   0FC8 06 00              5206 	ld	b,#0x00
                           5207 ;	genLeftShift
   0FCA 41                 5208 	ld	b,c
   0FCB 0E 00              5209 	ld	c,#0x00
                           5210 ;	genPlus
                           5211 ;	AOP_HL for _script_start_ptr
                           5212 ;	Can't optimise plus by inc, falling back to the normal way
   0FCD 21 00 00           5213 	ld	hl,#_script_start_ptr
   0FD0 7E                 5214 	ld	a,(hl)
   0FD1 81                 5215 	add	a,c
   0FD2 4F                 5216 	ld	c,a
   0FD3 23                 5217 	inc	hl
   0FD4 7E                 5218 	ld	a,(hl)
   0FD5 88                 5219 	adc	a,b
   0FD6 47                 5220 	ld	b,a
                           5221 ;	genPlus
                           5222 ;	AOP_STK for _Script_IfActorPos_b_sloc1_1_0
                           5223 ;	genPlusIncr
                           5224 ;	Can't optimise plus by inc, falling back to the normal way
   0FD7 11 00 00           5225 	ld	de,#_script_cmd_args
   0FDA 21 04 00           5226 	ld	hl,#0x0004
   0FDD 19                 5227 	add	hl,de
   0FDE 7D                 5228 	ld	a,l
   0FDF 54                 5229 	ld	d,h
   0FE0 F8 00              5230 	lda	hl,0(sp)
                           5231 ;	genPointerGet
                           5232 ;	AOP_STK for _Script_IfActorPos_b_sloc1_1_0
                           5233 ;	AOP_STK for _Script_IfActorPos_b_sloc0_1_0
   0FE2 22                 5234 	ld	(hl+),a
   0FE3 72                 5235 	ld	(hl),d
   0FE4 5F                 5236 	ld	e,a
   0FE5 1A                 5237 	ld	a,(de)
   0FE6 23                 5238 	inc	hl
                           5239 ;	genCast
                           5240 ;	AOP_STK for _Script_IfActorPos_b_sloc0_1_0
                           5241 ;	AOP_STK for _Script_IfActorPos_b_sloc1_1_0
                           5242 ; Removed redundent load
   0FE7 32                 5243 	ld      (hl-),a
   0FE8 2B                 5244 	dec	hl
   0FE9 22                 5245 	ld	(hl+),a
   0FEA 36 00              5246 	ld	(hl),#0x00
                           5247 ;	genPlus
                           5248 ;	AOP_STK for _Script_IfActorPos_b_sloc1_1_0
                           5249 ;	AOP_HL for _script_ptr
                           5250 ;	Can't optimise plus by inc, falling back to the normal way
   0FEC 2B                 5251 	dec	hl
   0FED 2A                 5252 	ld	a,(hl+)
   0FEE 66                 5253 	ld	h,(hl)
   0FEF 6F                 5254 	ld	l,a
   0FF0 09                 5255 	add	hl,bc
   0FF1 7D                 5256 	ld	a,l
   0FF2 54                 5257 	ld	d,h
   0FF3 21 00 00           5258 	ld	hl,#_script_ptr
   0FF6 22                 5259 	ld	(hl+),a
   0FF7 72                 5260 	ld	(hl),d
                           5261 ;	genGoto
   0FF8 C3 0B 10           5262 	jp	00103$
                           5263 ;	genLabel
   0FFB                    5264 00102$:
                           5265 ;	src/ScriptRunner_b.c 745
                           5266 ;	genPlus
                           5267 ;	AOP_HL for _script_cmd_args_len
                           5268 ;	genPlusIncr
   0FFB 21 00 00           5269 	ld	hl,#_script_cmd_args_len
   0FFE 4E                 5270 	ld	c,(hl)
   0FFF 0C                 5271 	inc	c
                           5272 ;	genCast
                           5273 ; Removed redundent load
   1000 06 00              5274 	ld	b,#0x00
                           5275 ;	genPlus
                           5276 ;	AOP_HL for _script_ptr
                           5277 ;	Can't optimise plus by inc, falling back to the normal way
   1002 21 00 00           5278 	ld	hl,#_script_ptr
   1005 7E                 5279 	ld	a,(hl)
   1006 81                 5280 	add	a,c
   1007 22                 5281 	ld	(hl+),a
   1008 7E                 5282 	ld	a,(hl)
   1009 88                 5283 	adc	a,b
   100A 77                 5284 	ld	(hl),a
                           5285 ;	genLabel
   100B                    5286 00103$:
                           5287 ;	src/ScriptRunner_b.c 747
                           5288 ;	genAssign
                           5289 ;	AOP_HL for _script_continue
   100B 21 00 00           5290 	ld	hl,#_script_continue
   100E 36 01              5291 	ld	(hl),#0x01
                           5292 ;	genLabel
   1010                    5293 00105$:
                           5294 ;	genEndFunction
   1010 E8 04              5295 	lda	sp,4(sp)
   1012 C9                 5296 	ret
   1013                    5297 ___Script_IfActorPos_b_end:
                           5298 ;	src/ScriptRunner_b.c 755
                           5299 ;	genLabel
                           5300 ;	genFunction
                           5301 ;	---------------------------------
                           5302 ; Function Script_SaveData_b
                           5303 ; ---------------------------------
   1013                    5304 ___Script_SaveData_b_start:
   1013                    5305 _Script_SaveData_b:
   1013 E8 FC              5306 	lda	sp,-4(sp)
                           5307 ;	src/ScriptRunner_b.c 759
                           5308 ;	genAssign
   1015 01 00 00           5309 	ld	bc,#0x0000
                           5310 ;	genAssign (pointer)
   1018 3E 0A              5311 	ld	a,#0x0A
   101A 02                 5312 	ld	(bc),a
                           5313 ;	src/ScriptRunner_b.c 761
                           5314 ;	genAssign
                           5315 ;	AOP_HL for _RAMPtr
   101B 21 01 00           5316 	ld	hl,#_RAMPtr
   101E 36 00              5317 	ld	(hl),#0x00
   1020 23                 5318 	inc	hl
   1021 36 A0              5319 	ld	(hl),#0xA0
                           5320 ;	src/ScriptRunner_b.c 762
                           5321 ;	genAssign
   1023 01 00 A0           5322 	ld	bc,#0xA000
                           5323 ;	genAssign (pointer)
   1026 3E 01              5324 	ld	a,#0x01
   1028 02                 5325 	ld	(bc),a
                           5326 ;	src/ScriptRunner_b.c 765
                           5327 ;	genAssign
   1029 01 01 A0           5328 	ld	bc,#0xA001
                           5329 ;	genCast
                           5330 ;	AOP_HL for _scene_index
   102C 21 00 00           5331 	ld	hl,#_scene_index
   102F 7E                 5332 	ld	a,(hl)
                           5333 ;	genAssign (pointer)
   1030 02                 5334 	ld	(bc),a
                           5335 ;	src/ScriptRunner_b.c 768
                           5336 ;	genAssign
   1031 01 02 A0           5337 	ld	bc,#0xA002
                           5338 ;	genPlus
                           5339 ;	AOP_STK for _Script_SaveData_b_sloc0_1_0
                           5340 ;	genPlusIncr
                           5341 ;	Can't optimise plus by inc, falling back to the normal way
   1034 11 00 00           5342 	ld	de,#_actors
   1037 21 01 00           5343 	ld	hl,#0x0001
   103A 19                 5344 	add	hl,de
   103B 7D                 5345 	ld	a,l
   103C 54                 5346 	ld	d,h
   103D F8 02              5347 	lda	hl,2(sp)
                           5348 ;	genPointerGet
                           5349 ;	AOP_STK for _Script_SaveData_b_sloc0_1_0
   103F 22                 5350 	ld	(hl+),a
   1040 72                 5351 	ld	(hl),d
   1041 5F                 5352 	ld	e,a
   1042 1A                 5353 	ld	a,(de)
                           5354 ;	genAssign (pointer)
   1043 02                 5355 	ld	(bc),a
                           5356 ;	src/ScriptRunner_b.c 769
                           5357 ;	genAssign
   1044 01 03 A0           5358 	ld	bc,#0xA003
                           5359 ;	genPlus
                           5360 ;	AOP_STK for _Script_SaveData_b_sloc0_1_0
                           5361 ;	genPlusIncr
                           5362 ;	Can't optimise plus by inc, falling back to the normal way
   1047 11 00 00           5363 	ld	de,#_actors
   104A 21 02 00           5364 	ld	hl,#0x0002
   104D 19                 5365 	add	hl,de
   104E 7D                 5366 	ld	a,l
   104F 54                 5367 	ld	d,h
   1050 F8 02              5368 	lda	hl,2(sp)
                           5369 ;	genPointerGet
                           5370 ;	AOP_STK for _Script_SaveData_b_sloc0_1_0
   1052 22                 5371 	ld	(hl+),a
   1053 72                 5372 	ld	(hl),d
   1054 5F                 5373 	ld	e,a
   1055 1A                 5374 	ld	a,(de)
                           5375 ;	genAssign (pointer)
   1056 02                 5376 	ld	(bc),a
                           5377 ;	src/ScriptRunner_b.c 770
                           5378 ;	genPlus
                           5379 ;	genPlusIncr
   1057 01 03 00           5380 	ld	bc,#_actors + 3
                           5381 ;	genPointerGet
   105A 0A                 5382 	ld	a,(bc)
                           5383 ;	genCmpLt
   105B 4F                 5384 	ld	c,a
   105C EE 80              5385 	xor	a,#0x80
   105E FE 80              5386 	cp	#0x00^0x80
   1060 D2 73 10           5387 	jp	nc,00108$
                           5388 ;	src/ScriptRunner_b.c 772
                           5389 ;	genAssign
                           5390 ;	AOP_STK for _Script_SaveData_b_sloc0_1_0
   1063 2B                 5391 	dec	hl
   1064 36 04              5392 	ld	(hl),#0x04
   1066 23                 5393 	inc	hl
   1067 36 A0              5394 	ld	(hl),#0xA0
                           5395 ;	genAssign (pointer)
                           5396 ;	AOP_STK for _Script_SaveData_b_sloc0_1_0
   1069 2B                 5397 	dec	hl
   106A 5E                 5398 	ld	e,(hl)
   106B 23                 5399 	inc	hl
   106C 56                 5400 	ld	d,(hl)
   106D 3E 02              5401 	ld	a,#0x02
   106F 12                 5402 	ld	(de),a
                           5403 ;	genGoto
   1070 C3 A2 10           5404 	jp	00109$
                           5405 ;	genLabel
   1073                    5406 00108$:
                           5407 ;	src/ScriptRunner_b.c 774
                           5408 ;	genCmpGt
   1073 1E 80              5409 	ld	e,#0x80
   1075 79                 5410 	ld	a,c
   1076 EE 80              5411 	xor	a,#0x80
   1078 57                 5412 	ld	d,a
   1079 7B                 5413 	ld	a,e
   107A 92                 5414 	sub	a,d
   107B D2 87 10           5415 	jp	nc,00105$
                           5416 ;	src/ScriptRunner_b.c 776
                           5417 ;	genAssign
   107E 01 04 A0           5418 	ld	bc,#0xA004
                           5419 ;	genAssign (pointer)
   1081 3E 04              5420 	ld	a,#0x04
   1083 02                 5421 	ld	(bc),a
                           5422 ;	genGoto
   1084 C3 A2 10           5423 	jp	00109$
                           5424 ;	genLabel
   1087                    5425 00105$:
                           5426 ;	src/ScriptRunner_b.c 778
                           5427 ;	genPlus
                           5428 ;	genPlusIncr
   1087 01 04 00           5429 	ld	bc,#_actors + 4
                           5430 ;	genPointerGet
   108A 0A                 5431 	ld	a,(bc)
                           5432 ;	genCmpLt
   108B 4F                 5433 	ld	c,a
   108C EE 80              5434 	xor	a,#0x80
   108E FE 80              5435 	cp	#0x00^0x80
   1090 D2 9C 10           5436 	jp	nc,00102$
                           5437 ;	src/ScriptRunner_b.c 780
                           5438 ;	genAssign
   1093 01 04 A0           5439 	ld	bc,#0xA004
                           5440 ;	genAssign (pointer)
   1096 3E 08              5441 	ld	a,#0x08
   1098 02                 5442 	ld	(bc),a
                           5443 ;	genGoto
   1099 C3 A2 10           5444 	jp	00109$
                           5445 ;	genLabel
   109C                    5446 00102$:
                           5447 ;	src/ScriptRunner_b.c 784
                           5448 ;	genAssign
   109C 01 04 A0           5449 	ld	bc,#0xA004
                           5450 ;	genAssign (pointer)
   109F 3E 01              5451 	ld	a,#0x01
   10A1 02                 5452 	ld	(bc),a
                           5453 ;	genLabel
   10A2                    5454 00109$:
                           5455 ;	src/ScriptRunner_b.c 788
                           5456 ;	genAssign
   10A2 01 05 A0           5457 	ld	bc,#0xA005
                           5458 ;	genAssign (pointer)
                           5459 ;	AOP_HL for _map_next_sprite
   10A5 21 00 00           5460 	ld	hl,#_map_next_sprite
   10A8 7E                 5461 	ld	a,(hl)
   10A9 02                 5462 	ld	(bc),a
                           5463 ;	src/ScriptRunner_b.c 791
                           5464 ;	genAssign
                           5465 ;	AOP_HL for _RAMPtr
   10AA 21 01 00           5466 	ld	hl,#_RAMPtr
   10AD 36 FF              5467 	ld	(hl),#0xFF
   10AF 23                 5468 	inc	hl
   10B0 36 A0              5469 	ld	(hl),#0xA0
                           5470 ;	src/ScriptRunner_b.c 792
                           5471 ;	genAssign
   10B2 01 00 00           5472 	ld	bc,#0x0000
                           5473 ;	genLabel
   10B5                    5474 00110$:
                           5475 ;	genCmpLt
   10B5 79                 5476 	ld	a,c
   10B6 D6 66              5477 	sub	a,#0x66
   10B8 78                 5478 	ld	a,b
   10B9 DE 00              5479 	sbc	a,#0x00
   10BB D2 DD 10           5480 	jp	nc,00113$
                           5481 ;	src/ScriptRunner_b.c 794
                           5482 ;	genPlus
                           5483 ;	AOP_STK for _Script_SaveData_b_sloc0_1_0
                           5484 ;	genPlusIncr
                           5485 ;	Can't optimise plus by inc, falling back to the normal way
   10BE 21 FF A0           5486 	ld	hl,#0xA0FF
   10C1 09                 5487 	add	hl,bc
   10C2 7D                 5488 	ld	a,l
   10C3 54                 5489 	ld	d,h
   10C4 F8 02              5490 	lda	hl,2(sp)
   10C6 22                 5491 	ld	(hl+),a
   10C7 72                 5492 	ld	(hl),d
                           5493 ;	genPlus
                           5494 ;	AOP_STK for _Script_SaveData_b_sloc1_1_0
                           5495 ;	Can't optimise plus by inc, falling back to the normal way
   10C8 21 00 00           5496 	ld	hl,#_script_variables
   10CB 09                 5497 	add	hl,bc
   10CC 7D                 5498 	ld	a,l
   10CD 54                 5499 	ld	d,h
   10CE F8 00              5500 	lda	hl,0(sp)
                           5501 ;	genPointerGet
                           5502 ;	AOP_STK for _Script_SaveData_b_sloc1_1_0
   10D0 22                 5503 	ld	(hl+),a
   10D1 72                 5504 	ld	(hl),d
   10D2 5F                 5505 	ld	e,a
   10D3 1A                 5506 	ld	a,(de)
                           5507 ;	genAssign (pointer)
                           5508 ;	AOP_STK for _Script_SaveData_b_sloc0_1_0
   10D4 23                 5509 	inc	hl
   10D5 5E                 5510 	ld	e,(hl)
   10D6 23                 5511 	inc	hl
   10D7 56                 5512 	ld	d,(hl)
   10D8 12                 5513 	ld	(de),a
                           5514 ;	src/ScriptRunner_b.c 792
                           5515 ;	genPlus
                           5516 ;	genPlusIncr
   10D9 03                 5517 	inc	bc
                           5518 ;	genGoto
   10DA C3 B5 10           5519 	jp	00110$
                           5520 ;	genLabel
   10DD                    5521 00113$:
                           5522 ;	src/ScriptRunner_b.c 797
                           5523 ;	genAssign
   10DD 01 00 00           5524 	ld	bc,#0x0000
                           5525 ;	genAssign (pointer)
   10E0 3E 00              5526 	ld	a,#0x00
   10E2 02                 5527 	ld	(bc),a
                           5528 ;	src/ScriptRunner_b.c 799
                           5529 ;	genPlus
                           5530 ;	AOP_HL for _script_cmd_args_len
                           5531 ;	genPlusIncr
   10E3 21 00 00           5532 	ld	hl,#_script_cmd_args_len
   10E6 4E                 5533 	ld	c,(hl)
   10E7 0C                 5534 	inc	c
                           5535 ;	genCast
                           5536 ; Removed redundent load
   10E8 06 00              5537 	ld	b,#0x00
                           5538 ;	genPlus
                           5539 ;	AOP_HL for _script_ptr
                           5540 ;	Can't optimise plus by inc, falling back to the normal way
   10EA 21 00 00           5541 	ld	hl,#_script_ptr
   10ED 7E                 5542 	ld	a,(hl)
   10EE 81                 5543 	add	a,c
   10EF 22                 5544 	ld	(hl+),a
   10F0 7E                 5545 	ld	a,(hl)
   10F1 88                 5546 	adc	a,b
   10F2 77                 5547 	ld	(hl),a
                           5548 ;	src/ScriptRunner_b.c 800
                           5549 ;	genAssign
                           5550 ;	AOP_HL for _script_continue
   10F3 21 00 00           5551 	ld	hl,#_script_continue
   10F6 36 01              5552 	ld	(hl),#0x01
                           5553 ;	genLabel
   10F8                    5554 00114$:
                           5555 ;	genEndFunction
   10F8 E8 04              5556 	lda	sp,4(sp)
   10FA C9                 5557 	ret
   10FB                    5558 ___Script_SaveData_b_end:
                           5559 ;	src/ScriptRunner_b.c 808
                           5560 ;	genLabel
                           5561 ;	genFunction
                           5562 ;	---------------------------------
                           5563 ; Function Script_LoadData_b
                           5564 ; ---------------------------------
   10FB                    5565 ___Script_LoadData_b_start:
   10FB                    5566 _Script_LoadData_b:
   10FB E8 FB              5567 	lda	sp,-5(sp)
                           5568 ;	src/ScriptRunner_b.c 812
                           5569 ;	genAssign
   10FD 01 00 00           5570 	ld	bc,#0x0000
                           5571 ;	genAssign (pointer)
   1100 3E 0A              5572 	ld	a,#0x0A
   1102 02                 5573 	ld	(bc),a
                           5574 ;	src/ScriptRunner_b.c 814
                           5575 ;	genAssign
                           5576 ;	AOP_HL for _RAMPtr
   1103 21 01 00           5577 	ld	hl,#_RAMPtr
   1106 36 00              5578 	ld	(hl),#0x00
   1108 23                 5579 	inc	hl
   1109 36 A0              5580 	ld	(hl),#0xA0
                           5581 ;	src/ScriptRunner_b.c 815
                           5582 ;	genPointerGet
   110B 11 00 A0           5583 	ld	de,#0xA000
   110E 1A                 5584 	ld	a,(de)
                           5585 ;	genCmpEq
                           5586 ; genCmpEq: left 1, right 1, result 0
   110F 4F                 5587 	ld	c,a
   1110 FE 01              5588 	cp	a,#0x01
   1112 C2 13 12           5589 	jp	nz,00102$
   1115 18 03              5590 	jr	00125$
   1117                    5591 00124$:
   1117 C3 13 12           5592 	jp	00102$
   111A                    5593 00125$:
                           5594 ;	src/ScriptRunner_b.c 819
                           5595 ;	genPointerGet
   111A 11 01 A0           5596 	ld	de,#0xA001
   111D 1A                 5597 	ld	a,(de)
   111E 4F                 5598 	ld	c,a
                           5599 ;	genCast
                           5600 ;	AOP_HL for _scene_next_index
   111F 21 00 00           5601 	ld	hl,#_scene_next_index
   1122 71                 5602 	ld	(hl),c
   1123 23                 5603 	inc	hl
   1124 36 00              5604 	ld	(hl),#0x00
                           5605 ;	src/ScriptRunner_b.c 820
                           5606 ;	genPlus
                           5607 ;	AOP_HL for _scene_next_index
                           5608 ;	AOP_HL for _scene_index
                           5609 ;	genPlusIncr
                           5610 ;	Can't optimise plus by inc, falling back to the normal way
   1126 2B                 5611 	dec	hl
   1127 7E                 5612 	ld	a,(hl)
   1128 C6 01              5613 	add	a,#0x01
   112A 21 00 00           5614 	ld	hl,#_scene_index
   112D 77                 5615 	ld	(hl),a
   112E 21 01 00           5616 	ld	hl,#_scene_next_index + 1
   1131 7E                 5617 	ld	a,(hl)
   1132 CE 00              5618 	adc	a,#0x00
   1134 21 01 00           5619 	ld	hl,#_scene_index + 1
   1137 77                 5620 	ld	(hl),a
                           5621 ;	src/ScriptRunner_b.c 824
                           5622 ;	genAssign (pointer)
   1138 11 00 00           5623 	ld	de,#_map_next_pos
   113B 3E 00              5624 	ld	a,#0x00
   113D 12                 5625 	ld	(de),a
                           5626 ;	src/ScriptRunner_b.c 825
                           5627 ;	genPointerGet
   113E 11 02 A0           5628 	ld	de,#0xA002
   1141 1A                 5629 	ld	a,(de)
                           5630 ;	genAssign (pointer)
   1142 11 00 00           5631 	ld	de,#_map_next_pos
   1145 12                 5632 	ld	(de),a
                           5633 ;	src/ScriptRunner_b.c 827
                           5634 ;	genPlus
                           5635 ;	genPlusIncr
   1146 01 01 00           5636 	ld	bc,#_map_next_pos + 1
                           5637 ;	genAssign (pointer)
   1149 3E 00              5638 	ld	a,#0x00
   114B 02                 5639 	ld	(bc),a
                           5640 ;	src/ScriptRunner_b.c 828
                           5641 ;	genPointerGet
   114C 11 03 A0           5642 	ld	de,#0xA003
   114F 1A                 5643 	ld	a,(de)
                           5644 ;	genAssign (pointer)
   1150 02                 5645 	ld	(bc),a
                           5646 ;	src/ScriptRunner_b.c 829
                           5647 ;	genAssign
                           5648 ;	AOP_HL for _RAMPtr
   1151 21 01 00           5649 	ld	hl,#_RAMPtr
   1154 36 04              5650 	ld	(hl),#0x04
   1156 23                 5651 	inc	hl
   1157 36 A0              5652 	ld	(hl),#0xA0
                           5653 ;	src/ScriptRunner_b.c 830
                           5654 ;	genPointerGet
   1159 11 04 A0           5655 	ld	de,#0xA004
   115C 1A                 5656 	ld	a,(de)
                           5657 ;	genCmpEq
                           5658 ; genCmpEq: left 1, right 1, result 0
   115D 4F                 5659 	ld	c,a
   115E FE 02              5660 	cp	a,#0x02
   1160 C2 6D 11           5661 	jp	nz,00109$
   1163 18 03              5662 	jr	00127$
   1165                    5663 00126$:
   1165 C3 6D 11           5664 	jp	00109$
   1168                    5665 00127$:
                           5666 ;	genAssign
   1168 06 FF              5667 	ld	b,#0xFF
                           5668 ;	genGoto
   116A C3 86 11           5669 	jp	00110$
                           5670 ;	genLabel
   116D                    5671 00109$:
                           5672 ;	genCmpEq
                           5673 ; genCmpEq: left 1, right 1, result 0
   116D 79                 5674 	ld	a,c
   116E FE 04              5675 	cp	a,#0x04
   1170 C2 7F 11           5676 	jp	nz,00111$
   1173 18 03              5677 	jr	00129$
   1175                    5678 00128$:
   1175 C3 7F 11           5679 	jp	00111$
   1178                    5680 00129$:
                           5681 ;	genAssign
                           5682 ;	AOP_STK for _Script_LoadData_b_sloc0_1_0
   1178 F8 04              5683 	lda	hl,4(sp)
   117A 36 01              5684 	ld	(hl),#0x01
                           5685 ;	genGoto
   117C C3 83 11           5686 	jp	00112$
                           5687 ;	genLabel
   117F                    5688 00111$:
                           5689 ;	genAssign
                           5690 ;	AOP_STK for _Script_LoadData_b_sloc0_1_0
   117F F8 04              5691 	lda	hl,4(sp)
   1181 36 00              5692 	ld	(hl),#0x00
                           5693 ;	genLabel
   1183                    5694 00112$:
                           5695 ;	genAssign
                           5696 ;	AOP_STK for _Script_LoadData_b_sloc0_1_0
   1183 F8 04              5697 	lda	hl,4(sp)
   1185 46                 5698 	ld	b,(hl)
                           5699 ;	genLabel
   1186                    5700 00110$:
                           5701 ;	genAssign (pointer)
   1186 11 00 00           5702 	ld	de,#_map_next_dir
   1189 78                 5703 	ld	a,b
   118A 12                 5704 	ld	(de),a
                           5705 ;	src/ScriptRunner_b.c 831
                           5706 ;	genPlus
                           5707 ;	AOP_STK for _Script_LoadData_b_sloc1_1_0
                           5708 ;	genPlusIncr
                           5709 ;	Can't optimise plus by inc, falling back to the normal way
   118B 11 00 00           5710 	ld	de,#_map_next_dir
   118E 21 01 00           5711 	ld	hl,#0x0001
   1191 19                 5712 	add	hl,de
   1192 7D                 5713 	ld	a,l
   1193 54                 5714 	ld	d,h
   1194 F8 02              5715 	lda	hl,2(sp)
   1196 22                 5716 	ld	(hl+),a
   1197 72                 5717 	ld	(hl),d
                           5718 ;	genCmpEq
                           5719 ; genCmpEq: left 1, right 1, result 0
   1198 79                 5720 	ld	a,c
   1199 FE 08              5721 	cp	a,#0x08
   119B C2 A8 11           5722 	jp	nz,00113$
   119E 18 03              5723 	jr	00131$
   11A0                    5724 00130$:
   11A0 C3 A8 11           5725 	jp	00113$
   11A3                    5726 00131$:
                           5727 ;	genAssign
   11A3 06 FF              5728 	ld	b,#0xFF
                           5729 ;	genGoto
   11A5 C3 BB 11           5730 	jp	00114$
                           5731 ;	genLabel
   11A8                    5732 00113$:
                           5733 ;	genCmpEq
                           5734 ; genCmpEq: left 1, right 1, result 0
   11A8 79                 5735 	ld	a,c
   11A9 FE 01              5736 	cp	a,#0x01
   11AB C2 B8 11           5737 	jp	nz,00115$
   11AE 18 03              5738 	jr	00133$
   11B0                    5739 00132$:
   11B0 C3 B8 11           5740 	jp	00115$
   11B3                    5741 00133$:
                           5742 ;	genAssign
   11B3 0E 01              5743 	ld	c,#0x01
                           5744 ;	genGoto
   11B5 C3 BA 11           5745 	jp	00116$
                           5746 ;	genLabel
   11B8                    5747 00115$:
                           5748 ;	genAssign
   11B8 0E 00              5749 	ld	c,#0x00
                           5750 ;	genLabel
   11BA                    5751 00116$:
                           5752 ;	genAssign
   11BA 41                 5753 	ld	b,c
                           5754 ;	genLabel
   11BB                    5755 00114$:
                           5756 ;	genAssign (pointer)
                           5757 ;	AOP_STK for _Script_LoadData_b_sloc1_1_0
   11BB F8 02              5758 	lda	hl,2(sp)
   11BD 5E                 5759 	ld	e,(hl)
   11BE 23                 5760 	inc	hl
   11BF 56                 5761 	ld	d,(hl)
   11C0 78                 5762 	ld	a,b
   11C1 12                 5763 	ld	(de),a
                           5764 ;	src/ScriptRunner_b.c 835
                           5765 ;	genPointerGet
                           5766 ;	AOP_HL for _map_next_sprite
   11C2 11 05 A0           5767 	ld	de,#0xA005
   11C5 1A                 5768 	ld	a,(de)
   11C6 21 00 00           5769 	ld	hl,#_map_next_sprite
   11C9 77                 5770 	ld	(hl),a
                           5771 ;	src/ScriptRunner_b.c 838
                           5772 ;	genAssign
                           5773 ;	AOP_HL for _RAMPtr
   11CA 21 01 00           5774 	ld	hl,#_RAMPtr
   11CD 36 FF              5775 	ld	(hl),#0xFF
   11CF 23                 5776 	inc	hl
   11D0 36 A0              5777 	ld	(hl),#0xA0
                           5778 ;	src/ScriptRunner_b.c 839
                           5779 ;	genAssign
   11D2 01 00 00           5780 	ld	bc,#0x0000
                           5781 ;	genLabel
   11D5                    5782 00103$:
                           5783 ;	genCmpLt
   11D5 79                 5784 	ld	a,c
   11D6 D6 66              5785 	sub	a,#0x66
   11D8 78                 5786 	ld	a,b
   11D9 DE 00              5787 	sbc	a,#0x00
   11DB D2 FD 11           5788 	jp	nc,00106$
                           5789 ;	src/ScriptRunner_b.c 841
                           5790 ;	genPlus
                           5791 ;	AOP_STK for _Script_LoadData_b_sloc1_1_0
                           5792 ;	Can't optimise plus by inc, falling back to the normal way
   11DE 21 00 00           5793 	ld	hl,#_script_variables
   11E1 09                 5794 	add	hl,bc
   11E2 7D                 5795 	ld	a,l
   11E3 54                 5796 	ld	d,h
   11E4 F8 02              5797 	lda	hl,2(sp)
   11E6 22                 5798 	ld	(hl+),a
   11E7 72                 5799 	ld	(hl),d
                           5800 ;	genPlus
                           5801 ;	AOP_STK for _Script_LoadData_b_sloc2_1_0
                           5802 ;	genPlusIncr
                           5803 ;	Can't optimise plus by inc, falling back to the normal way
   11E8 21 FF A0           5804 	ld	hl,#0xA0FF
   11EB 09                 5805 	add	hl,bc
   11EC 7D                 5806 	ld	a,l
   11ED 54                 5807 	ld	d,h
   11EE F8 00              5808 	lda	hl,0(sp)
                           5809 ;	genPointerGet
                           5810 ;	AOP_STK for _Script_LoadData_b_sloc2_1_0
   11F0 22                 5811 	ld	(hl+),a
   11F1 72                 5812 	ld	(hl),d
   11F2 5F                 5813 	ld	e,a
   11F3 1A                 5814 	ld	a,(de)
                           5815 ;	genAssign (pointer)
                           5816 ;	AOP_STK for _Script_LoadData_b_sloc1_1_0
   11F4 23                 5817 	inc	hl
   11F5 5E                 5818 	ld	e,(hl)
   11F6 23                 5819 	inc	hl
   11F7 56                 5820 	ld	d,(hl)
   11F8 12                 5821 	ld	(de),a
                           5822 ;	src/ScriptRunner_b.c 839
                           5823 ;	genPlus
                           5824 ;	genPlusIncr
   11F9 03                 5825 	inc	bc
                           5826 ;	genGoto
   11FA C3 D5 11           5827 	jp	00103$
                           5828 ;	genLabel
   11FD                    5829 00106$:
                           5830 ;	src/ScriptRunner_b.c 845
                           5831 ;	genAssign
                           5832 ;	AOP_HL for _stage_next_type
   11FD 21 00 00           5833 	ld	hl,#_stage_next_type
   1200 36 01              5834 	ld	(hl),#0x01
                           5835 ;	src/ScriptRunner_b.c 846
                           5836 ;	genIpush
                           5837 ; _saveRegsForCall: sendSetSize: 0 deInUse: 0 bcInUse: 0 deSending: 0
   1202 3E 02              5838 	ld	a,#0x02
   1204 F5                 5839 	push	af
   1205 33                 5840 	inc	sp
                           5841 ;	genCall
   1206 CD 00 00           5842 	call	_FadeSetSpeed
   1209 E8 01              5843 	lda	sp,1(sp)
                           5844 ;	src/ScriptRunner_b.c 847
                           5845 ;	genCall
                           5846 ; _saveRegsForCall: sendSetSize: 0 deInUse: 0 bcInUse: 0 deSending: 0
   120B CD 00 00           5847 	call	_FadeOut
                           5848 ;	src/ScriptRunner_b.c 849
                           5849 ;	genAssign
                           5850 ;	AOP_HL for _script_action_complete
   120E 21 00 00           5851 	ld	hl,#_script_action_complete
   1211 36 00              5852 	ld	(hl),#0x00
                           5853 ;	genLabel
   1213                    5854 00102$:
                           5855 ;	src/ScriptRunner_b.c 852
                           5856 ;	genAssign
   1213 01 00 00           5857 	ld	bc,#0x0000
                           5858 ;	genAssign (pointer)
   1216 3E 00              5859 	ld	a,#0x00
   1218 02                 5860 	ld	(bc),a
                           5861 ;	src/ScriptRunner_b.c 854
                           5862 ;	genPlus
                           5863 ;	AOP_HL for _script_cmd_args_len
                           5864 ;	genPlusIncr
   1219 21 00 00           5865 	ld	hl,#_script_cmd_args_len
   121C 4E                 5866 	ld	c,(hl)
   121D 0C                 5867 	inc	c
                           5868 ;	genCast
                           5869 ; Removed redundent load
   121E 06 00              5870 	ld	b,#0x00
                           5871 ;	genPlus
                           5872 ;	AOP_HL for _script_ptr
                           5873 ;	Can't optimise plus by inc, falling back to the normal way
   1220 21 00 00           5874 	ld	hl,#_script_ptr
   1223 7E                 5875 	ld	a,(hl)
   1224 81                 5876 	add	a,c
   1225 22                 5877 	ld	(hl+),a
   1226 7E                 5878 	ld	a,(hl)
   1227 88                 5879 	adc	a,b
   1228 77                 5880 	ld	(hl),a
                           5881 ;	genLabel
   1229                    5882 00107$:
                           5883 ;	genEndFunction
   1229 E8 05              5884 	lda	sp,5(sp)
   122B C9                 5885 	ret
   122C                    5886 ___Script_LoadData_b_end:
                           5887 ;	src/ScriptRunner_b.c 862
                           5888 ;	genLabel
                           5889 ;	genFunction
                           5890 ;	---------------------------------
                           5891 ; Function Script_ClearData_b
                           5892 ; ---------------------------------
   122C                    5893 ___Script_ClearData_b_start:
   122C                    5894 _Script_ClearData_b:
                           5895 	
                           5896 ;	src/ScriptRunner_b.c 864
                           5897 ;	genAssign
   122C 01 00 00           5898 	ld	bc,#0x0000
                           5899 ;	genAssign (pointer)
   122F 3E 0A              5900 	ld	a,#0x0A
   1231 02                 5901 	ld	(bc),a
                           5902 ;	src/ScriptRunner_b.c 865
                           5903 ;	genAssign
                           5904 ;	AOP_HL for _RAMPtr
   1232 21 01 00           5905 	ld	hl,#_RAMPtr
   1235 36 00              5906 	ld	(hl),#0x00
   1237 23                 5907 	inc	hl
   1238 36 A0              5908 	ld	(hl),#0xA0
                           5909 ;	src/ScriptRunner_b.c 866
                           5910 ;	genAssign
   123A 01 00 A0           5911 	ld	bc,#0xA000
                           5912 ;	genAssign (pointer)
   123D 3E 00              5913 	ld	a,#0x00
   123F 02                 5914 	ld	(bc),a
                           5915 ;	src/ScriptRunner_b.c 867
                           5916 ;	genAssign
   1240 01 00 00           5917 	ld	bc,#0x0000
                           5918 ;	genAssign (pointer)
   1243 3E 00              5919 	ld	a,#0x00
   1245 02                 5920 	ld	(bc),a
                           5921 ;	src/ScriptRunner_b.c 869
                           5922 ;	genPlus
                           5923 ;	AOP_HL for _script_cmd_args_len
                           5924 ;	genPlusIncr
   1246 21 00 00           5925 	ld	hl,#_script_cmd_args_len
   1249 4E                 5926 	ld	c,(hl)
   124A 0C                 5927 	inc	c
                           5928 ;	genCast
                           5929 ; Removed redundent load
   124B 06 00              5930 	ld	b,#0x00
                           5931 ;	genPlus
                           5932 ;	AOP_HL for _script_ptr
                           5933 ;	Can't optimise plus by inc, falling back to the normal way
   124D 21 00 00           5934 	ld	hl,#_script_ptr
   1250 7E                 5935 	ld	a,(hl)
   1251 81                 5936 	add	a,c
   1252 22                 5937 	ld	(hl+),a
   1253 7E                 5938 	ld	a,(hl)
   1254 88                 5939 	adc	a,b
   1255 77                 5940 	ld	(hl),a
                           5941 ;	src/ScriptRunner_b.c 870
                           5942 ;	genAssign
                           5943 ;	AOP_HL for _script_continue
   1256 21 00 00           5944 	ld	hl,#_script_continue
   1259 36 01              5945 	ld	(hl),#0x01
                           5946 ;	genLabel
   125B                    5947 00101$:
                           5948 ;	genEndFunction
                           5949 	
   125B C9                 5950 	ret
   125C                    5951 ___Script_ClearData_b_end:
                           5952 ;	src/ScriptRunner_b.c 881
                           5953 ;	genLabel
                           5954 ;	genFunction
                           5955 ;	---------------------------------
                           5956 ; Function Script_IfSavedData_b
                           5957 ; ---------------------------------
   125C                    5958 ___Script_IfSavedData_b_start:
   125C                    5959 _Script_IfSavedData_b:
   125C E8 FC              5960 	lda	sp,-4(sp)
                           5961 ;	src/ScriptRunner_b.c 885
                           5962 ;	genAssign
   125E 01 00 00           5963 	ld	bc,#0x0000
                           5964 ;	genAssign (pointer)
   1261 3E 0A              5965 	ld	a,#0x0A
   1263 02                 5966 	ld	(bc),a
                           5967 ;	src/ScriptRunner_b.c 886
                           5968 ;	genAssign
                           5969 ;	AOP_HL for _RAMPtr
   1264 21 01 00           5970 	ld	hl,#_RAMPtr
   1267 36 00              5971 	ld	(hl),#0x00
   1269 23                 5972 	inc	hl
   126A 36 A0              5973 	ld	(hl),#0xA0
                           5974 ;	src/ScriptRunner_b.c 888
                           5975 ;	genPointerGet
   126C 11 00 A0           5976 	ld	de,#0xA000
   126F 1A                 5977 	ld	a,(de)
                           5978 ;	genCmpEq
                           5979 ;	AOP_STK for _Script_IfSavedData_b_jump_1_1
                           5980 ; genCmpEq: left 1, right 1, result 1
   1270 4F                 5981 	ld	c,a
   1271 FE 01              5982 	cp	a,#0x01
   1273 C2 7A 12           5983 	jp	nz,00107$
   1276 3E 01              5984 	ld	a,#0x01
   1278 18 01              5985 	jr	00108$
   127A                    5986 00107$:
   127A AF                 5987 	xor	a,a
   127B                    5988 00108$:
   127B F8 03              5989 	lda	hl,3(sp)
   127D 77                 5990 	ld	(hl),a
                           5991 ;	src/ScriptRunner_b.c 889
                           5992 ;	genAssign
   127E 06 00              5993 	ld	b,#0x00
   1280 0E 00              5994 	ld	c,#0x00
                           5995 ;	genAssign (pointer)
   1282 58                 5996 	ld	e,b
   1283 51                 5997 	ld	d,c
   1284 3E 00              5998 	ld	a,#0x00
   1286 12                 5999 	ld	(de),a
                           6000 ;	src/ScriptRunner_b.c 891
                           6001 ;	genIfx
                           6002 ;	AOP_STK for _Script_IfSavedData_b_jump_1_1
   1287 AF                 6003 	xor	a,a
   1288 B6                 6004 	or	a,(hl)
   1289 CA C5 12           6005 	jp	z,00102$
                           6006 ;	src/ScriptRunner_b.c 893
                           6007 ;	genPointerGet
   128C 11 00 00           6008 	ld	de,#_script_cmd_args
   128F 1A                 6009 	ld	a,(de)
   1290 4F                 6010 	ld	c,a
                           6011 ;	genCast
                           6012 ; Removed redundent load
   1291 06 00              6013 	ld	b,#0x00
                           6014 ;	genLeftShift
   1293 41                 6015 	ld	b,c
   1294 0E 00              6016 	ld	c,#0x00
                           6017 ;	genPlus
                           6018 ;	AOP_HL for _script_start_ptr
                           6019 ;	Can't optimise plus by inc, falling back to the normal way
   1296 21 00 00           6020 	ld	hl,#_script_start_ptr
   1299 7E                 6021 	ld	a,(hl)
   129A 81                 6022 	add	a,c
   129B 4F                 6023 	ld	c,a
   129C 23                 6024 	inc	hl
   129D 7E                 6025 	ld	a,(hl)
   129E 88                 6026 	adc	a,b
   129F 47                 6027 	ld	b,a
                           6028 ;	genPlus
                           6029 ;	AOP_STK for _Script_IfSavedData_b_sloc0_1_0
                           6030 ;	genPlusIncr
                           6031 ;	Can't optimise plus by inc, falling back to the normal way
   12A0 11 00 00           6032 	ld	de,#_script_cmd_args
   12A3 21 01 00           6033 	ld	hl,#0x0001
   12A6 19                 6034 	add	hl,de
   12A7 7D                 6035 	ld	a,l
   12A8 54                 6036 	ld	d,h
   12A9 F8 01              6037 	lda	hl,1(sp)
                           6038 ;	genPointerGet
                           6039 ;	AOP_STK for _Script_IfSavedData_b_sloc0_1_0
                           6040 ;	AOP_STK for _Script_IfSavedData_b_sloc1_1_0
   12AB 22                 6041 	ld	(hl+),a
   12AC 72                 6042 	ld	(hl),d
   12AD 5F                 6043 	ld	e,a
   12AE 1A                 6044 	ld	a,(de)
   12AF 2B                 6045 	dec	hl
   12B0 2B                 6046 	dec	hl
   12B1 77                 6047 	ld	(hl),a
                           6048 ;	genCast
                           6049 ;	AOP_STK for _Script_IfSavedData_b_sloc1_1_0
                           6050 ;	AOP_STK for _Script_IfSavedData_b_sloc0_1_0
   12B2 2A                 6051 	ld	a,(hl+)
   12B3 22                 6052 	ld	(hl+),a
   12B4 36 00              6053 	ld	(hl),#0x00
                           6054 ;	genPlus
                           6055 ;	AOP_STK for _Script_IfSavedData_b_sloc0_1_0
                           6056 ;	AOP_HL for _script_ptr
                           6057 ;	Can't optimise plus by inc, falling back to the normal way
   12B6 2B                 6058 	dec	hl
   12B7 2A                 6059 	ld	a,(hl+)
   12B8 66                 6060 	ld	h,(hl)
   12B9 6F                 6061 	ld	l,a
   12BA 09                 6062 	add	hl,bc
   12BB 7D                 6063 	ld	a,l
   12BC 54                 6064 	ld	d,h
   12BD 21 00 00           6065 	ld	hl,#_script_ptr
   12C0 22                 6066 	ld	(hl+),a
   12C1 72                 6067 	ld	(hl),d
                           6068 ;	genGoto
   12C2 C3 D5 12           6069 	jp	00104$
                           6070 ;	genLabel
   12C5                    6071 00102$:
                           6072 ;	src/ScriptRunner_b.c 897
                           6073 ;	genPlus
                           6074 ;	AOP_HL for _script_cmd_args_len
                           6075 ;	genPlusIncr
   12C5 21 00 00           6076 	ld	hl,#_script_cmd_args_len
   12C8 4E                 6077 	ld	c,(hl)
   12C9 0C                 6078 	inc	c
                           6079 ;	genCast
                           6080 ; Removed redundent load
   12CA 06 00              6081 	ld	b,#0x00
                           6082 ;	genPlus
                           6083 ;	AOP_HL for _script_ptr
                           6084 ;	Can't optimise plus by inc, falling back to the normal way
   12CC 21 00 00           6085 	ld	hl,#_script_ptr
   12CF 7E                 6086 	ld	a,(hl)
   12D0 81                 6087 	add	a,c
   12D1 22                 6088 	ld	(hl+),a
   12D2 7E                 6089 	ld	a,(hl)
   12D3 88                 6090 	adc	a,b
   12D4 77                 6091 	ld	(hl),a
                           6092 ;	genLabel
   12D5                    6093 00104$:
                           6094 ;	genEndFunction
   12D5 E8 04              6095 	lda	sp,4(sp)
   12D7 C9                 6096 	ret
   12D8                    6097 ___Script_IfSavedData_b_end:
                           6098 ;	src/ScriptRunner_b.c 911
                           6099 ;	genLabel
                           6100 ;	genFunction
                           6101 ;	---------------------------------
                           6102 ; Function Script_IfActorDirection_b
                           6103 ; ---------------------------------
   12D8                    6104 ___Script_IfActorDirection_b_start:
   12D8                    6105 _Script_IfActorDirection_b:
   12D8 E8 FD              6106 	lda	sp,-3(sp)
                           6107 ;	src/ScriptRunner_b.c 916
                           6108 ;	genMult
                           6109 ;	AOP_HL for _script_actor
   12DA 21 00 00           6110 	ld	hl,#_script_actor
   12DD 5E                 6111 	ld	e,(hl)
   12DE 16 00              6112 	ld	d,#0x00
   12E0 6B                 6113 	ld	l,e
   12E1 62                 6114 	ld	h,d
   12E2 29                 6115 	add	hl,hl
   12E3 29                 6116 	add	hl,hl
   12E4 19                 6117 	add	hl,de
   12E5 29                 6118 	add	hl,hl
   12E6 19                 6119 	add	hl,de
   12E7 29                 6120 	add	hl,hl
   12E8 4D                 6121 	ld	c,l
   12E9 44                 6122 	ld	b,h
                           6123 ;	genPlus
                           6124 ;	Can't optimise plus by inc, falling back to the normal way
   12EA 21 00 00           6125 	ld	hl,#_actors
   12ED 09                 6126 	add	hl,bc
   12EE 4D                 6127 	ld	c,l
   12EF 44                 6128 	ld	b,h
                           6129 ;	genPlus
                           6130 ;	AOP_STK for _Script_IfActorDirection_b_sloc0_1_0
                           6131 ;	genPlusIncr
                           6132 ;	Can't optimise plus by inc, falling back to the normal way
   12F0 21 03 00           6133 	ld	hl,#0x0003
   12F3 09                 6134 	add	hl,bc
   12F4 7D                 6135 	ld	a,l
   12F5 54                 6136 	ld	d,h
   12F6 F8 01              6137 	lda	hl,1(sp)
                           6138 ;	genPointerGet
                           6139 ;	AOP_STK for _Script_IfActorDirection_b_sloc0_1_0
                           6140 ;	AOP_STK for _Script_IfActorDirection_b_sloc1_1_0
   12F8 22                 6141 	ld	(hl+),a
   12F9 72                 6142 	ld	(hl),d
   12FA 5F                 6143 	ld	e,a
   12FB 1A                 6144 	ld	a,(de)
   12FC 2B                 6145 	dec	hl
   12FD 2B                 6146 	dec	hl
                           6147 ;	genCmpEq
                           6148 ;	AOP_STK for _Script_IfActorDirection_b_sloc1_1_0
                           6149 ; genCmpEq: left 1, right 1, result 0
   12FE 77                 6150 	ld      (hl),a
                           6151 ; Removed redundent load
   12FF FE 01              6152 	cp	a,#0x01
   1301 C2 15 13           6153 	jp	nz,00106$
   1304 18 03              6154 	jr	00118$
   1306                    6155 00117$:
   1306 C3 15 13           6156 	jp	00106$
   1309                    6157 00118$:
                           6158 ;	genPointerGet
                           6159 ;	AOP_STK for _Script_IfActorDirection_b_sloc0_1_0
   1309 11 00 00           6160 	ld	de,#_script_cmd_args
   130C 1A                 6161 	ld	a,(de)
   130D F8 01              6162 	lda	hl,1(sp)
                           6163 ;	genCmpEq
                           6164 ;	AOP_STK for _Script_IfActorDirection_b_sloc0_1_0
                           6165 ; genCmpEq: left 1, right 1, result 0
   130F 77                 6166 	ld      (hl),a
                           6167 ; Removed redundent load
   1310 FE 04              6168 	cp	a,#0x04
   1312 CA 62 13           6169 	jp	z,00101$
   1315                    6170 00119$:
                           6171 ;	genLabel
   1315                    6172 00106$:
                           6173 ;	src/ScriptRunner_b.c 917
                           6174 ;	genCmpEq
                           6175 ;	AOP_STK for _Script_IfActorDirection_b_sloc1_1_0
                           6176 ; genCmpEq: left 1, right 1, result 0
   1315 F8 00              6177 	lda	hl,0(sp)
   1317 7E                 6178 	ld	a,(hl)
   1318 FE FF              6179 	cp	a,#0xFF
   131A C2 2E 13           6180 	jp	nz,00110$
   131D 18 03              6181 	jr	00121$
   131F                    6182 00120$:
   131F C3 2E 13           6183 	jp	00110$
   1322                    6184 00121$:
                           6185 ;	genPointerGet
                           6186 ;	AOP_STK for _Script_IfActorDirection_b_sloc1_1_0
   1322 11 00 00           6187 	ld	de,#_script_cmd_args
   1325 1A                 6188 	ld	a,(de)
   1326 F8 00              6189 	lda	hl,0(sp)
                           6190 ;	genCmpEq
                           6191 ;	AOP_STK for _Script_IfActorDirection_b_sloc1_1_0
                           6192 ; genCmpEq: left 1, right 1, result 0
   1328 77                 6193 	ld      (hl),a
                           6194 ; Removed redundent load
   1329 FE 02              6195 	cp	a,#0x02
   132B CA 62 13           6196 	jp	z,00101$
   132E                    6197 00122$:
                           6198 ;	genLabel
   132E                    6199 00110$:
                           6200 ;	src/ScriptRunner_b.c 918
                           6201 ;	genPlus
                           6202 ;	genPlusIncr
   132E 03                 6203 	inc	bc
   132F 03                 6204 	inc	bc
   1330 03                 6205 	inc	bc
   1331 03                 6206 	inc	bc
                           6207 ;	genPointerGet
   1332 0A                 6208 	ld	a,(bc)
                           6209 ;	genCmpEq
                           6210 ; genCmpEq: left 1, right 1, result 0
   1333 4F                 6211 	ld	c,a
   1334 FE 01              6212 	cp	a,#0x01
   1336 C2 48 13           6213 	jp	nz,00109$
   1339 18 03              6214 	jr	00124$
   133B                    6215 00123$:
   133B C3 48 13           6216 	jp	00109$
   133E                    6217 00124$:
                           6218 ;	genPointerGet
   133E 11 00 00           6219 	ld	de,#_script_cmd_args
   1341 1A                 6220 	ld	a,(de)
                           6221 ;	genCmpEq
                           6222 ; genCmpEq: left 1, right 1, result 0
   1342 47                 6223 	ld	b,a
   1343 FE 01              6224 	cp	a,#0x01
   1345 CA 62 13           6225 	jp	z,00101$
   1348                    6226 00125$:
                           6227 ;	genLabel
   1348                    6228 00109$:
                           6229 ;	src/ScriptRunner_b.c 919
                           6230 ;	genCmpEq
                           6231 ; genCmpEq: left 1, right 1, result 0
   1348 79                 6232 	ld	a,c
   1349 FE FF              6233 	cp	a,#0xFF
   134B C2 9B 13           6234 	jp	nz,00102$
   134E 18 03              6235 	jr	00127$
   1350                    6236 00126$:
   1350 C3 9B 13           6237 	jp	00102$
   1353                    6238 00127$:
                           6239 ;	genPointerGet
   1353 11 00 00           6240 	ld	de,#_script_cmd_args
   1356 1A                 6241 	ld	a,(de)
                           6242 ;	genCmpEq
                           6243 ; genCmpEq: left 1, right 1, result 0
   1357 4F                 6244 	ld	c,a
   1358 FE 08              6245 	cp	a,#0x08
   135A C2 9B 13           6246 	jp	nz,00102$
   135D 18 03              6247 	jr	00129$
   135F                    6248 00128$:
   135F C3 9B 13           6249 	jp	00102$
   1362                    6250 00129$:
                           6251 ;	genLabel
   1362                    6252 00101$:
                           6253 ;	src/ScriptRunner_b.c 921
                           6254 ;	genPlus
                           6255 ;	genPlusIncr
   1362 01 01 00           6256 	ld	bc,#_script_cmd_args + 1
                           6257 ;	genPointerGet
   1365 0A                 6258 	ld	a,(bc)
   1366 4F                 6259 	ld	c,a
                           6260 ;	genCast
                           6261 ; Removed redundent load
   1367 06 00              6262 	ld	b,#0x00
                           6263 ;	genLeftShift
   1369 41                 6264 	ld	b,c
   136A 0E 00              6265 	ld	c,#0x00
                           6266 ;	genPlus
                           6267 ;	AOP_HL for _script_start_ptr
                           6268 ;	Can't optimise plus by inc, falling back to the normal way
   136C 21 00 00           6269 	ld	hl,#_script_start_ptr
   136F 7E                 6270 	ld	a,(hl)
   1370 81                 6271 	add	a,c
   1371 4F                 6272 	ld	c,a
   1372 23                 6273 	inc	hl
   1373 7E                 6274 	ld	a,(hl)
   1374 88                 6275 	adc	a,b
   1375 47                 6276 	ld	b,a
                           6277 ;	genPlus
                           6278 ;	AOP_STK for _Script_IfActorDirection_b_sloc0_1_0
                           6279 ;	genPlusIncr
                           6280 ;	Can't optimise plus by inc, falling back to the normal way
   1376 11 00 00           6281 	ld	de,#_script_cmd_args
   1379 21 02 00           6282 	ld	hl,#0x0002
   137C 19                 6283 	add	hl,de
   137D 7D                 6284 	ld	a,l
   137E 54                 6285 	ld	d,h
   137F F8 01              6286 	lda	hl,1(sp)
                           6287 ;	genPointerGet
                           6288 ;	AOP_STK for _Script_IfActorDirection_b_sloc0_1_0
                           6289 ;	AOP_STK for _Script_IfActorDirection_b_sloc1_1_0
   1381 22                 6290 	ld	(hl+),a
   1382 72                 6291 	ld	(hl),d
   1383 5F                 6292 	ld	e,a
   1384 1A                 6293 	ld	a,(de)
   1385 2B                 6294 	dec	hl
   1386 2B                 6295 	dec	hl
   1387 77                 6296 	ld	(hl),a
                           6297 ;	genCast
                           6298 ;	AOP_STK for _Script_IfActorDirection_b_sloc1_1_0
                           6299 ;	AOP_STK for _Script_IfActorDirection_b_sloc0_1_0
   1388 2A                 6300 	ld	a,(hl+)
   1389 22                 6301 	ld	(hl+),a
   138A 36 00              6302 	ld	(hl),#0x00
                           6303 ;	genPlus
                           6304 ;	AOP_STK for _Script_IfActorDirection_b_sloc0_1_0
                           6305 ;	AOP_HL for _script_ptr
                           6306 ;	Can't optimise plus by inc, falling back to the normal way
   138C 2B                 6307 	dec	hl
   138D 2A                 6308 	ld	a,(hl+)
   138E 66                 6309 	ld	h,(hl)
   138F 6F                 6310 	ld	l,a
   1390 09                 6311 	add	hl,bc
   1391 7D                 6312 	ld	a,l
   1392 54                 6313 	ld	d,h
   1393 21 00 00           6314 	ld	hl,#_script_ptr
   1396 22                 6315 	ld	(hl+),a
   1397 72                 6316 	ld	(hl),d
                           6317 ;	genGoto
   1398 C3 AB 13           6318 	jp	00103$
                           6319 ;	genLabel
   139B                    6320 00102$:
                           6321 ;	src/ScriptRunner_b.c 925
                           6322 ;	genPlus
                           6323 ;	AOP_HL for _script_cmd_args_len
                           6324 ;	genPlusIncr
   139B 21 00 00           6325 	ld	hl,#_script_cmd_args_len
   139E 4E                 6326 	ld	c,(hl)
   139F 0C                 6327 	inc	c
                           6328 ;	genCast
                           6329 ; Removed redundent load
   13A0 06 00              6330 	ld	b,#0x00
                           6331 ;	genPlus
                           6332 ;	AOP_HL for _script_ptr
                           6333 ;	Can't optimise plus by inc, falling back to the normal way
   13A2 21 00 00           6334 	ld	hl,#_script_ptr
   13A5 7E                 6335 	ld	a,(hl)
   13A6 81                 6336 	add	a,c
   13A7 22                 6337 	ld	(hl+),a
   13A8 7E                 6338 	ld	a,(hl)
   13A9 88                 6339 	adc	a,b
   13AA 77                 6340 	ld	(hl),a
                           6341 ;	genLabel
   13AB                    6342 00103$:
                           6343 ;	src/ScriptRunner_b.c 928
                           6344 ;	genAssign
                           6345 ;	AOP_HL for _script_continue
   13AB 21 00 00           6346 	ld	hl,#_script_continue
   13AE 36 01              6347 	ld	(hl),#0x01
                           6348 ;	genLabel
   13B0                    6349 00111$:
                           6350 ;	genEndFunction
   13B0 E8 03              6351 	lda	sp,3(sp)
   13B2 C9                 6352 	ret
   13B3                    6353 ___Script_IfActorDirection_b_end:
                           6354 ;	src/ScriptRunner_b.c 940
                           6355 ;	genLabel
                           6356 ;	genFunction
                           6357 ;	---------------------------------
                           6358 ; Function Script_SetFlagRandomValue_b
                           6359 ; ---------------------------------
   13B3                    6360 ___Script_SetFlagRandomValue_b_start:
   13B3                    6361 _Script_SetFlagRandomValue_b:
   13B3 E8 F8              6362 	lda	sp,-8(sp)
                           6363 ;	src/ScriptRunner_b.c 945
                           6364 ;	genPointerGet
   13B5 11 00 00           6365 	ld	de,#_script_cmd_args
   13B8 1A                 6366 	ld	a,(de)
   13B9 4F                 6367 	ld	c,a
                           6368 ;	genCast
                           6369 ; Removed redundent load
   13BA 06 00              6370 	ld	b,#0x00
                           6371 ;	genLeftShift
   13BC 41                 6372 	ld	b,c
   13BD 0E 00              6373 	ld	c,#0x00
                           6374 ;	genPlus
                           6375 ;	AOP_STK for _Script_SetFlagRandomValue_b_sloc0_1_0
                           6376 ;	genPlusIncr
                           6377 ;	Can't optimise plus by inc, falling back to the normal way
   13BF 11 00 00           6378 	ld	de,#_script_cmd_args
   13C2 21 01 00           6379 	ld	hl,#0x0001
   13C5 19                 6380 	add	hl,de
   13C6 7D                 6381 	ld	a,l
   13C7 54                 6382 	ld	d,h
   13C8 F8 01              6383 	lda	hl,1(sp)
                           6384 ;	genPointerGet
                           6385 ;	AOP_STK for _Script_SetFlagRandomValue_b_sloc0_1_0
                           6386 ;	AOP_STK for _Script_SetFlagRandomValue_b_sloc1_1_0
   13CA 22                 6387 	ld	(hl+),a
   13CB 72                 6388 	ld	(hl),d
   13CC 5F                 6389 	ld	e,a
   13CD 1A                 6390 	ld	a,(de)
   13CE 2B                 6391 	dec	hl
   13CF 2B                 6392 	dec	hl
   13D0 77                 6393 	ld	(hl),a
                           6394 ;	genCast
                           6395 ;	AOP_STK for _Script_SetFlagRandomValue_b_sloc1_1_0
                           6396 ;	AOP_STK for _Script_SetFlagRandomValue_b_sloc0_1_0
   13D1 2A                 6397 	ld	a,(hl+)
   13D2 22                 6398 	ld	(hl+),a
   13D3 36 00              6399 	ld	(hl),#0x00
                           6400 ;	genPlus
                           6401 ;	AOP_STK for _Script_SetFlagRandomValue_b_sloc0_1_0
                           6402 ;	Can't optimise plus by inc, falling back to the normal way
   13D5 2B                 6403 	dec	hl
   13D6 2A                 6404 	ld	a,(hl+)
   13D7 66                 6405 	ld	h,(hl)
   13D8 6F                 6406 	ld	l,a
   13D9 09                 6407 	add	hl,bc
   13DA 4D                 6408 	ld	c,l
   13DB 44                 6409 	ld	b,h
                           6410 ;	genAssign
                           6411 ;	AOP_STK for _Script_SetFlagRandomValue_b_ptr_1_1
   13DC F8 03              6412 	lda	hl,3(sp)
   13DE 71                 6413 	ld	(hl),c
   13DF 23                 6414 	inc	hl
   13E0 70                 6415 	ld	(hl),b
                           6416 ;	src/ScriptRunner_b.c 946
                           6417 ;	genCall
                           6418 ; _saveRegsForCall: sendSetSize: 0 deInUse: 0 bcInUse: 0 deSending: 0
   13E1 CD 00 00           6419 	call	_rand
                           6420 ;	AOP_STK for _Script_SetFlagRandomValue_b_rand_val_1_1
   13E4 F8 07              6421 	lda	hl,7(sp)
   13E6 73                 6422 	ld	(hl),e
                           6423 ;	genAssign
                           6424 ;	AOP_STK for _Script_SetFlagRandomValue_b_rand_val_1_1
                           6425 ;	(registers are the same)
                           6426 ;	src/ScriptRunner_b.c 947
                           6427 ;	genPlus
                           6428 ;	genPlusIncr
                           6429 ;	Can't optimise plus by inc, falling back to the normal way
   13E7 3E 00              6430 	ld	a,#<_script_cmd_args
   13E9 C6 02              6431 	add	a,#0x02
   13EB 47                 6432 	ld	b,a
   13EC 3E 00              6433 	ld	a,#>_script_cmd_args
   13EE CE 00              6434 	adc	a,#0x00
   13F0 4F                 6435 	ld	c,a
                           6436 ;	genPointerGet
   13F1 58                 6437 	ld	e,b
   13F2 51                 6438 	ld	d,c
   13F3 1A                 6439 	ld	a,(de)
   13F4 47                 6440 	ld	b,a
                           6441 ;	genAssign
                           6442 ;	AOP_STK for _Script_SetFlagRandomValue_b_offset_1_1
   13F5 F8 05              6443 	lda	hl,5(sp)
   13F7 70                 6444 	ld	(hl),b
                           6445 ;	src/ScriptRunner_b.c 948
                           6446 ;	genPlus
                           6447 ;	genPlusIncr
   13F8 01 03 00           6448 	ld	bc,#_script_cmd_args + 3
                           6449 ;	genPointerGet
   13FB 0A                 6450 	ld	a,(bc)
                           6451 ;	genPlus
                           6452 ;	AOP_STK for _Script_SetFlagRandomValue_b_modulo_1_1
                           6453 ;	genPlusIncr
                           6454 ;	Can't optimise plus by inc, falling back to the normal way
   13FC 4F                 6455 	ld	c,a
   13FD C6 01              6456 	add	a,#0x01
   13FF 23                 6457 	inc	hl
   1400 77                 6458 	ld	(hl),a
                           6459 ;	src/ScriptRunner_b.c 949
                           6460 ;	genPlus
                           6461 ;	AOP_STK for _Script_SetFlagRandomValue_b_ptr_1_1
                           6462 ;	Can't optimise plus by inc, falling back to the normal way
   1401 11 00 00           6463 	ld	de,#_script_variables
   1404 F8 03              6464 	lda	hl,3(sp)
   1406 2A                 6465 	ld	a,(hl+)
   1407 66                 6466 	ld	h,(hl)
   1408 6F                 6467 	ld	l,a
   1409 19                 6468 	add	hl,de
   140A 45                 6469 	ld	b,l
   140B 4C                 6470 	ld	c,h
                           6471 ;	genIpush
                           6472 ; _saveRegsForCall: sendSetSize: 0 deInUse: 0 bcInUse: 1 deSending: 0
   140C C5                 6473 	push	bc
                           6474 ;	AOP_STK for _Script_SetFlagRandomValue_b_modulo_1_1
   140D F8 08              6475 	lda	hl,8(sp)
   140F 7E                 6476 	ld	a,(hl)
   1410 F5                 6477 	push	af
   1411 33                 6478 	inc	sp
                           6479 ;	genIpush
                           6480 ;	AOP_STK for _Script_SetFlagRandomValue_b_rand_val_1_1
   1412 23                 6481 	inc	hl
   1413 7E                 6482 	ld	a,(hl)
   1414 F5                 6483 	push	af
   1415 33                 6484 	inc	sp
                           6485 ;	genCall
   1416 CD 00 00           6486 	call	__moduchar_rrx_s
                           6487 ;	AOP_STK for _Script_SetFlagRandomValue_b_sloc1_1_0
   1419 F8 04              6488 	lda	hl,4(sp)
   141B 73                 6489 	ld	(hl),e
   141C E8 02              6490 	lda	sp,2(sp)
   141E C1                 6491 	pop	bc
                           6492 ;	genPlus
                           6493 ;	AOP_STK for _Script_SetFlagRandomValue_b_offset_1_1
                           6494 ;	AOP_STK for _Script_SetFlagRandomValue_b_sloc1_1_0
                           6495 ;	Can't optimise plus by inc, falling back to the normal way
   141F F8 05              6496 	lda	hl,5(sp)
   1421 7E                 6497 	ld	a,(hl)
   1422 F8 00              6498 	lda	hl,0(sp)
   1424 86                 6499 	add	a,(hl)
                           6500 ;	genAssign (pointer)
   1425 58                 6501 	ld	e,b
   1426 51                 6502 	ld	d,c
   1427 12                 6503 	ld	(de),a
                           6504 ;	src/ScriptRunner_b.c 950
                           6505 ;	genPlus
                           6506 ;	AOP_HL for _script_cmd_args_len
                           6507 ;	genPlusIncr
   1428 21 00 00           6508 	ld	hl,#_script_cmd_args_len
   142B 4E                 6509 	ld	c,(hl)
   142C 0C                 6510 	inc	c
                           6511 ;	genCast
                           6512 ; Removed redundent load
   142D 06 00              6513 	ld	b,#0x00
                           6514 ;	genPlus
                           6515 ;	AOP_HL for _script_ptr
                           6516 ;	Can't optimise plus by inc, falling back to the normal way
   142F 21 00 00           6517 	ld	hl,#_script_ptr
   1432 7E                 6518 	ld	a,(hl)
   1433 81                 6519 	add	a,c
   1434 22                 6520 	ld	(hl+),a
   1435 7E                 6521 	ld	a,(hl)
   1436 88                 6522 	adc	a,b
   1437 77                 6523 	ld	(hl),a
                           6524 ;	src/ScriptRunner_b.c 951
                           6525 ;	genAssign
                           6526 ;	AOP_HL for _script_continue
   1438 21 00 00           6527 	ld	hl,#_script_continue
   143B 36 01              6528 	ld	(hl),#0x01
                           6529 ;	genLabel
   143D                    6530 00101$:
                           6531 ;	genEndFunction
   143D E8 08              6532 	lda	sp,8(sp)
   143F C9                 6533 	ret
   1440                    6534 ___Script_SetFlagRandomValue_b_end:
                           6535 ;	src/ScriptRunner_b.c 959
                           6536 ;	genLabel
                           6537 ;	genFunction
                           6538 ;	---------------------------------
                           6539 ; Function Script_ActorGetPos_b
                           6540 ; ---------------------------------
   1440                    6541 ___Script_ActorGetPos_b_start:
   1440                    6542 _Script_ActorGetPos_b:
   1440 E8 FB              6543 	lda	sp,-5(sp)
                           6544 ;	src/ScriptRunner_b.c 961
                           6545 ;	genPlus
                           6546 ;	AOP_HL for _script_ptr_x
                           6547 ;	Can't optimise plus by inc, falling back to the normal way
   1442 3E 00              6548 	ld	a,#<_script_variables
   1444 21 00 00           6549 	ld	hl,#_script_ptr_x
   1447 86                 6550 	add	a,(hl)
   1448 4F                 6551 	ld	c,a
   1449 3E 00              6552 	ld	a,#>_script_variables
   144B 23                 6553 	inc	hl
   144C 8E                 6554 	adc	a,(hl)
   144D 47                 6555 	ld	b,a
                           6556 ;	genMult
                           6557 ;	AOP_HL for _script_actor
                           6558 ;	AOP_STK for _Script_ActorGetPos_b_sloc0_1_0
   144E 21 00 00           6559 	ld	hl,#_script_actor
   1451 5E                 6560 	ld	e,(hl)
   1452 16 00              6561 	ld	d,#0x00
   1454 6B                 6562 	ld	l,e
   1455 62                 6563 	ld	h,d
   1456 29                 6564 	add	hl,hl
   1457 29                 6565 	add	hl,hl
   1458 19                 6566 	add	hl,de
   1459 29                 6567 	add	hl,hl
   145A 19                 6568 	add	hl,de
   145B 29                 6569 	add	hl,hl
   145C 7D                 6570 	ld	a,l
   145D 54                 6571 	ld	d,h
   145E F8 03              6572 	lda	hl,3(sp)
   1460 22                 6573 	ld	(hl+),a
   1461 72                 6574 	ld	(hl),d
                           6575 ;	genPlus
                           6576 ;	AOP_STK for _Script_ActorGetPos_b_sloc0_1_0
                           6577 ;	AOP_STK for _Script_ActorGetPos_b_sloc1_1_0
                           6578 ;	Can't optimise plus by inc, falling back to the normal way
   1462 11 00 00           6579 	ld	de,#_actors
   1465 2B                 6580 	dec	hl
   1466 2A                 6581 	ld	a,(hl+)
   1467 66                 6582 	ld	h,(hl)
   1468 6F                 6583 	ld	l,a
   1469 19                 6584 	add	hl,de
   146A 7D                 6585 	ld	a,l
   146B 54                 6586 	ld	d,h
   146C F8 01              6587 	lda	hl,1(sp)
   146E 22                 6588 	ld	(hl+),a
   146F 72                 6589 	ld	(hl),d
                           6590 ;	genPlus
                           6591 ;	AOP_STK for _Script_ActorGetPos_b_sloc1_1_0
                           6592 ;	AOP_STK for _Script_ActorGetPos_b_sloc0_1_0
                           6593 ;	genPlusIncr
                           6594 ;	Can't optimise plus by inc, falling back to the normal way
   1470 2B                 6595 	dec	hl
   1471 5E                 6596 	ld	e,(hl)
   1472 23                 6597 	inc	hl
   1473 56                 6598 	ld	d,(hl)
   1474 21 01 00           6599 	ld	hl,#0x0001
   1477 19                 6600 	add	hl,de
   1478 7D                 6601 	ld	a,l
   1479 54                 6602 	ld	d,h
   147A F8 03              6603 	lda	hl,3(sp)
                           6604 ;	genPointerGet
                           6605 ;	AOP_STK for _Script_ActorGetPos_b_sloc0_1_0
                           6606 ;	AOP_STK for _Script_ActorGetPos_b_sloc2_1_0
   147C 22                 6607 	ld	(hl+),a
   147D 72                 6608 	ld	(hl),d
   147E 5F                 6609 	ld	e,a
   147F 1A                 6610 	ld	a,(de)
   1480 F8 00              6611 	lda	hl,0(sp)
                           6612 ;	genMinus
                           6613 ;	AOP_STK for _Script_ActorGetPos_b_sloc2_1_0
                           6614 ;	AOP_STK for _Script_ActorGetPos_b_sloc0_1_0
   1482 77                 6615 	ld      (hl),a
   1483 7F                 6616 	ld      a,a
   1484 C6 F8              6617 	add	a,#0xF8
   1486 F8 03              6618 	lda	hl,3(sp)
                           6619 ;	genRightShift
                           6620 ;	AOP_STK for _Script_ActorGetPos_b_sloc0_1_0
                           6621 ;	AOP_STK for _Script_ActorGetPos_b_sloc2_1_0
   1488 77                 6622 	ld      (hl),a
   1489 7F                 6623 	ld      a,a
   148A CB 3F              6624 	srl	a
   148C CB 3F              6625 	srl	a
   148E CB 3F              6626 	srl	a
   1490 F8 00              6627 	lda	hl,0(sp)
                           6628 ;	genAssign (pointer)
                           6629 ;	AOP_STK for _Script_ActorGetPos_b_sloc2_1_0
   1492 77                 6630 	ld      (hl),a
   1493 7F                 6631 	ld      a,a
   1494 02                 6632 	ld	(bc),a
                           6633 ;	src/ScriptRunner_b.c 962
                           6634 ;	genPlus
                           6635 ;	AOP_HL for _script_ptr_y
                           6636 ;	Can't optimise plus by inc, falling back to the normal way
   1495 3E 00              6637 	ld	a,#<_script_variables
   1497 21 00 00           6638 	ld	hl,#_script_ptr_y
   149A 86                 6639 	add	a,(hl)
   149B 4F                 6640 	ld	c,a
   149C 3E 00              6641 	ld	a,#>_script_variables
   149E 23                 6642 	inc	hl
   149F 8E                 6643 	adc	a,(hl)
   14A0 47                 6644 	ld	b,a
                           6645 ;	genPlus
                           6646 ;	AOP_STK for _Script_ActorGetPos_b_sloc1_1_0
                           6647 ;	AOP_STK for _Script_ActorGetPos_b_sloc0_1_0
                           6648 ;	genPlusIncr
                           6649 ;	Can't optimise plus by inc, falling back to the normal way
   14A1 F8 01              6650 	lda	hl,1(sp)
   14A3 5E                 6651 	ld	e,(hl)
   14A4 23                 6652 	inc	hl
   14A5 56                 6653 	ld	d,(hl)
   14A6 21 02 00           6654 	ld	hl,#0x0002
   14A9 19                 6655 	add	hl,de
   14AA 7D                 6656 	ld	a,l
   14AB 54                 6657 	ld	d,h
   14AC F8 03              6658 	lda	hl,3(sp)
                           6659 ;	genPointerGet
                           6660 ;	AOP_STK for _Script_ActorGetPos_b_sloc0_1_0
                           6661 ;	AOP_STK for _Script_ActorGetPos_b_sloc2_1_0
   14AE 22                 6662 	ld	(hl+),a
   14AF 72                 6663 	ld	(hl),d
   14B0 5F                 6664 	ld	e,a
   14B1 1A                 6665 	ld	a,(de)
   14B2 F8 00              6666 	lda	hl,0(sp)
                           6667 ;	genMinus
                           6668 ;	AOP_STK for _Script_ActorGetPos_b_sloc2_1_0
                           6669 ;	AOP_STK for _Script_ActorGetPos_b_sloc1_1_0
   14B4 77                 6670 	ld      (hl),a
   14B5 7F                 6671 	ld      a,a
   14B6 C6 F8              6672 	add	a,#0xF8
   14B8 23                 6673 	inc	hl
                           6674 ;	genRightShift
                           6675 ;	AOP_STK for _Script_ActorGetPos_b_sloc1_1_0
                           6676 ;	AOP_STK for _Script_ActorGetPos_b_sloc2_1_0
   14B9 77                 6677 	ld      (hl),a
   14BA 7F                 6678 	ld      a,a
   14BB CB 3F              6679 	srl	a
   14BD CB 3F              6680 	srl	a
   14BF CB 3F              6681 	srl	a
   14C1 2B                 6682 	dec	hl
                           6683 ;	genAssign (pointer)
                           6684 ;	AOP_STK for _Script_ActorGetPos_b_sloc2_1_0
   14C2 77                 6685 	ld      (hl),a
   14C3 7F                 6686 	ld      a,a
   14C4 02                 6687 	ld	(bc),a
                           6688 ;	src/ScriptRunner_b.c 963
                           6689 ;	genPlus
                           6690 ;	AOP_HL for _script_cmd_args_len
                           6691 ;	genPlusIncr
   14C5 21 00 00           6692 	ld	hl,#_script_cmd_args_len
   14C8 4E                 6693 	ld	c,(hl)
   14C9 0C                 6694 	inc	c
                           6695 ;	genCast
                           6696 ; Removed redundent load
   14CA 06 00              6697 	ld	b,#0x00
                           6698 ;	genPlus
                           6699 ;	AOP_HL for _script_ptr
                           6700 ;	Can't optimise plus by inc, falling back to the normal way
   14CC 21 00 00           6701 	ld	hl,#_script_ptr
   14CF 7E                 6702 	ld	a,(hl)
   14D0 81                 6703 	add	a,c
   14D1 22                 6704 	ld	(hl+),a
   14D2 7E                 6705 	ld	a,(hl)
   14D3 88                 6706 	adc	a,b
   14D4 77                 6707 	ld	(hl),a
                           6708 ;	src/ScriptRunner_b.c 964
                           6709 ;	genAssign
                           6710 ;	AOP_HL for _script_continue
   14D5 21 00 00           6711 	ld	hl,#_script_continue
   14D8 36 01              6712 	ld	(hl),#0x01
                           6713 ;	genLabel
   14DA                    6714 00101$:
                           6715 ;	genEndFunction
   14DA E8 05              6716 	lda	sp,5(sp)
   14DC C9                 6717 	ret
   14DD                    6718 ___Script_ActorGetPos_b_end:
                           6719 ;	src/ScriptRunner_b.c 972
                           6720 ;	genLabel
                           6721 ;	genFunction
                           6722 ;	---------------------------------
                           6723 ; Function Script_ActorSetPosToVal_b
                           6724 ; ---------------------------------
   14DD                    6725 ___Script_ActorSetPosToVal_b_start:
   14DD                    6726 _Script_ActorSetPosToVal_b:
   14DD E8 FB              6727 	lda	sp,-5(sp)
                           6728 ;	src/ScriptRunner_b.c 974
                           6729 ;	genMult
                           6730 ;	AOP_HL for _script_actor
   14DF 21 00 00           6731 	ld	hl,#_script_actor
   14E2 5E                 6732 	ld	e,(hl)
   14E3 16 00              6733 	ld	d,#0x00
   14E5 6B                 6734 	ld	l,e
   14E6 62                 6735 	ld	h,d
   14E7 29                 6736 	add	hl,hl
   14E8 29                 6737 	add	hl,hl
   14E9 19                 6738 	add	hl,de
   14EA 29                 6739 	add	hl,hl
   14EB 19                 6740 	add	hl,de
   14EC 29                 6741 	add	hl,hl
   14ED 4D                 6742 	ld	c,l
   14EE 44                 6743 	ld	b,h
                           6744 ;	genPlus
                           6745 ;	Can't optimise plus by inc, falling back to the normal way
   14EF 21 00 00           6746 	ld	hl,#_actors
   14F2 09                 6747 	add	hl,bc
   14F3 4D                 6748 	ld	c,l
   14F4 44                 6749 	ld	b,h
                           6750 ;	genPlus
                           6751 ;	AOP_STK for _Script_ActorSetPosToVal_b_sloc0_1_0
                           6752 ;	genPlusIncr
                           6753 ;	Can't optimise plus by inc, falling back to the normal way
   14F5 21 01 00           6754 	ld	hl,#0x0001
   14F8 09                 6755 	add	hl,bc
   14F9 7D                 6756 	ld	a,l
   14FA 54                 6757 	ld	d,h
   14FB F8 03              6758 	lda	hl,3(sp)
   14FD 22                 6759 	ld	(hl+),a
   14FE 72                 6760 	ld	(hl),d
                           6761 ;	genAssign (pointer)
                           6762 ;	AOP_STK for _Script_ActorSetPosToVal_b_sloc0_1_0
   14FF 2B                 6763 	dec	hl
   1500 5E                 6764 	ld	e,(hl)
   1501 23                 6765 	inc	hl
   1502 56                 6766 	ld	d,(hl)
   1503 3E 00              6767 	ld	a,#0x00
   1505 12                 6768 	ld	(de),a
                           6769 ;	src/ScriptRunner_b.c 975
                           6770 ;	genPlus
                           6771 ;	AOP_HL for _script_ptr_x
                           6772 ;	AOP_STK for _Script_ActorSetPosToVal_b_sloc1_1_0
                           6773 ;	Can't optimise plus by inc, falling back to the normal way
   1506 11 00 00           6774 	ld	de,#_script_variables
   1509 21 00 00           6775 	ld	hl,#_script_ptr_x
   150C 2A                 6776 	ld	a,(hl+)
   150D 66                 6777 	ld	h,(hl)
   150E 6F                 6778 	ld	l,a
   150F 19                 6779 	add	hl,de
   1510 7D                 6780 	ld	a,l
   1511 54                 6781 	ld	d,h
   1512 F8 01              6782 	lda	hl,1(sp)
                           6783 ;	genPointerGet
                           6784 ;	AOP_STK for _Script_ActorSetPosToVal_b_sloc1_1_0
                           6785 ;	AOP_STK for _Script_ActorSetPosToVal_b_sloc2_1_0
   1514 22                 6786 	ld	(hl+),a
   1515 72                 6787 	ld	(hl),d
   1516 5F                 6788 	ld	e,a
   1517 1A                 6789 	ld	a,(de)
   1518 2B                 6790 	dec	hl
   1519 2B                 6791 	dec	hl
                           6792 ;	genLeftShift
                           6793 ;	AOP_STK for _Script_ActorSetPosToVal_b_sloc2_1_0
                           6794 ;	AOP_STK for _Script_ActorSetPosToVal_b_sloc1_1_0
   151A 77                 6795 	ld      (hl),a
   151B 7F                 6796 	ld      a,a
   151C CB 27              6797 	sla	a
   151E CB 17              6798 	rl	a
   1520 CB 17              6799 	rl	a
   1522 E6 F8              6800 	and	a,#0xF8
   1524 23                 6801 	inc	hl
                           6802 ;	genPlus
                           6803 ;	AOP_STK for _Script_ActorSetPosToVal_b_sloc1_1_0
                           6804 ;	genPlusIncr
                           6805 ;	Can't optimise plus by inc, falling back to the normal way
   1525 77                 6806 	ld      (hl),a
   1526 7F                 6807 	ld      a,a
   1527 C6 08              6808 	add	a,#0x08
                           6809 ;	genAssign (pointer)
                           6810 ;	AOP_STK for _Script_ActorSetPosToVal_b_sloc0_1_0
   1529 23                 6811 	inc	hl
   152A 23                 6812 	inc	hl
   152B 5E                 6813 	ld	e,(hl)
   152C 23                 6814 	inc	hl
   152D 56                 6815 	ld	d,(hl)
   152E 12                 6816 	ld	(de),a
                           6817 ;	src/ScriptRunner_b.c 976
                           6818 ;	genPlus
                           6819 ;	genPlusIncr
   152F 03                 6820 	inc	bc
   1530 03                 6821 	inc	bc
                           6822 ;	genAssign (pointer)
   1531 3E 00              6823 	ld	a,#0x00
   1533 02                 6824 	ld	(bc),a
                           6825 ;	src/ScriptRunner_b.c 977
                           6826 ;	genPlus
                           6827 ;	AOP_HL for _script_ptr_y
                           6828 ;	AOP_STK for _Script_ActorSetPosToVal_b_sloc1_1_0
                           6829 ;	Can't optimise plus by inc, falling back to the normal way
   1534 11 00 00           6830 	ld	de,#_script_variables
   1537 21 00 00           6831 	ld	hl,#_script_ptr_y
   153A 2A                 6832 	ld	a,(hl+)
   153B 66                 6833 	ld	h,(hl)
   153C 6F                 6834 	ld	l,a
   153D 19                 6835 	add	hl,de
   153E 7D                 6836 	ld	a,l
   153F 54                 6837 	ld	d,h
   1540 F8 01              6838 	lda	hl,1(sp)
                           6839 ;	genPointerGet
                           6840 ;	AOP_STK for _Script_ActorSetPosToVal_b_sloc1_1_0
                           6841 ;	AOP_STK for _Script_ActorSetPosToVal_b_sloc2_1_0
   1542 22                 6842 	ld	(hl+),a
   1543 72                 6843 	ld	(hl),d
   1544 5F                 6844 	ld	e,a
   1545 1A                 6845 	ld	a,(de)
   1546 2B                 6846 	dec	hl
   1547 2B                 6847 	dec	hl
                           6848 ;	genLeftShift
                           6849 ;	AOP_STK for _Script_ActorSetPosToVal_b_sloc2_1_0
                           6850 ;	AOP_STK for _Script_ActorSetPosToVal_b_sloc1_1_0
   1548 77                 6851 	ld      (hl),a
   1549 7F                 6852 	ld      a,a
   154A CB 27              6853 	sla	a
   154C CB 17              6854 	rl	a
   154E CB 17              6855 	rl	a
   1550 E6 F8              6856 	and	a,#0xF8
   1552 23                 6857 	inc	hl
                           6858 ;	genPlus
                           6859 ;	AOP_STK for _Script_ActorSetPosToVal_b_sloc1_1_0
                           6860 ;	genPlusIncr
                           6861 ;	Can't optimise plus by inc, falling back to the normal way
   1553 77                 6862 	ld      (hl),a
   1554 7F                 6863 	ld      a,a
   1555 C6 08              6864 	add	a,#0x08
                           6865 ;	genAssign (pointer)
   1557 02                 6866 	ld	(bc),a
                           6867 ;	src/ScriptRunner_b.c 978
                           6868 ;	genPlus
                           6869 ;	AOP_HL for _script_cmd_args_len
                           6870 ;	genPlusIncr
   1558 21 00 00           6871 	ld	hl,#_script_cmd_args_len
   155B 4E                 6872 	ld	c,(hl)
   155C 0C                 6873 	inc	c
                           6874 ;	genCast
                           6875 ; Removed redundent load
   155D 06 00              6876 	ld	b,#0x00
                           6877 ;	genPlus
                           6878 ;	AOP_HL for _script_ptr
                           6879 ;	Can't optimise plus by inc, falling back to the normal way
   155F 21 00 00           6880 	ld	hl,#_script_ptr
   1562 7E                 6881 	ld	a,(hl)
   1563 81                 6882 	add	a,c
   1564 22                 6883 	ld	(hl+),a
   1565 7E                 6884 	ld	a,(hl)
   1566 88                 6885 	adc	a,b
   1567 77                 6886 	ld	(hl),a
                           6887 ;	src/ScriptRunner_b.c 979
                           6888 ;	genAssign
                           6889 ;	AOP_HL for _script_continue
   1568 21 00 00           6890 	ld	hl,#_script_continue
   156B 36 01              6891 	ld	(hl),#0x01
                           6892 ;	genLabel
   156D                    6893 00101$:
                           6894 ;	genEndFunction
   156D E8 05              6895 	lda	sp,5(sp)
   156F C9                 6896 	ret
   1570                    6897 ___Script_ActorSetPosToVal_b_end:
                           6898 ;	src/ScriptRunner_b.c 987
                           6899 ;	genLabel
                           6900 ;	genFunction
                           6901 ;	---------------------------------
                           6902 ; Function Script_ActorMoveToVal_b
                           6903 ; ---------------------------------
   1570                    6904 ___Script_ActorMoveToVal_b_start:
   1570                    6905 _Script_ActorMoveToVal_b:
   1570 E8 FD              6906 	lda	sp,-3(sp)
                           6907 ;	src/ScriptRunner_b.c 989
                           6908 ;	genOr
                           6909 ;	AOP_HL for _actor_move_settings
   1572 21 00 00           6910 	ld	hl,#_actor_move_settings
   1575 7E                 6911 	ld	a,(hl)
   1576 F6 80              6912 	or	a,#0x80
                           6913 ;	src/ScriptRunner_b.c 990
                           6914 ;	genOr
                           6915 ;	AOP_HL for _actor_move_settings
   1578 77                 6916 	ld      (hl),a
                           6917 ; Removed redundent load
   1579 F6 40              6918 	or	a,#0x40
   157B 77                 6919 	ld	(hl),a
                           6920 ;	src/ScriptRunner_b.c 991
                           6921 ;	genAssign (pointer)
   157C 11 00 00           6922 	ld	de,#_actor_move_dest
   157F 3E 00              6923 	ld	a,#0x00
   1581 12                 6924 	ld	(de),a
                           6925 ;	src/ScriptRunner_b.c 992
                           6926 ;	genPlus
                           6927 ;	AOP_HL for _script_ptr_x
                           6928 ;	Can't optimise plus by inc, falling back to the normal way
   1582 3E 00              6929 	ld	a,#<_script_variables
   1584 21 00 00           6930 	ld	hl,#_script_ptr_x
   1587 86                 6931 	add	a,(hl)
   1588 4F                 6932 	ld	c,a
   1589 3E 00              6933 	ld	a,#>_script_variables
   158B 23                 6934 	inc	hl
   158C 8E                 6935 	adc	a,(hl)
   158D 47                 6936 	ld	b,a
                           6937 ;	genPointerGet
   158E 0A                 6938 	ld	a,(bc)
                           6939 ;	genLeftShift
   158F 4F                 6940 	ld	c,a
   1590 CB 27              6941 	sla	a
   1592 CB 17              6942 	rl	a
   1594 CB 17              6943 	rl	a
   1596 E6 F8              6944 	and	a,#0xF8
                           6945 ;	genPlus
                           6946 ;	genPlusIncr
                           6947 ;	Can't optimise plus by inc, falling back to the normal way
   1598 4F                 6948 	ld	c,a
   1599 C6 08              6949 	add	a,#0x08
                           6950 ;	genAssign (pointer)
   159B 11 00 00           6951 	ld	de,#_actor_move_dest
   159E 12                 6952 	ld	(de),a
                           6953 ;	src/ScriptRunner_b.c 993
                           6954 ;	genPlus
                           6955 ;	genPlusIncr
   159F 01 01 00           6956 	ld	bc,#_actor_move_dest + 1
                           6957 ;	genAssign (pointer)
   15A2 3E 00              6958 	ld	a,#0x00
   15A4 02                 6959 	ld	(bc),a
                           6960 ;	src/ScriptRunner_b.c 994
                           6961 ;	genPlus
                           6962 ;	AOP_HL for _script_ptr_y
                           6963 ;	AOP_STK for _Script_ActorMoveToVal_b_sloc0_1_0
                           6964 ;	Can't optimise plus by inc, falling back to the normal way
   15A5 11 00 00           6965 	ld	de,#_script_variables
   15A8 21 00 00           6966 	ld	hl,#_script_ptr_y
   15AB 2A                 6967 	ld	a,(hl+)
   15AC 66                 6968 	ld	h,(hl)
   15AD 6F                 6969 	ld	l,a
   15AE 19                 6970 	add	hl,de
   15AF 7D                 6971 	ld	a,l
   15B0 54                 6972 	ld	d,h
   15B1 F8 01              6973 	lda	hl,1(sp)
                           6974 ;	genPointerGet
                           6975 ;	AOP_STK for _Script_ActorMoveToVal_b_sloc0_1_0
                           6976 ;	AOP_STK for _Script_ActorMoveToVal_b_sloc1_1_0
   15B3 22                 6977 	ld	(hl+),a
   15B4 72                 6978 	ld	(hl),d
   15B5 5F                 6979 	ld	e,a
   15B6 1A                 6980 	ld	a,(de)
   15B7 2B                 6981 	dec	hl
   15B8 2B                 6982 	dec	hl
                           6983 ;	genLeftShift
                           6984 ;	AOP_STK for _Script_ActorMoveToVal_b_sloc1_1_0
                           6985 ;	AOP_STK for _Script_ActorMoveToVal_b_sloc0_1_0
   15B9 77                 6986 	ld      (hl),a
                           6987 ; Removed redundent load
   15BA CB 27              6988 	sla	a
   15BC CB 17              6989 	rl	a
   15BE CB 17              6990 	rl	a
   15C0 E6 F8              6991 	and	a,#0xF8
   15C2 23                 6992 	inc	hl
                           6993 ;	genPlus
                           6994 ;	AOP_STK for _Script_ActorMoveToVal_b_sloc0_1_0
                           6995 ;	genPlusIncr
                           6996 ;	Can't optimise plus by inc, falling back to the normal way
   15C3 77                 6997 	ld      (hl),a
                           6998 ; Removed redundent load
   15C4 C6 08              6999 	add	a,#0x08
                           7000 ;	genAssign (pointer)
   15C6 02                 7001 	ld	(bc),a
                           7002 ;	src/ScriptRunner_b.c 995
                           7003 ;	genPlus
                           7004 ;	AOP_HL for _script_cmd_args_len
                           7005 ;	genPlusIncr
   15C7 21 00 00           7006 	ld	hl,#_script_cmd_args_len
   15CA 4E                 7007 	ld	c,(hl)
   15CB 0C                 7008 	inc	c
                           7009 ;	genCast
                           7010 ; Removed redundent load
   15CC 06 00              7011 	ld	b,#0x00
                           7012 ;	genPlus
                           7013 ;	AOP_HL for _script_ptr
                           7014 ;	Can't optimise plus by inc, falling back to the normal way
   15CE 21 00 00           7015 	ld	hl,#_script_ptr
   15D1 7E                 7016 	ld	a,(hl)
   15D2 81                 7017 	add	a,c
   15D3 22                 7018 	ld	(hl+),a
   15D4 7E                 7019 	ld	a,(hl)
   15D5 88                 7020 	adc	a,b
   15D6 77                 7021 	ld	(hl),a
                           7022 ;	src/ScriptRunner_b.c 996
                           7023 ;	genAssign
                           7024 ;	AOP_HL for _script_action_complete
   15D7 21 00 00           7025 	ld	hl,#_script_action_complete
   15DA 36 00              7026 	ld	(hl),#0x00
                           7027 ;	genLabel
   15DC                    7028 00101$:
                           7029 ;	genEndFunction
   15DC E8 03              7030 	lda	sp,3(sp)
   15DE C9                 7031 	ret
   15DF                    7032 ___Script_ActorMoveToVal_b_end:
                           7033 ;	src/ScriptRunner_b.c 1007
                           7034 ;	genLabel
                           7035 ;	genFunction
                           7036 ;	---------------------------------
                           7037 ; Function Script_ActorMoveRel_b
                           7038 ; ---------------------------------
   15DF                    7039 ___Script_ActorMoveRel_b_start:
   15DF                    7040 _Script_ActorMoveRel_b:
   15DF E8 FA              7041 	lda	sp,-6(sp)
                           7042 ;	src/ScriptRunner_b.c 1009
                           7043 ;	genOr
                           7044 ;	AOP_HL for _actor_move_settings
   15E1 21 00 00           7045 	ld	hl,#_actor_move_settings
   15E4 7E                 7046 	ld	a,(hl)
   15E5 F6 80              7047 	or	a,#0x80
                           7048 ;	src/ScriptRunner_b.c 1010
                           7049 ;	genOr
                           7050 ;	AOP_HL for _actor_move_settings
   15E7 77                 7051 	ld      (hl),a
                           7052 ; Removed redundent load
   15E8 F6 40              7053 	or	a,#0x40
   15EA 77                 7054 	ld	(hl),a
                           7055 ;	src/ScriptRunner_b.c 1011
                           7056 ;	genAssign (pointer)
   15EB 11 00 00           7057 	ld	de,#_actor_move_dest
   15EE 3E 00              7058 	ld	a,#0x00
   15F0 12                 7059 	ld	(de),a
                           7060 ;	src/ScriptRunner_b.c 1012
                           7061 ;	genMult
                           7062 ;	AOP_HL for _script_actor
   15F1 21 00 00           7063 	ld	hl,#_script_actor
   15F4 5E                 7064 	ld	e,(hl)
   15F5 16 00              7065 	ld	d,#0x00
   15F7 6B                 7066 	ld	l,e
   15F8 62                 7067 	ld	h,d
   15F9 29                 7068 	add	hl,hl
   15FA 29                 7069 	add	hl,hl
   15FB 19                 7070 	add	hl,de
   15FC 29                 7071 	add	hl,hl
   15FD 19                 7072 	add	hl,de
   15FE 29                 7073 	add	hl,hl
   15FF 4D                 7074 	ld	c,l
   1600 44                 7075 	ld	b,h
                           7076 ;	genPlus
                           7077 ;	Can't optimise plus by inc, falling back to the normal way
   1601 21 00 00           7078 	ld	hl,#_actors
   1604 09                 7079 	add	hl,bc
   1605 4D                 7080 	ld	c,l
   1606 44                 7081 	ld	b,h
                           7082 ;	genPlus
                           7083 ;	AOP_STK for _Script_ActorMoveRel_b_sloc0_1_0
                           7084 ;	genPlusIncr
                           7085 ;	Can't optimise plus by inc, falling back to the normal way
   1607 21 01 00           7086 	ld	hl,#0x0001
   160A 09                 7087 	add	hl,bc
   160B 7D                 7088 	ld	a,l
   160C 54                 7089 	ld	d,h
   160D F8 04              7090 	lda	hl,4(sp)
                           7091 ;	genPointerGet
                           7092 ;	AOP_STK for _Script_ActorMoveRel_b_sloc0_1_0
   160F 22                 7093 	ld	(hl+),a
   1610 72                 7094 	ld	(hl),d
   1611 5F                 7095 	ld	e,a
   1612 1A                 7096 	ld	a,(de)
                           7097 ;	genAssign (pointer)
   1613 11 00 00           7098 	ld	de,#_actor_move_dest
   1616 12                 7099 	ld	(de),a
                           7100 ;	src/ScriptRunner_b.c 1013
                           7101 ;	genPointerGet
                           7102 ;	AOP_STK for _Script_ActorMoveRel_b_sloc0_1_0
   1617 11 00 00           7103 	ld	de,#_script_cmd_args
   161A 1A                 7104 	ld	a,(de)
   161B 2B                 7105 	dec	hl
                           7106 ;	genCmpEq
                           7107 ;	AOP_STK for _Script_ActorMoveRel_b_sloc0_1_0
                           7108 ; genCmpEq: left 1, right 1, result 0
   161C 77                 7109 	ld      (hl),a
                           7110 ; Removed redundent load
   161D B7                 7111 	or	a,a
   161E CA 7A 16           7112 	jp	z,00105$
   1621                    7113 00117$:
                           7114 ;	src/ScriptRunner_b.c 1015
                           7115 ;	genPlus
                           7116 ;	AOP_STK for _Script_ActorMoveRel_b_sloc1_1_0
                           7117 ;	genPlusIncr
                           7118 ;	Can't optimise plus by inc, falling back to the normal way
   1621 11 00 00           7119 	ld	de,#_script_cmd_args
   1624 21 01 00           7120 	ld	hl,#0x0001
   1627 19                 7121 	add	hl,de
   1628 7D                 7122 	ld	a,l
   1629 54                 7123 	ld	d,h
   162A F8 02              7124 	lda	hl,2(sp)
                           7125 ;	genPointerGet
                           7126 ;	AOP_STK for _Script_ActorMoveRel_b_sloc1_1_0
                           7127 ;	AOP_STK for _Script_ActorMoveRel_b_sloc2_1_0
   162C 22                 7128 	ld	(hl+),a
   162D 72                 7129 	ld	(hl),d
   162E 5F                 7130 	ld	e,a
   162F 1A                 7131 	ld	a,(de)
   1630 2B                 7132 	dec	hl
   1631 2B                 7133 	dec	hl
                           7134 ;	genCmpEq
                           7135 ;	AOP_STK for _Script_ActorMoveRel_b_sloc2_1_0
                           7136 ; genCmpEq: left 1, right 1, result 0
   1632 77                 7137 	ld      (hl),a
                           7138 ; Removed redundent load
   1633 FE 01              7139 	cp	a,#0x01
   1635 C2 5F 16           7140 	jp	nz,00102$
   1638 18 03              7141 	jr	00119$
   163A                    7142 00118$:
   163A C3 5F 16           7143 	jp	00102$
   163D                    7144 00119$:
                           7145 ;	src/ScriptRunner_b.c 1017
                           7146 ;	genPointerGet
                           7147 ;	AOP_STK for _Script_ActorMoveRel_b_sloc2_1_0
   163D 11 00 00           7148 	ld	de,#_actor_move_dest
   1640 1A                 7149 	ld	a,(de)
   1641 F8 01              7150 	lda	hl,1(sp)
   1643 77                 7151 	ld	(hl),a
                           7152 ;	genLeftShift
                           7153 ;	AOP_STK for _Script_ActorMoveRel_b_sloc0_1_0
                           7154 ;	AOP_STK for _Script_ActorMoveRel_b_sloc1_1_0
   1644 F8 04              7155 	lda	hl,4(sp)
   1646 7E                 7156 	ld	a,(hl)
   1647 CB 27              7157 	sla	a
   1649 CB 17              7158 	rl	a
   164B CB 17              7159 	rl	a
   164D E6 F8              7160 	and	a,#0xF8
   164F 2B                 7161 	dec	hl
   1650 2B                 7162 	dec	hl
                           7163 ;	genMinus
                           7164 ;	AOP_STK for _Script_ActorMoveRel_b_sloc2_1_0
                           7165 ;	AOP_STK for _Script_ActorMoveRel_b_sloc1_1_0
                           7166 ;	AOP_STK for _Script_ActorMoveRel_b_sloc3_1_0
   1651 32                 7167 	ld      (hl-),a
   1652 2A                 7168 	ld	a,(hl+)
   1653 96                 7169 	sub	a,(hl)
   1654 2B                 7170 	dec	hl
   1655 2B                 7171 	dec	hl
   1656 77                 7172 	ld	(hl),a
                           7173 ;	genAssign (pointer)
                           7174 ;	AOP_STK for _Script_ActorMoveRel_b_sloc3_1_0
   1657 11 00 00           7175 	ld	de,#_actor_move_dest
   165A 7E                 7176 	ld	a,(hl)
   165B 12                 7177 	ld	(de),a
                           7178 ;	genGoto
   165C C3 7A 16           7179 	jp	00105$
                           7180 ;	genLabel
   165F                    7181 00102$:
                           7182 ;	src/ScriptRunner_b.c 1021
                           7183 ;	genPointerGet
                           7184 ;	AOP_STK for _Script_ActorMoveRel_b_sloc3_1_0
   165F 11 00 00           7185 	ld	de,#_actor_move_dest
   1662 1A                 7186 	ld	a,(de)
   1663 F8 00              7187 	lda	hl,0(sp)
   1665 77                 7188 	ld	(hl),a
                           7189 ;	genLeftShift
                           7190 ;	AOP_STK for _Script_ActorMoveRel_b_sloc0_1_0
                           7191 ;	AOP_STK for _Script_ActorMoveRel_b_sloc2_1_0
   1666 F8 04              7192 	lda	hl,4(sp)
   1668 7E                 7193 	ld	a,(hl)
   1669 CB 27              7194 	sla	a
   166B CB 17              7195 	rl	a
   166D CB 17              7196 	rl	a
   166F E6 F8              7197 	and	a,#0xF8
   1671 F8 01              7198 	lda	hl,1(sp)
                           7199 ;	genPlus
                           7200 ;	AOP_STK for _Script_ActorMoveRel_b_sloc3_1_0
                           7201 ;	AOP_STK for _Script_ActorMoveRel_b_sloc2_1_0
                           7202 ;	Can't optimise plus by inc, falling back to the normal way
   1673 32                 7203 	ld      (hl-),a
   1674 2A                 7204 	ld	a,(hl+)
   1675 86                 7205 	add	a,(hl)
                           7206 ;	genAssign (pointer)
   1676 11 00 00           7207 	ld	de,#_actor_move_dest
   1679 12                 7208 	ld	(de),a
                           7209 ;	genLabel
   167A                    7210 00105$:
                           7211 ;	src/ScriptRunner_b.c 1025
                           7212 ;	genPlus
                           7213 ;	AOP_STK for _Script_ActorMoveRel_b_sloc1_1_0
                           7214 ;	genPlusIncr
                           7215 ;	Can't optimise plus by inc, falling back to the normal way
   167A 11 00 00           7216 	ld	de,#_actor_move_dest
   167D 21 01 00           7217 	ld	hl,#0x0001
   1680 19                 7218 	add	hl,de
   1681 7D                 7219 	ld	a,l
   1682 54                 7220 	ld	d,h
   1683 F8 02              7221 	lda	hl,2(sp)
   1685 22                 7222 	ld	(hl+),a
   1686 72                 7223 	ld	(hl),d
                           7224 ;	genAssign (pointer)
                           7225 ;	AOP_STK for _Script_ActorMoveRel_b_sloc1_1_0
   1687 2B                 7226 	dec	hl
   1688 5E                 7227 	ld	e,(hl)
   1689 23                 7228 	inc	hl
   168A 56                 7229 	ld	d,(hl)
   168B 3E 00              7230 	ld	a,#0x00
   168D 12                 7231 	ld	(de),a
                           7232 ;	src/ScriptRunner_b.c 1026
                           7233 ;	genPlus
                           7234 ;	genPlusIncr
   168E 03                 7235 	inc	bc
   168F 03                 7236 	inc	bc
                           7237 ;	genPointerGet
   1690 0A                 7238 	ld	a,(bc)
                           7239 ;	genAssign (pointer)
                           7240 ;	AOP_STK for _Script_ActorMoveRel_b_sloc1_1_0
   1691 2B                 7241 	dec	hl
   1692 5E                 7242 	ld	e,(hl)
   1693 23                 7243 	inc	hl
   1694 56                 7244 	ld	d,(hl)
   1695 12                 7245 	ld	(de),a
                           7246 ;	src/ScriptRunner_b.c 1027
                           7247 ;	genPlus
                           7248 ;	genPlusIncr
   1696 01 02 00           7249 	ld	bc,#_script_cmd_args + 2
                           7250 ;	genPointerGet
   1699 0A                 7251 	ld	a,(bc)
                           7252 ;	genCmpEq
                           7253 ; genCmpEq: left 1, right 1, result 0
   169A 4F                 7254 	ld	c,a
   169B B7                 7255 	or	a,a
   169C CA F1 16           7256 	jp	z,00110$
   169F                    7257 00120$:
                           7258 ;	src/ScriptRunner_b.c 1029
                           7259 ;	genPlus
                           7260 ;	AOP_STK for _Script_ActorMoveRel_b_sloc0_1_0
                           7261 ;	genPlusIncr
                           7262 ;	Can't optimise plus by inc, falling back to the normal way
   169F 11 00 00           7263 	ld	de,#_script_cmd_args
   16A2 21 03 00           7264 	ld	hl,#0x0003
   16A5 19                 7265 	add	hl,de
   16A6 7D                 7266 	ld	a,l
   16A7 54                 7267 	ld	d,h
   16A8 F8 04              7268 	lda	hl,4(sp)
                           7269 ;	genPointerGet
                           7270 ;	AOP_STK for _Script_ActorMoveRel_b_sloc0_1_0
   16AA 22                 7271 	ld	(hl+),a
   16AB 72                 7272 	ld	(hl),d
   16AC 5F                 7273 	ld	e,a
   16AD 1A                 7274 	ld	a,(de)
                           7275 ;	genCmpEq
                           7276 ; genCmpEq: left 1, right 1, result 0
   16AE 47                 7277 	ld	b,a
   16AF FE 01              7278 	cp	a,#0x01
   16B1 C2 D9 16           7279 	jp	nz,00107$
   16B4 18 03              7280 	jr	00122$
   16B6                    7281 00121$:
   16B6 C3 D9 16           7282 	jp	00107$
   16B9                    7283 00122$:
                           7284 ;	src/ScriptRunner_b.c 1031
                           7285 ;	genPointerGet
                           7286 ;	AOP_STK for _Script_ActorMoveRel_b_sloc1_1_0
   16B9 F8 02              7287 	lda	hl,2(sp)
   16BB 5E                 7288 	ld	e,(hl)
   16BC 23                 7289 	inc	hl
   16BD 56                 7290 	ld	d,(hl)
   16BE 1A                 7291 	ld	a,(de)
   16BF 47                 7292 	ld	b,a
                           7293 ;	genLeftShift
                           7294 ;	AOP_STK for _Script_ActorMoveRel_b_sloc3_1_0
   16C0 79                 7295 	ld	a,c
   16C1 CB 27              7296 	sla	a
   16C3 CB 17              7297 	rl	a
   16C5 CB 17              7298 	rl	a
   16C7 E6 F8              7299 	and	a,#0xF8
   16C9 F8 00              7300 	lda	hl,0(sp)
   16CB 77                 7301 	ld	(hl),a
                           7302 ;	genMinus
                           7303 ;	AOP_STK for _Script_ActorMoveRel_b_sloc3_1_0
   16CC 78                 7304 	ld	a,b
   16CD 96                 7305 	sub	a,(hl)
   16CE 47                 7306 	ld	b,a
                           7307 ;	genAssign (pointer)
                           7308 ;	AOP_STK for _Script_ActorMoveRel_b_sloc1_1_0
   16CF 23                 7309 	inc	hl
   16D0 23                 7310 	inc	hl
   16D1 5E                 7311 	ld	e,(hl)
   16D2 23                 7312 	inc	hl
   16D3 56                 7313 	ld	d,(hl)
   16D4 78                 7314 	ld	a,b
   16D5 12                 7315 	ld	(de),a
                           7316 ;	genGoto
   16D6 C3 F1 16           7317 	jp	00110$
                           7318 ;	genLabel
   16D9                    7319 00107$:
                           7320 ;	src/ScriptRunner_b.c 1035
                           7321 ;	genPointerGet
                           7322 ;	AOP_STK for _Script_ActorMoveRel_b_sloc1_1_0
   16D9 F8 02              7323 	lda	hl,2(sp)
   16DB 5E                 7324 	ld	e,(hl)
   16DC 23                 7325 	inc	hl
   16DD 56                 7326 	ld	d,(hl)
   16DE 1A                 7327 	ld	a,(de)
   16DF 47                 7328 	ld	b,a
                           7329 ;	genLeftShift
   16E0 79                 7330 	ld	a,c
   16E1 CB 27              7331 	sla	a
   16E3 CB 17              7332 	rl	a
   16E5 CB 17              7333 	rl	a
   16E7 E6 F8              7334 	and	a,#0xF8
   16E9 4F                 7335 	ld	c,a
                           7336 ;	genPlus
                           7337 ;	Can't optimise plus by inc, falling back to the normal way
   16EA 78                 7338 	ld	a,b
   16EB 81                 7339 	add	a,c
                           7340 ;	genAssign (pointer)
                           7341 ;	AOP_STK for _Script_ActorMoveRel_b_sloc1_1_0
   16EC 2B                 7342 	dec	hl
   16ED 5E                 7343 	ld	e,(hl)
   16EE 23                 7344 	inc	hl
   16EF 56                 7345 	ld	d,(hl)
   16F0 12                 7346 	ld	(de),a
                           7347 ;	genLabel
   16F1                    7348 00110$:
                           7349 ;	src/ScriptRunner_b.c 1039
                           7350 ;	genPlus
                           7351 ;	AOP_HL for _script_cmd_args_len
                           7352 ;	genPlusIncr
   16F1 21 00 00           7353 	ld	hl,#_script_cmd_args_len
   16F4 4E                 7354 	ld	c,(hl)
   16F5 0C                 7355 	inc	c
                           7356 ;	genCast
                           7357 ; Removed redundent load
   16F6 06 00              7358 	ld	b,#0x00
                           7359 ;	genPlus
                           7360 ;	AOP_HL for _script_ptr
                           7361 ;	Can't optimise plus by inc, falling back to the normal way
   16F8 21 00 00           7362 	ld	hl,#_script_ptr
   16FB 7E                 7363 	ld	a,(hl)
   16FC 81                 7364 	add	a,c
   16FD 22                 7365 	ld	(hl+),a
   16FE 7E                 7366 	ld	a,(hl)
   16FF 88                 7367 	adc	a,b
   1700 77                 7368 	ld	(hl),a
                           7369 ;	src/ScriptRunner_b.c 1040
                           7370 ;	genAssign
                           7371 ;	AOP_HL for _script_action_complete
   1701 21 00 00           7372 	ld	hl,#_script_action_complete
   1704 36 00              7373 	ld	(hl),#0x00
                           7374 ;	genLabel
   1706                    7375 00111$:
                           7376 ;	genEndFunction
   1706 E8 06              7377 	lda	sp,6(sp)
   1708 C9                 7378 	ret
   1709                    7379 ___Script_ActorMoveRel_b_end:
                           7380 ;	src/ScriptRunner_b.c 1051
                           7381 ;	genLabel
                           7382 ;	genFunction
                           7383 ;	---------------------------------
                           7384 ; Function Script_ActorSetPosRel_b
                           7385 ; ---------------------------------
   1709                    7386 ___Script_ActorSetPosRel_b_start:
   1709                    7387 _Script_ActorSetPosRel_b:
   1709 E8 FC              7388 	lda	sp,-4(sp)
                           7389 ;	src/ScriptRunner_b.c 1053
                           7390 ;	genPointerGet
   170B 11 00 00           7391 	ld	de,#_script_cmd_args
   170E 1A                 7392 	ld	a,(de)
                           7393 ;	genCmpEq
                           7394 ; genCmpEq: left 1, right 1, result 0
   170F 4F                 7395 	ld	c,a
   1710 B7                 7396 	or	a,a
   1711 CA B7 17           7397 	jp	z,00105$
   1714                    7398 00117$:
                           7399 ;	src/ScriptRunner_b.c 1055
                           7400 ;	genPlus
                           7401 ;	AOP_STK for _Script_ActorSetPosRel_b_sloc0_1_0
                           7402 ;	genPlusIncr
                           7403 ;	Can't optimise plus by inc, falling back to the normal way
   1714 11 00 00           7404 	ld	de,#_script_cmd_args
   1717 21 01 00           7405 	ld	hl,#0x0001
   171A 19                 7406 	add	hl,de
   171B 7D                 7407 	ld	a,l
   171C 54                 7408 	ld	d,h
   171D F8 02              7409 	lda	hl,2(sp)
                           7410 ;	genPointerGet
                           7411 ;	AOP_STK for _Script_ActorSetPosRel_b_sloc0_1_0
   171F 22                 7412 	ld	(hl+),a
   1720 72                 7413 	ld	(hl),d
   1721 5F                 7414 	ld	e,a
   1722 1A                 7415 	ld	a,(de)
                           7416 ;	genIfx
   1723 B7                 7417 	or	a,a
   1724 CA 73 17           7418 	jp	z,00102$
                           7419 ;	src/ScriptRunner_b.c 1057
                           7420 ;	genMult
                           7421 ;	AOP_HL for _script_actor
                           7422 ;	AOP_STK for _Script_ActorSetPosRel_b_sloc0_1_0
   1727 21 00 00           7423 	ld	hl,#_script_actor
   172A 5E                 7424 	ld	e,(hl)
   172B 16 00              7425 	ld	d,#0x00
   172D 6B                 7426 	ld	l,e
   172E 62                 7427 	ld	h,d
   172F 29                 7428 	add	hl,hl
   1730 29                 7429 	add	hl,hl
   1731 19                 7430 	add	hl,de
   1732 29                 7431 	add	hl,hl
   1733 19                 7432 	add	hl,de
   1734 29                 7433 	add	hl,hl
   1735 7D                 7434 	ld	a,l
   1736 54                 7435 	ld	d,h
   1737 F8 02              7436 	lda	hl,2(sp)
   1739 22                 7437 	ld	(hl+),a
   173A 72                 7438 	ld	(hl),d
                           7439 ;	genPlus
                           7440 ;	AOP_STK for _Script_ActorSetPosRel_b_sloc0_1_0
                           7441 ;	AOP_STK for _Script_ActorSetPosRel_b_sloc1_1_0
                           7442 ;	Can't optimise plus by inc, falling back to the normal way
   173B 11 00 00           7443 	ld	de,#_actors
   173E 2B                 7444 	dec	hl
   173F 2A                 7445 	ld	a,(hl+)
   1740 66                 7446 	ld	h,(hl)
   1741 6F                 7447 	ld	l,a
   1742 19                 7448 	add	hl,de
   1743 7D                 7449 	ld	a,l
   1744 54                 7450 	ld	d,h
   1745 F8 00              7451 	lda	hl,0(sp)
   1747 22                 7452 	ld	(hl+),a
   1748 72                 7453 	ld	(hl),d
                           7454 ;	genPlus
                           7455 ;	AOP_STK for _Script_ActorSetPosRel_b_sloc1_1_0
                           7456 ;	AOP_STK for _Script_ActorSetPosRel_b_sloc0_1_0
                           7457 ;	genPlusIncr
                           7458 ;	Can't optimise plus by inc, falling back to the normal way
   1749 2B                 7459 	dec	hl
   174A 5E                 7460 	ld	e,(hl)
   174B 23                 7461 	inc	hl
   174C 56                 7462 	ld	d,(hl)
   174D 21 01 00           7463 	ld	hl,#0x0001
   1750 19                 7464 	add	hl,de
   1751 7D                 7465 	ld	a,l
   1752 54                 7466 	ld	d,h
   1753 F8 02              7467 	lda	hl,2(sp)
                           7468 ;	genPointerGet
                           7469 ;	AOP_STK for _Script_ActorSetPosRel_b_sloc0_1_0
   1755 22                 7470 	ld	(hl+),a
   1756 72                 7471 	ld	(hl),d
   1757 5F                 7472 	ld	e,a
   1758 1A                 7473 	ld	a,(de)
   1759 47                 7474 	ld	b,a
                           7475 ;	genLeftShift
                           7476 ;	AOP_STK for _Script_ActorSetPosRel_b_sloc1_1_0
   175A 79                 7477 	ld	a,c
   175B CB 27              7478 	sla	a
   175D CB 17              7479 	rl	a
   175F CB 17              7480 	rl	a
   1761 E6 F8              7481 	and	a,#0xF8
   1763 F8 00              7482 	lda	hl,0(sp)
   1765 77                 7483 	ld	(hl),a
                           7484 ;	genMinus
                           7485 ;	AOP_STK for _Script_ActorSetPosRel_b_sloc1_1_0
   1766 78                 7486 	ld	a,b
   1767 96                 7487 	sub	a,(hl)
   1768 47                 7488 	ld	b,a
                           7489 ;	genAssign (pointer)
                           7490 ;	AOP_STK for _Script_ActorSetPosRel_b_sloc0_1_0
   1769 23                 7491 	inc	hl
   176A 23                 7492 	inc	hl
   176B 5E                 7493 	ld	e,(hl)
   176C 23                 7494 	inc	hl
   176D 56                 7495 	ld	d,(hl)
   176E 78                 7496 	ld	a,b
   176F 12                 7497 	ld	(de),a
                           7498 ;	genGoto
   1770 C3 B7 17           7499 	jp	00105$
                           7500 ;	genLabel
   1773                    7501 00102$:
                           7502 ;	src/ScriptRunner_b.c 1061
                           7503 ;	genMult
                           7504 ;	AOP_HL for _script_actor
                           7505 ;	AOP_STK for _Script_ActorSetPosRel_b_sloc1_1_0
   1773 21 00 00           7506 	ld	hl,#_script_actor
   1776 5E                 7507 	ld	e,(hl)
   1777 16 00              7508 	ld	d,#0x00
   1779 6B                 7509 	ld	l,e
   177A 62                 7510 	ld	h,d
   177B 29                 7511 	add	hl,hl
   177C 29                 7512 	add	hl,hl
   177D 19                 7513 	add	hl,de
   177E 29                 7514 	add	hl,hl
   177F 19                 7515 	add	hl,de
   1780 29                 7516 	add	hl,hl
   1781 7D                 7517 	ld	a,l
   1782 54                 7518 	ld	d,h
   1783 F8 00              7519 	lda	hl,0(sp)
   1785 22                 7520 	ld	(hl+),a
   1786 72                 7521 	ld	(hl),d
                           7522 ;	genPlus
                           7523 ;	AOP_STK for _Script_ActorSetPosRel_b_sloc1_1_0
                           7524 ;	AOP_STK for _Script_ActorSetPosRel_b_sloc0_1_0
                           7525 ;	Can't optimise plus by inc, falling back to the normal way
   1787 11 00 00           7526 	ld	de,#_actors
   178A 2B                 7527 	dec	hl
   178B 2A                 7528 	ld	a,(hl+)
   178C 66                 7529 	ld	h,(hl)
   178D 6F                 7530 	ld	l,a
   178E 19                 7531 	add	hl,de
   178F 7D                 7532 	ld	a,l
   1790 54                 7533 	ld	d,h
   1791 F8 02              7534 	lda	hl,2(sp)
   1793 22                 7535 	ld	(hl+),a
   1794 72                 7536 	ld	(hl),d
                           7537 ;	genPlus
                           7538 ;	AOP_STK for _Script_ActorSetPosRel_b_sloc0_1_0
                           7539 ;	AOP_STK for _Script_ActorSetPosRel_b_sloc1_1_0
                           7540 ;	genPlusIncr
                           7541 ;	Can't optimise plus by inc, falling back to the normal way
   1795 2B                 7542 	dec	hl
   1796 5E                 7543 	ld	e,(hl)
   1797 23                 7544 	inc	hl
   1798 56                 7545 	ld	d,(hl)
   1799 21 01 00           7546 	ld	hl,#0x0001
   179C 19                 7547 	add	hl,de
   179D 7D                 7548 	ld	a,l
   179E 54                 7549 	ld	d,h
   179F F8 00              7550 	lda	hl,0(sp)
                           7551 ;	genPointerGet
                           7552 ;	AOP_STK for _Script_ActorSetPosRel_b_sloc1_1_0
   17A1 22                 7553 	ld	(hl+),a
   17A2 72                 7554 	ld	(hl),d
   17A3 5F                 7555 	ld	e,a
   17A4 1A                 7556 	ld	a,(de)
   17A5 47                 7557 	ld	b,a
                           7558 ;	genLeftShift
   17A6 79                 7559 	ld	a,c
   17A7 CB 27              7560 	sla	a
   17A9 CB 17              7561 	rl	a
   17AB CB 17              7562 	rl	a
   17AD E6 F8              7563 	and	a,#0xF8
   17AF 4F                 7564 	ld	c,a
                           7565 ;	genPlus
                           7566 ;	Can't optimise plus by inc, falling back to the normal way
   17B0 78                 7567 	ld	a,b
   17B1 81                 7568 	add	a,c
                           7569 ;	genAssign (pointer)
                           7570 ;	AOP_STK for _Script_ActorSetPosRel_b_sloc1_1_0
   17B2 2B                 7571 	dec	hl
   17B3 5E                 7572 	ld	e,(hl)
   17B4 23                 7573 	inc	hl
   17B5 56                 7574 	ld	d,(hl)
   17B6 12                 7575 	ld	(de),a
                           7576 ;	genLabel
   17B7                    7577 00105$:
                           7578 ;	src/ScriptRunner_b.c 1065
                           7579 ;	genPlus
                           7580 ;	genPlusIncr
   17B7 01 02 00           7581 	ld	bc,#_script_cmd_args + 2
                           7582 ;	genPointerGet
   17BA 0A                 7583 	ld	a,(bc)
                           7584 ;	genCmpEq
                           7585 ; genCmpEq: left 1, right 1, result 0
   17BB 4F                 7586 	ld	c,a
   17BC B7                 7587 	or	a,a
   17BD CA 62 18           7588 	jp	z,00110$
   17C0                    7589 00118$:
                           7590 ;	src/ScriptRunner_b.c 1067
                           7591 ;	genPlus
                           7592 ;	AOP_STK for _Script_ActorSetPosRel_b_sloc1_1_0
                           7593 ;	genPlusIncr
                           7594 ;	Can't optimise plus by inc, falling back to the normal way
   17C0 11 00 00           7595 	ld	de,#_script_cmd_args
   17C3 21 03 00           7596 	ld	hl,#0x0003
   17C6 19                 7597 	add	hl,de
   17C7 7D                 7598 	ld	a,l
   17C8 54                 7599 	ld	d,h
   17C9 F8 00              7600 	lda	hl,0(sp)
                           7601 ;	genPointerGet
                           7602 ;	AOP_STK for _Script_ActorSetPosRel_b_sloc1_1_0
   17CB 22                 7603 	ld	(hl+),a
   17CC 72                 7604 	ld	(hl),d
   17CD 5F                 7605 	ld	e,a
   17CE 1A                 7606 	ld	a,(de)
                           7607 ;	genIfx
   17CF B7                 7608 	or	a,a
   17D0 CA 1E 18           7609 	jp	z,00107$
                           7610 ;	src/ScriptRunner_b.c 1069
                           7611 ;	genMult
                           7612 ;	AOP_HL for _script_actor
                           7613 ;	AOP_STK for _Script_ActorSetPosRel_b_sloc1_1_0
   17D3 21 00 00           7614 	ld	hl,#_script_actor
   17D6 5E                 7615 	ld	e,(hl)
   17D7 16 00              7616 	ld	d,#0x00
   17D9 6B                 7617 	ld	l,e
   17DA 62                 7618 	ld	h,d
   17DB 29                 7619 	add	hl,hl
   17DC 29                 7620 	add	hl,hl
   17DD 19                 7621 	add	hl,de
   17DE 29                 7622 	add	hl,hl
   17DF 19                 7623 	add	hl,de
   17E0 29                 7624 	add	hl,hl
   17E1 7D                 7625 	ld	a,l
   17E2 54                 7626 	ld	d,h
   17E3 F8 00              7627 	lda	hl,0(sp)
   17E5 22                 7628 	ld	(hl+),a
   17E6 72                 7629 	ld	(hl),d
                           7630 ;	genPlus
                           7631 ;	AOP_STK for _Script_ActorSetPosRel_b_sloc1_1_0
                           7632 ;	AOP_STK for _Script_ActorSetPosRel_b_sloc0_1_0
                           7633 ;	Can't optimise plus by inc, falling back to the normal way
   17E7 11 00 00           7634 	ld	de,#_actors
   17EA 2B                 7635 	dec	hl
   17EB 2A                 7636 	ld	a,(hl+)
   17EC 66                 7637 	ld	h,(hl)
   17ED 6F                 7638 	ld	l,a
   17EE 19                 7639 	add	hl,de
   17EF 7D                 7640 	ld	a,l
   17F0 54                 7641 	ld	d,h
   17F1 F8 02              7642 	lda	hl,2(sp)
   17F3 22                 7643 	ld	(hl+),a
   17F4 72                 7644 	ld	(hl),d
                           7645 ;	genPlus
                           7646 ;	AOP_STK for _Script_ActorSetPosRel_b_sloc0_1_0
                           7647 ;	AOP_STK for _Script_ActorSetPosRel_b_sloc1_1_0
                           7648 ;	genPlusIncr
                           7649 ;	Can't optimise plus by inc, falling back to the normal way
   17F5 2B                 7650 	dec	hl
   17F6 5E                 7651 	ld	e,(hl)
   17F7 23                 7652 	inc	hl
   17F8 56                 7653 	ld	d,(hl)
   17F9 21 02 00           7654 	ld	hl,#0x0002
   17FC 19                 7655 	add	hl,de
   17FD 7D                 7656 	ld	a,l
   17FE 54                 7657 	ld	d,h
   17FF F8 00              7658 	lda	hl,0(sp)
                           7659 ;	genPointerGet
                           7660 ;	AOP_STK for _Script_ActorSetPosRel_b_sloc1_1_0
   1801 22                 7661 	ld	(hl+),a
   1802 72                 7662 	ld	(hl),d
   1803 5F                 7663 	ld	e,a
   1804 1A                 7664 	ld	a,(de)
   1805 47                 7665 	ld	b,a
                           7666 ;	genLeftShift
                           7667 ;	AOP_STK for _Script_ActorSetPosRel_b_sloc0_1_0
   1806 79                 7668 	ld	a,c
   1807 CB 27              7669 	sla	a
   1809 CB 17              7670 	rl	a
   180B CB 17              7671 	rl	a
   180D E6 F8              7672 	and	a,#0xF8
   180F 23                 7673 	inc	hl
   1810 77                 7674 	ld	(hl),a
                           7675 ;	genMinus
                           7676 ;	AOP_STK for _Script_ActorSetPosRel_b_sloc0_1_0
   1811 78                 7677 	ld	a,b
   1812 96                 7678 	sub	a,(hl)
   1813 47                 7679 	ld	b,a
                           7680 ;	genAssign (pointer)
                           7681 ;	AOP_STK for _Script_ActorSetPosRel_b_sloc1_1_0
   1814 2B                 7682 	dec	hl
   1815 2B                 7683 	dec	hl
   1816 5E                 7684 	ld	e,(hl)
   1817 23                 7685 	inc	hl
   1818 56                 7686 	ld	d,(hl)
   1819 78                 7687 	ld	a,b
   181A 12                 7688 	ld	(de),a
                           7689 ;	genGoto
   181B C3 62 18           7690 	jp	00110$
                           7691 ;	genLabel
   181E                    7692 00107$:
                           7693 ;	src/ScriptRunner_b.c 1073
                           7694 ;	genMult
                           7695 ;	AOP_HL for _script_actor
                           7696 ;	AOP_STK for _Script_ActorSetPosRel_b_sloc1_1_0
   181E 21 00 00           7697 	ld	hl,#_script_actor
   1821 5E                 7698 	ld	e,(hl)
   1822 16 00              7699 	ld	d,#0x00
   1824 6B                 7700 	ld	l,e
   1825 62                 7701 	ld	h,d
   1826 29                 7702 	add	hl,hl
   1827 29                 7703 	add	hl,hl
   1828 19                 7704 	add	hl,de
   1829 29                 7705 	add	hl,hl
   182A 19                 7706 	add	hl,de
   182B 29                 7707 	add	hl,hl
   182C 7D                 7708 	ld	a,l
   182D 54                 7709 	ld	d,h
   182E F8 00              7710 	lda	hl,0(sp)
   1830 22                 7711 	ld	(hl+),a
   1831 72                 7712 	ld	(hl),d
                           7713 ;	genPlus
                           7714 ;	AOP_STK for _Script_ActorSetPosRel_b_sloc1_1_0
                           7715 ;	AOP_STK for _Script_ActorSetPosRel_b_sloc0_1_0
                           7716 ;	Can't optimise plus by inc, falling back to the normal way
   1832 11 00 00           7717 	ld	de,#_actors
   1835 2B                 7718 	dec	hl
   1836 2A                 7719 	ld	a,(hl+)
   1837 66                 7720 	ld	h,(hl)
   1838 6F                 7721 	ld	l,a
   1839 19                 7722 	add	hl,de
   183A 7D                 7723 	ld	a,l
   183B 54                 7724 	ld	d,h
   183C F8 02              7725 	lda	hl,2(sp)
   183E 22                 7726 	ld	(hl+),a
   183F 72                 7727 	ld	(hl),d
                           7728 ;	genPlus
                           7729 ;	AOP_STK for _Script_ActorSetPosRel_b_sloc0_1_0
                           7730 ;	AOP_STK for _Script_ActorSetPosRel_b_sloc1_1_0
                           7731 ;	genPlusIncr
                           7732 ;	Can't optimise plus by inc, falling back to the normal way
   1840 2B                 7733 	dec	hl
   1841 5E                 7734 	ld	e,(hl)
   1842 23                 7735 	inc	hl
   1843 56                 7736 	ld	d,(hl)
   1844 21 02 00           7737 	ld	hl,#0x0002
   1847 19                 7738 	add	hl,de
   1848 7D                 7739 	ld	a,l
   1849 54                 7740 	ld	d,h
   184A F8 00              7741 	lda	hl,0(sp)
                           7742 ;	genPointerGet
                           7743 ;	AOP_STK for _Script_ActorSetPosRel_b_sloc1_1_0
   184C 22                 7744 	ld	(hl+),a
   184D 72                 7745 	ld	(hl),d
   184E 5F                 7746 	ld	e,a
   184F 1A                 7747 	ld	a,(de)
   1850 47                 7748 	ld	b,a
                           7749 ;	genLeftShift
   1851 79                 7750 	ld	a,c
   1852 CB 27              7751 	sla	a
   1854 CB 17              7752 	rl	a
   1856 CB 17              7753 	rl	a
   1858 E6 F8              7754 	and	a,#0xF8
   185A 4F                 7755 	ld	c,a
                           7756 ;	genPlus
                           7757 ;	Can't optimise plus by inc, falling back to the normal way
   185B 78                 7758 	ld	a,b
   185C 81                 7759 	add	a,c
                           7760 ;	genAssign (pointer)
                           7761 ;	AOP_STK for _Script_ActorSetPosRel_b_sloc1_1_0
   185D 2B                 7762 	dec	hl
   185E 5E                 7763 	ld	e,(hl)
   185F 23                 7764 	inc	hl
   1860 56                 7765 	ld	d,(hl)
   1861 12                 7766 	ld	(de),a
                           7767 ;	genLabel
   1862                    7768 00110$:
                           7769 ;	src/ScriptRunner_b.c 1077
                           7770 ;	genPlus
                           7771 ;	AOP_HL for _script_cmd_args_len
                           7772 ;	genPlusIncr
   1862 21 00 00           7773 	ld	hl,#_script_cmd_args_len
   1865 4E                 7774 	ld	c,(hl)
   1866 0C                 7775 	inc	c
                           7776 ;	genCast
                           7777 ; Removed redundent load
   1867 06 00              7778 	ld	b,#0x00
                           7779 ;	genPlus
                           7780 ;	AOP_HL for _script_ptr
                           7781 ;	Can't optimise plus by inc, falling back to the normal way
   1869 21 00 00           7782 	ld	hl,#_script_ptr
   186C 7E                 7783 	ld	a,(hl)
   186D 81                 7784 	add	a,c
   186E 22                 7785 	ld	(hl+),a
   186F 7E                 7786 	ld	a,(hl)
   1870 88                 7787 	adc	a,b
   1871 77                 7788 	ld	(hl),a
                           7789 ;	src/ScriptRunner_b.c 1078
                           7790 ;	genAssign
                           7791 ;	AOP_HL for _script_continue
   1872 21 00 00           7792 	ld	hl,#_script_continue
   1875 36 01              7793 	ld	(hl),#0x01
                           7794 ;	genLabel
   1877                    7795 00111$:
                           7796 ;	genEndFunction
   1877 E8 04              7797 	lda	sp,4(sp)
   1879 C9                 7798 	ret
   187A                    7799 ___Script_ActorSetPosRel_b_end:
                           7800 ;	src/ScriptRunner_b.c 1090
                           7801 ;	genLabel
                           7802 ;	genFunction
                           7803 ;	---------------------------------
                           7804 ; Function Script_MathAdd_b
                           7805 ; ---------------------------------
   187A                    7806 ___Script_MathAdd_b_start:
   187A                    7807 _Script_MathAdd_b:
   187A E8 FB              7808 	lda	sp,-5(sp)
                           7809 ;	src/ScriptRunner_b.c 1092
                           7810 ;	genPointerGet
   187C 11 00 00           7811 	ld	de,#_script_cmd_args
   187F 1A                 7812 	ld	a,(de)
   1880 4F                 7813 	ld	c,a
                           7814 ;	genCast
                           7815 ; Removed redundent load
   1881 06 00              7816 	ld	b,#0x00
                           7817 ;	genLeftShift
   1883 41                 7818 	ld	b,c
   1884 0E 00              7819 	ld	c,#0x00
                           7820 ;	genPlus
                           7821 ;	AOP_STK for _Script_MathAdd_b_sloc0_1_0
                           7822 ;	genPlusIncr
                           7823 ;	Can't optimise plus by inc, falling back to the normal way
   1886 11 00 00           7824 	ld	de,#_script_cmd_args
   1889 21 01 00           7825 	ld	hl,#0x0001
   188C 19                 7826 	add	hl,de
   188D 7D                 7827 	ld	a,l
   188E 54                 7828 	ld	d,h
   188F F8 01              7829 	lda	hl,1(sp)
                           7830 ;	genPointerGet
                           7831 ;	AOP_STK for _Script_MathAdd_b_sloc0_1_0
                           7832 ;	AOP_STK for _Script_MathAdd_b_sloc1_1_0
   1891 22                 7833 	ld	(hl+),a
   1892 72                 7834 	ld	(hl),d
   1893 5F                 7835 	ld	e,a
   1894 1A                 7836 	ld	a,(de)
   1895 2B                 7837 	dec	hl
   1896 2B                 7838 	dec	hl
   1897 77                 7839 	ld	(hl),a
                           7840 ;	genCast
                           7841 ;	AOP_STK for _Script_MathAdd_b_sloc1_1_0
                           7842 ;	AOP_STK for _Script_MathAdd_b_sloc0_1_0
   1898 2A                 7843 	ld	a,(hl+)
   1899 22                 7844 	ld	(hl+),a
   189A 36 00              7845 	ld	(hl),#0x00
                           7846 ;	genPlus
                           7847 ;	AOP_STK for _Script_MathAdd_b_sloc0_1_0
                           7848 ;	Can't optimise plus by inc, falling back to the normal way
   189C 2B                 7849 	dec	hl
   189D 2A                 7850 	ld	a,(hl+)
   189E 66                 7851 	ld	h,(hl)
   189F 6F                 7852 	ld	l,a
   18A0 09                 7853 	add	hl,bc
   18A1 4D                 7854 	ld	c,l
   18A2 44                 7855 	ld	b,h
                           7856 ;	genAssign
                           7857 ;	(registers are the same)
                           7858 ;	src/ScriptRunner_b.c 1093
                           7859 ;	genPlus
                           7860 ;	Can't optimise plus by inc, falling back to the normal way
   18A3 21 00 00           7861 	ld	hl,#_script_variables
   18A6 09                 7862 	add	hl,bc
   18A7 4D                 7863 	ld	c,l
   18A8 44                 7864 	ld	b,h
                           7865 ;	genPointerGet
                           7866 ;	AOP_STK for _Script_MathAdd_b_a_1_1
   18A9 0A                 7867 	ld	a,(bc)
   18AA F8 04              7868 	lda	hl,4(sp)
   18AC 77                 7869 	ld	(hl),a
                           7870 ;	genAssign
                           7871 ;	AOP_STK for _Script_MathAdd_b_a_1_1
                           7872 ;	(registers are the same)
                           7873 ;	src/ScriptRunner_b.c 1094
                           7874 ;	genPlus
                           7875 ;	AOP_STK for _Script_MathAdd_b_sloc0_1_0
                           7876 ;	genPlusIncr
                           7877 ;	Can't optimise plus by inc, falling back to the normal way
   18AD 11 00 00           7878 	ld	de,#_script_cmd_args
   18B0 21 02 00           7879 	ld	hl,#0x0002
   18B3 19                 7880 	add	hl,de
   18B4 7D                 7881 	ld	a,l
   18B5 54                 7882 	ld	d,h
   18B6 F8 01              7883 	lda	hl,1(sp)
                           7884 ;	genPointerGet
                           7885 ;	AOP_STK for _Script_MathAdd_b_sloc0_1_0
                           7886 ;	AOP_STK for _Script_MathAdd_b_b_1_1
   18B8 22                 7887 	ld	(hl+),a
   18B9 72                 7888 	ld	(hl),d
   18BA 5F                 7889 	ld	e,a
   18BB 1A                 7890 	ld	a,(de)
   18BC 23                 7891 	inc	hl
                           7892 ;	genAssign
                           7893 ;	AOP_STK for _Script_MathAdd_b_b_1_1
                           7894 ;	(registers are the same)
                           7895 ;	src/ScriptRunner_b.c 1095
                           7896 ;	genPlus
                           7897 ;	AOP_STK for _Script_MathAdd_b_a_1_1
                           7898 ;	AOP_STK for _Script_MathAdd_b_b_1_1
                           7899 ;	Can't optimise plus by inc, falling back to the normal way
   18BD 22                 7900 	ld	(hl+),a
   18BE 7E                 7901 	ld	a,(hl)
   18BF 2B                 7902 	dec	hl
   18C0 86                 7903 	add	a,(hl)
                           7904 ;	genAssign (pointer)
   18C1 02                 7905 	ld	(bc),a
                           7906 ;	src/ScriptRunner_b.c 1096
                           7907 ;	genPlus
                           7908 ;	AOP_HL for _script_cmd_args_len
                           7909 ;	genPlusIncr
   18C2 21 00 00           7910 	ld	hl,#_script_cmd_args_len
   18C5 4E                 7911 	ld	c,(hl)
   18C6 0C                 7912 	inc	c
                           7913 ;	genCast
                           7914 ; Removed redundent load
   18C7 06 00              7915 	ld	b,#0x00
                           7916 ;	genPlus
                           7917 ;	AOP_HL for _script_ptr
                           7918 ;	Can't optimise plus by inc, falling back to the normal way
   18C9 21 00 00           7919 	ld	hl,#_script_ptr
   18CC 7E                 7920 	ld	a,(hl)
   18CD 81                 7921 	add	a,c
   18CE 22                 7922 	ld	(hl+),a
   18CF 7E                 7923 	ld	a,(hl)
   18D0 88                 7924 	adc	a,b
   18D1 77                 7925 	ld	(hl),a
                           7926 ;	src/ScriptRunner_b.c 1097
                           7927 ;	genAssign
                           7928 ;	AOP_HL for _script_continue
   18D2 21 00 00           7929 	ld	hl,#_script_continue
   18D5 36 01              7930 	ld	(hl),#0x01
                           7931 ;	genLabel
   18D7                    7932 00101$:
                           7933 ;	genEndFunction
   18D7 E8 05              7934 	lda	sp,5(sp)
   18D9 C9                 7935 	ret
   18DA                    7936 ___Script_MathAdd_b_end:
                           7937 ;	src/ScriptRunner_b.c 1109
                           7938 ;	genLabel
                           7939 ;	genFunction
                           7940 ;	---------------------------------
                           7941 ; Function Script_MathSub_b
                           7942 ; ---------------------------------
   18DA                    7943 ___Script_MathSub_b_start:
   18DA                    7944 _Script_MathSub_b:
   18DA E8 FB              7945 	lda	sp,-5(sp)
                           7946 ;	src/ScriptRunner_b.c 1111
                           7947 ;	genPointerGet
   18DC 11 00 00           7948 	ld	de,#_script_cmd_args
   18DF 1A                 7949 	ld	a,(de)
   18E0 4F                 7950 	ld	c,a
                           7951 ;	genCast
                           7952 ; Removed redundent load
   18E1 06 00              7953 	ld	b,#0x00
                           7954 ;	genLeftShift
   18E3 41                 7955 	ld	b,c
   18E4 0E 00              7956 	ld	c,#0x00
                           7957 ;	genPlus
                           7958 ;	AOP_STK for _Script_MathSub_b_sloc0_1_0
                           7959 ;	genPlusIncr
                           7960 ;	Can't optimise plus by inc, falling back to the normal way
   18E6 11 00 00           7961 	ld	de,#_script_cmd_args
   18E9 21 01 00           7962 	ld	hl,#0x0001
   18EC 19                 7963 	add	hl,de
   18ED 7D                 7964 	ld	a,l
   18EE 54                 7965 	ld	d,h
   18EF F8 01              7966 	lda	hl,1(sp)
                           7967 ;	genPointerGet
                           7968 ;	AOP_STK for _Script_MathSub_b_sloc0_1_0
                           7969 ;	AOP_STK for _Script_MathSub_b_sloc1_1_0
   18F1 22                 7970 	ld	(hl+),a
   18F2 72                 7971 	ld	(hl),d
   18F3 5F                 7972 	ld	e,a
   18F4 1A                 7973 	ld	a,(de)
   18F5 2B                 7974 	dec	hl
   18F6 2B                 7975 	dec	hl
   18F7 77                 7976 	ld	(hl),a
                           7977 ;	genCast
                           7978 ;	AOP_STK for _Script_MathSub_b_sloc1_1_0
                           7979 ;	AOP_STK for _Script_MathSub_b_sloc0_1_0
   18F8 2A                 7980 	ld	a,(hl+)
   18F9 22                 7981 	ld	(hl+),a
   18FA 36 00              7982 	ld	(hl),#0x00
                           7983 ;	genPlus
                           7984 ;	AOP_STK for _Script_MathSub_b_sloc0_1_0
                           7985 ;	Can't optimise plus by inc, falling back to the normal way
   18FC 2B                 7986 	dec	hl
   18FD 2A                 7987 	ld	a,(hl+)
   18FE 66                 7988 	ld	h,(hl)
   18FF 6F                 7989 	ld	l,a
   1900 09                 7990 	add	hl,bc
   1901 4D                 7991 	ld	c,l
   1902 44                 7992 	ld	b,h
                           7993 ;	genAssign
                           7994 ;	(registers are the same)
                           7995 ;	src/ScriptRunner_b.c 1112
                           7996 ;	genPlus
                           7997 ;	Can't optimise plus by inc, falling back to the normal way
   1903 21 00 00           7998 	ld	hl,#_script_variables
   1906 09                 7999 	add	hl,bc
   1907 4D                 8000 	ld	c,l
   1908 44                 8001 	ld	b,h
                           8002 ;	genPointerGet
                           8003 ;	AOP_STK for _Script_MathSub_b_a_1_1
   1909 0A                 8004 	ld	a,(bc)
   190A F8 04              8005 	lda	hl,4(sp)
   190C 77                 8006 	ld	(hl),a
                           8007 ;	genAssign
                           8008 ;	AOP_STK for _Script_MathSub_b_a_1_1
                           8009 ;	(registers are the same)
                           8010 ;	src/ScriptRunner_b.c 1113
                           8011 ;	genPlus
                           8012 ;	AOP_STK for _Script_MathSub_b_sloc0_1_0
                           8013 ;	genPlusIncr
                           8014 ;	Can't optimise plus by inc, falling back to the normal way
   190D 11 00 00           8015 	ld	de,#_script_cmd_args
   1910 21 02 00           8016 	ld	hl,#0x0002
   1913 19                 8017 	add	hl,de
   1914 7D                 8018 	ld	a,l
   1915 54                 8019 	ld	d,h
   1916 F8 01              8020 	lda	hl,1(sp)
                           8021 ;	genPointerGet
                           8022 ;	AOP_STK for _Script_MathSub_b_sloc0_1_0
                           8023 ;	AOP_STK for _Script_MathSub_b_b_1_1
   1918 22                 8024 	ld	(hl+),a
   1919 72                 8025 	ld	(hl),d
   191A 5F                 8026 	ld	e,a
   191B 1A                 8027 	ld	a,(de)
   191C 23                 8028 	inc	hl
                           8029 ;	genAssign
                           8030 ;	AOP_STK for _Script_MathSub_b_b_1_1
                           8031 ;	(registers are the same)
                           8032 ;	src/ScriptRunner_b.c 1114
                           8033 ;	genMinus
                           8034 ;	AOP_STK for _Script_MathSub_b_a_1_1
                           8035 ;	AOP_STK for _Script_MathSub_b_b_1_1
                           8036 ;	AOP_STK for _Script_MathSub_b_sloc1_1_0
   191D 22                 8037 	ld	(hl+),a
   191E 7E                 8038 	ld	a,(hl)
   191F 2B                 8039 	dec	hl
   1920 96                 8040 	sub	a,(hl)
   1921 F8 00              8041 	lda	hl,0(sp)
                           8042 ;	genAssign (pointer)
                           8043 ;	AOP_STK for _Script_MathSub_b_sloc1_1_0
   1923 77                 8044 	ld      (hl),a
   1924 7F                 8045 	ld      a,a
   1925 02                 8046 	ld	(bc),a
                           8047 ;	src/ScriptRunner_b.c 1115
                           8048 ;	genPlus
                           8049 ;	AOP_HL for _script_cmd_args_len
                           8050 ;	genPlusIncr
   1926 21 00 00           8051 	ld	hl,#_script_cmd_args_len
   1929 4E                 8052 	ld	c,(hl)
   192A 0C                 8053 	inc	c
                           8054 ;	genCast
                           8055 ; Removed redundent load
   192B 06 00              8056 	ld	b,#0x00
                           8057 ;	genPlus
                           8058 ;	AOP_HL for _script_ptr
                           8059 ;	Can't optimise plus by inc, falling back to the normal way
   192D 21 00 00           8060 	ld	hl,#_script_ptr
   1930 7E                 8061 	ld	a,(hl)
   1931 81                 8062 	add	a,c
   1932 22                 8063 	ld	(hl+),a
   1933 7E                 8064 	ld	a,(hl)
   1934 88                 8065 	adc	a,b
   1935 77                 8066 	ld	(hl),a
                           8067 ;	src/ScriptRunner_b.c 1116
                           8068 ;	genAssign
                           8069 ;	AOP_HL for _script_continue
   1936 21 00 00           8070 	ld	hl,#_script_continue
   1939 36 01              8071 	ld	(hl),#0x01
                           8072 ;	genLabel
   193B                    8073 00101$:
                           8074 ;	genEndFunction
   193B E8 05              8075 	lda	sp,5(sp)
   193D C9                 8076 	ret
   193E                    8077 ___Script_MathSub_b_end:
                           8078 ;	src/ScriptRunner_b.c 1128
                           8079 ;	genLabel
                           8080 ;	genFunction
                           8081 ;	---------------------------------
                           8082 ; Function Script_MathMul_b
                           8083 ; ---------------------------------
   193E                    8084 ___Script_MathMul_b_start:
   193E                    8085 _Script_MathMul_b:
   193E E8 FB              8086 	lda	sp,-5(sp)
                           8087 ;	src/ScriptRunner_b.c 1130
                           8088 ;	genPointerGet
   1940 11 00 00           8089 	ld	de,#_script_cmd_args
   1943 1A                 8090 	ld	a,(de)
   1944 4F                 8091 	ld	c,a
                           8092 ;	genCast
                           8093 ; Removed redundent load
   1945 06 00              8094 	ld	b,#0x00
                           8095 ;	genLeftShift
   1947 41                 8096 	ld	b,c
   1948 0E 00              8097 	ld	c,#0x00
                           8098 ;	genPlus
                           8099 ;	AOP_STK for _Script_MathMul_b_sloc0_1_0
                           8100 ;	genPlusIncr
                           8101 ;	Can't optimise plus by inc, falling back to the normal way
   194A 11 00 00           8102 	ld	de,#_script_cmd_args
   194D 21 01 00           8103 	ld	hl,#0x0001
   1950 19                 8104 	add	hl,de
   1951 7D                 8105 	ld	a,l
   1952 54                 8106 	ld	d,h
   1953 F8 01              8107 	lda	hl,1(sp)
                           8108 ;	genPointerGet
                           8109 ;	AOP_STK for _Script_MathMul_b_sloc0_1_0
                           8110 ;	AOP_STK for _Script_MathMul_b_sloc1_1_0
   1955 22                 8111 	ld	(hl+),a
   1956 72                 8112 	ld	(hl),d
   1957 5F                 8113 	ld	e,a
   1958 1A                 8114 	ld	a,(de)
   1959 2B                 8115 	dec	hl
   195A 2B                 8116 	dec	hl
   195B 77                 8117 	ld	(hl),a
                           8118 ;	genCast
                           8119 ;	AOP_STK for _Script_MathMul_b_sloc1_1_0
                           8120 ;	AOP_STK for _Script_MathMul_b_sloc0_1_0
   195C 2A                 8121 	ld	a,(hl+)
   195D 22                 8122 	ld	(hl+),a
   195E 36 00              8123 	ld	(hl),#0x00
                           8124 ;	genPlus
                           8125 ;	AOP_STK for _Script_MathMul_b_sloc0_1_0
                           8126 ;	Can't optimise plus by inc, falling back to the normal way
   1960 2B                 8127 	dec	hl
   1961 2A                 8128 	ld	a,(hl+)
   1962 66                 8129 	ld	h,(hl)
   1963 6F                 8130 	ld	l,a
   1964 09                 8131 	add	hl,bc
   1965 4D                 8132 	ld	c,l
   1966 44                 8133 	ld	b,h
                           8134 ;	genAssign
                           8135 ;	(registers are the same)
                           8136 ;	src/ScriptRunner_b.c 1131
                           8137 ;	genPlus
                           8138 ;	Can't optimise plus by inc, falling back to the normal way
   1967 21 00 00           8139 	ld	hl,#_script_variables
   196A 09                 8140 	add	hl,bc
   196B 4D                 8141 	ld	c,l
   196C 44                 8142 	ld	b,h
                           8143 ;	genPointerGet
                           8144 ;	AOP_STK for _Script_MathMul_b_a_1_1
   196D 0A                 8145 	ld	a,(bc)
   196E F8 04              8146 	lda	hl,4(sp)
   1970 77                 8147 	ld	(hl),a
                           8148 ;	genAssign
                           8149 ;	AOP_STK for _Script_MathMul_b_a_1_1
                           8150 ;	(registers are the same)
                           8151 ;	src/ScriptRunner_b.c 1132
                           8152 ;	genPlus
                           8153 ;	AOP_STK for _Script_MathMul_b_sloc0_1_0
                           8154 ;	genPlusIncr
                           8155 ;	Can't optimise plus by inc, falling back to the normal way
   1971 11 00 00           8156 	ld	de,#_script_cmd_args
   1974 21 02 00           8157 	ld	hl,#0x0002
   1977 19                 8158 	add	hl,de
   1978 7D                 8159 	ld	a,l
   1979 54                 8160 	ld	d,h
   197A F8 01              8161 	lda	hl,1(sp)
                           8162 ;	genPointerGet
                           8163 ;	AOP_STK for _Script_MathMul_b_sloc0_1_0
                           8164 ;	AOP_STK for _Script_MathMul_b_b_1_1
   197C 22                 8165 	ld	(hl+),a
   197D 72                 8166 	ld	(hl),d
   197E 5F                 8167 	ld	e,a
   197F 1A                 8168 	ld	a,(de)
   1980 23                 8169 	inc	hl
   1981 77                 8170 	ld	(hl),a
                           8171 ;	genAssign
                           8172 ;	AOP_STK for _Script_MathMul_b_b_1_1
                           8173 ;	(registers are the same)
                           8174 ;	src/ScriptRunner_b.c 1133
                           8175 ;	genIpush
                           8176 ; _saveRegsForCall: sendSetSize: 0 deInUse: 0 bcInUse: 1 deSending: 0
   1982 C5                 8177 	push	bc
                           8178 ;	AOP_STK for _Script_MathMul_b_b_1_1
   1983 7E                 8179 	ld	a,(hl)
   1984 F5                 8180 	push	af
   1985 33                 8181 	inc	sp
                           8182 ;	genIpush
                           8183 ;	AOP_STK for _Script_MathMul_b_a_1_1
   1986 23                 8184 	inc	hl
   1987 7E                 8185 	ld	a,(hl)
   1988 F5                 8186 	push	af
   1989 33                 8187 	inc	sp
                           8188 ;	genCall
   198A CD 00 00           8189 	call	__muluchar_rrx_s
                           8190 ;	AOP_STK for _Script_MathMul_b_sloc0_1_0
   198D F8 06              8191 	lda	hl,6(sp)
   198F 72                 8192 	ld	(hl),d
   1990 2B                 8193 	dec	hl
   1991 73                 8194 	ld	(hl),e
   1992 E8 02              8195 	lda	sp,2(sp)
   1994 C1                 8196 	pop	bc
                           8197 ;	genCast
                           8198 ;	AOP_STK for _Script_MathMul_b_sloc0_1_0
   1995 F8 01              8199 	lda	hl,1(sp)
   1997 7E                 8200 	ld	a,(hl)
                           8201 ;	genAssign (pointer)
   1998 02                 8202 	ld	(bc),a
                           8203 ;	src/ScriptRunner_b.c 1134
                           8204 ;	genPlus
                           8205 ;	AOP_HL for _script_cmd_args_len
                           8206 ;	genPlusIncr
   1999 21 00 00           8207 	ld	hl,#_script_cmd_args_len
   199C 4E                 8208 	ld	c,(hl)
   199D 0C                 8209 	inc	c
                           8210 ;	genCast
                           8211 ; Removed redundent load
   199E 06 00              8212 	ld	b,#0x00
                           8213 ;	genPlus
                           8214 ;	AOP_HL for _script_ptr
                           8215 ;	Can't optimise plus by inc, falling back to the normal way
   19A0 21 00 00           8216 	ld	hl,#_script_ptr
   19A3 7E                 8217 	ld	a,(hl)
   19A4 81                 8218 	add	a,c
   19A5 22                 8219 	ld	(hl+),a
   19A6 7E                 8220 	ld	a,(hl)
   19A7 88                 8221 	adc	a,b
   19A8 77                 8222 	ld	(hl),a
                           8223 ;	src/ScriptRunner_b.c 1135
                           8224 ;	genAssign
                           8225 ;	AOP_HL for _script_continue
   19A9 21 00 00           8226 	ld	hl,#_script_continue
   19AC 36 01              8227 	ld	(hl),#0x01
                           8228 ;	genLabel
   19AE                    8229 00101$:
                           8230 ;	genEndFunction
   19AE E8 05              8231 	lda	sp,5(sp)
   19B0 C9                 8232 	ret
   19B1                    8233 ___Script_MathMul_b_end:
                           8234 ;	src/ScriptRunner_b.c 1147
                           8235 ;	genLabel
                           8236 ;	genFunction
                           8237 ;	---------------------------------
                           8238 ; Function Script_MathDiv_b
                           8239 ; ---------------------------------
   19B1                    8240 ___Script_MathDiv_b_start:
   19B1                    8241 _Script_MathDiv_b:
   19B1 E8 FB              8242 	lda	sp,-5(sp)
                           8243 ;	src/ScriptRunner_b.c 1149
                           8244 ;	genPointerGet
   19B3 11 00 00           8245 	ld	de,#_script_cmd_args
   19B6 1A                 8246 	ld	a,(de)
   19B7 4F                 8247 	ld	c,a
                           8248 ;	genCast
                           8249 ; Removed redundent load
   19B8 06 00              8250 	ld	b,#0x00
                           8251 ;	genLeftShift
   19BA 41                 8252 	ld	b,c
   19BB 0E 00              8253 	ld	c,#0x00
                           8254 ;	genPlus
                           8255 ;	AOP_STK for _Script_MathDiv_b_sloc0_1_0
                           8256 ;	genPlusIncr
                           8257 ;	Can't optimise plus by inc, falling back to the normal way
   19BD 11 00 00           8258 	ld	de,#_script_cmd_args
   19C0 21 01 00           8259 	ld	hl,#0x0001
   19C3 19                 8260 	add	hl,de
   19C4 7D                 8261 	ld	a,l
   19C5 54                 8262 	ld	d,h
   19C6 F8 01              8263 	lda	hl,1(sp)
                           8264 ;	genPointerGet
                           8265 ;	AOP_STK for _Script_MathDiv_b_sloc0_1_0
                           8266 ;	AOP_STK for _Script_MathDiv_b_sloc1_1_0
   19C8 22                 8267 	ld	(hl+),a
   19C9 72                 8268 	ld	(hl),d
   19CA 5F                 8269 	ld	e,a
   19CB 1A                 8270 	ld	a,(de)
   19CC 2B                 8271 	dec	hl
   19CD 2B                 8272 	dec	hl
   19CE 77                 8273 	ld	(hl),a
                           8274 ;	genCast
                           8275 ;	AOP_STK for _Script_MathDiv_b_sloc1_1_0
                           8276 ;	AOP_STK for _Script_MathDiv_b_sloc0_1_0
   19CF 2A                 8277 	ld	a,(hl+)
   19D0 22                 8278 	ld	(hl+),a
   19D1 36 00              8279 	ld	(hl),#0x00
                           8280 ;	genPlus
                           8281 ;	AOP_STK for _Script_MathDiv_b_sloc0_1_0
                           8282 ;	Can't optimise plus by inc, falling back to the normal way
   19D3 2B                 8283 	dec	hl
   19D4 2A                 8284 	ld	a,(hl+)
   19D5 66                 8285 	ld	h,(hl)
   19D6 6F                 8286 	ld	l,a
   19D7 09                 8287 	add	hl,bc
   19D8 4D                 8288 	ld	c,l
   19D9 44                 8289 	ld	b,h
                           8290 ;	genAssign
                           8291 ;	(registers are the same)
                           8292 ;	src/ScriptRunner_b.c 1150
                           8293 ;	genPlus
                           8294 ;	Can't optimise plus by inc, falling back to the normal way
   19DA 21 00 00           8295 	ld	hl,#_script_variables
   19DD 09                 8296 	add	hl,bc
   19DE 4D                 8297 	ld	c,l
   19DF 44                 8298 	ld	b,h
                           8299 ;	genPointerGet
                           8300 ;	AOP_STK for _Script_MathDiv_b_a_1_1
   19E0 0A                 8301 	ld	a,(bc)
   19E1 F8 04              8302 	lda	hl,4(sp)
   19E3 77                 8303 	ld	(hl),a
                           8304 ;	genAssign
                           8305 ;	AOP_STK for _Script_MathDiv_b_a_1_1
                           8306 ;	(registers are the same)
                           8307 ;	src/ScriptRunner_b.c 1151
                           8308 ;	genPlus
                           8309 ;	AOP_STK for _Script_MathDiv_b_sloc0_1_0
                           8310 ;	genPlusIncr
                           8311 ;	Can't optimise plus by inc, falling back to the normal way
   19E4 11 00 00           8312 	ld	de,#_script_cmd_args
   19E7 21 02 00           8313 	ld	hl,#0x0002
   19EA 19                 8314 	add	hl,de
   19EB 7D                 8315 	ld	a,l
   19EC 54                 8316 	ld	d,h
   19ED F8 01              8317 	lda	hl,1(sp)
                           8318 ;	genPointerGet
                           8319 ;	AOP_STK for _Script_MathDiv_b_sloc0_1_0
                           8320 ;	AOP_STK for _Script_MathDiv_b_b_1_1
   19EF 22                 8321 	ld	(hl+),a
   19F0 72                 8322 	ld	(hl),d
   19F1 5F                 8323 	ld	e,a
   19F2 1A                 8324 	ld	a,(de)
   19F3 23                 8325 	inc	hl
   19F4 77                 8326 	ld	(hl),a
                           8327 ;	genAssign
                           8328 ;	AOP_STK for _Script_MathDiv_b_b_1_1
                           8329 ;	(registers are the same)
                           8330 ;	src/ScriptRunner_b.c 1152
                           8331 ;	genIpush
                           8332 ; _saveRegsForCall: sendSetSize: 0 deInUse: 0 bcInUse: 1 deSending: 0
   19F5 C5                 8333 	push	bc
                           8334 ;	AOP_STK for _Script_MathDiv_b_b_1_1
   19F6 7E                 8335 	ld	a,(hl)
   19F7 F5                 8336 	push	af
   19F8 33                 8337 	inc	sp
                           8338 ;	genIpush
                           8339 ;	AOP_STK for _Script_MathDiv_b_a_1_1
   19F9 23                 8340 	inc	hl
   19FA 7E                 8341 	ld	a,(hl)
   19FB F5                 8342 	push	af
   19FC 33                 8343 	inc	sp
                           8344 ;	genCall
   19FD CD 00 00           8345 	call	__divuchar_rrx_s
                           8346 ;	AOP_STK for _Script_MathDiv_b_sloc1_1_0
   1A00 F8 04              8347 	lda	hl,4(sp)
   1A02 73                 8348 	ld	(hl),e
   1A03 E8 02              8349 	lda	sp,2(sp)
   1A05 C1                 8350 	pop	bc
                           8351 ;	genAssign (pointer)
                           8352 ;	AOP_STK for _Script_MathDiv_b_sloc1_1_0
   1A06 F8 00              8353 	lda	hl,0(sp)
   1A08 7E                 8354 	ld	a,(hl)
   1A09 02                 8355 	ld	(bc),a
                           8356 ;	src/ScriptRunner_b.c 1153
                           8357 ;	genPlus
                           8358 ;	AOP_HL for _script_cmd_args_len
                           8359 ;	genPlusIncr
   1A0A 21 00 00           8360 	ld	hl,#_script_cmd_args_len
   1A0D 4E                 8361 	ld	c,(hl)
   1A0E 0C                 8362 	inc	c
                           8363 ;	genCast
                           8364 ; Removed redundent load
   1A0F 06 00              8365 	ld	b,#0x00
                           8366 ;	genPlus
                           8367 ;	AOP_HL for _script_ptr
                           8368 ;	Can't optimise plus by inc, falling back to the normal way
   1A11 21 00 00           8369 	ld	hl,#_script_ptr
   1A14 7E                 8370 	ld	a,(hl)
   1A15 81                 8371 	add	a,c
   1A16 22                 8372 	ld	(hl+),a
   1A17 7E                 8373 	ld	a,(hl)
   1A18 88                 8374 	adc	a,b
   1A19 77                 8375 	ld	(hl),a
                           8376 ;	src/ScriptRunner_b.c 1154
                           8377 ;	genAssign
                           8378 ;	AOP_HL for _script_continue
   1A1A 21 00 00           8379 	ld	hl,#_script_continue
   1A1D 36 01              8380 	ld	(hl),#0x01
                           8381 ;	genLabel
   1A1F                    8382 00101$:
                           8383 ;	genEndFunction
   1A1F E8 05              8384 	lda	sp,5(sp)
   1A21 C9                 8385 	ret
   1A22                    8386 ___Script_MathDiv_b_end:
                           8387 ;	src/ScriptRunner_b.c 1166
                           8388 ;	genLabel
                           8389 ;	genFunction
                           8390 ;	---------------------------------
                           8391 ; Function Script_MathMod_b
                           8392 ; ---------------------------------
   1A22                    8393 ___Script_MathMod_b_start:
   1A22                    8394 _Script_MathMod_b:
   1A22 E8 FB              8395 	lda	sp,-5(sp)
                           8396 ;	src/ScriptRunner_b.c 1168
                           8397 ;	genPointerGet
   1A24 11 00 00           8398 	ld	de,#_script_cmd_args
   1A27 1A                 8399 	ld	a,(de)
   1A28 4F                 8400 	ld	c,a
                           8401 ;	genCast
                           8402 ; Removed redundent load
   1A29 06 00              8403 	ld	b,#0x00
                           8404 ;	genLeftShift
   1A2B 41                 8405 	ld	b,c
   1A2C 0E 00              8406 	ld	c,#0x00
                           8407 ;	genPlus
                           8408 ;	AOP_STK for _Script_MathMod_b_sloc0_1_0
                           8409 ;	genPlusIncr
                           8410 ;	Can't optimise plus by inc, falling back to the normal way
   1A2E 11 00 00           8411 	ld	de,#_script_cmd_args
   1A31 21 01 00           8412 	ld	hl,#0x0001
   1A34 19                 8413 	add	hl,de
   1A35 7D                 8414 	ld	a,l
   1A36 54                 8415 	ld	d,h
   1A37 F8 01              8416 	lda	hl,1(sp)
                           8417 ;	genPointerGet
                           8418 ;	AOP_STK for _Script_MathMod_b_sloc0_1_0
                           8419 ;	AOP_STK for _Script_MathMod_b_sloc1_1_0
   1A39 22                 8420 	ld	(hl+),a
   1A3A 72                 8421 	ld	(hl),d
   1A3B 5F                 8422 	ld	e,a
   1A3C 1A                 8423 	ld	a,(de)
   1A3D 2B                 8424 	dec	hl
   1A3E 2B                 8425 	dec	hl
   1A3F 77                 8426 	ld	(hl),a
                           8427 ;	genCast
                           8428 ;	AOP_STK for _Script_MathMod_b_sloc1_1_0
                           8429 ;	AOP_STK for _Script_MathMod_b_sloc0_1_0
   1A40 2A                 8430 	ld	a,(hl+)
   1A41 22                 8431 	ld	(hl+),a
   1A42 36 00              8432 	ld	(hl),#0x00
                           8433 ;	genPlus
                           8434 ;	AOP_STK for _Script_MathMod_b_sloc0_1_0
                           8435 ;	Can't optimise plus by inc, falling back to the normal way
   1A44 2B                 8436 	dec	hl
   1A45 2A                 8437 	ld	a,(hl+)
   1A46 66                 8438 	ld	h,(hl)
   1A47 6F                 8439 	ld	l,a
   1A48 09                 8440 	add	hl,bc
   1A49 4D                 8441 	ld	c,l
   1A4A 44                 8442 	ld	b,h
                           8443 ;	genAssign
                           8444 ;	(registers are the same)
                           8445 ;	src/ScriptRunner_b.c 1169
                           8446 ;	genPlus
                           8447 ;	Can't optimise plus by inc, falling back to the normal way
   1A4B 21 00 00           8448 	ld	hl,#_script_variables
   1A4E 09                 8449 	add	hl,bc
   1A4F 4D                 8450 	ld	c,l
   1A50 44                 8451 	ld	b,h
                           8452 ;	genPointerGet
                           8453 ;	AOP_STK for _Script_MathMod_b_a_1_1
   1A51 0A                 8454 	ld	a,(bc)
   1A52 F8 04              8455 	lda	hl,4(sp)
   1A54 77                 8456 	ld	(hl),a
                           8457 ;	genAssign
                           8458 ;	AOP_STK for _Script_MathMod_b_a_1_1
                           8459 ;	(registers are the same)
                           8460 ;	src/ScriptRunner_b.c 1170
                           8461 ;	genPlus
                           8462 ;	AOP_STK for _Script_MathMod_b_sloc0_1_0
                           8463 ;	genPlusIncr
                           8464 ;	Can't optimise plus by inc, falling back to the normal way
   1A55 11 00 00           8465 	ld	de,#_script_cmd_args
   1A58 21 02 00           8466 	ld	hl,#0x0002
   1A5B 19                 8467 	add	hl,de
   1A5C 7D                 8468 	ld	a,l
   1A5D 54                 8469 	ld	d,h
   1A5E F8 01              8470 	lda	hl,1(sp)
                           8471 ;	genPointerGet
                           8472 ;	AOP_STK for _Script_MathMod_b_sloc0_1_0
                           8473 ;	AOP_STK for _Script_MathMod_b_b_1_1
   1A60 22                 8474 	ld	(hl+),a
   1A61 72                 8475 	ld	(hl),d
   1A62 5F                 8476 	ld	e,a
   1A63 1A                 8477 	ld	a,(de)
   1A64 23                 8478 	inc	hl
   1A65 77                 8479 	ld	(hl),a
                           8480 ;	genAssign
                           8481 ;	AOP_STK for _Script_MathMod_b_b_1_1
                           8482 ;	(registers are the same)
                           8483 ;	src/ScriptRunner_b.c 1171
                           8484 ;	genIpush
                           8485 ; _saveRegsForCall: sendSetSize: 0 deInUse: 0 bcInUse: 1 deSending: 0
   1A66 C5                 8486 	push	bc
                           8487 ;	AOP_STK for _Script_MathMod_b_b_1_1
   1A67 7E                 8488 	ld	a,(hl)
   1A68 F5                 8489 	push	af
   1A69 33                 8490 	inc	sp
                           8491 ;	genIpush
                           8492 ;	AOP_STK for _Script_MathMod_b_a_1_1
   1A6A 23                 8493 	inc	hl
   1A6B 7E                 8494 	ld	a,(hl)
   1A6C F5                 8495 	push	af
   1A6D 33                 8496 	inc	sp
                           8497 ;	genCall
   1A6E CD 00 00           8498 	call	__moduchar_rrx_s
                           8499 ;	AOP_STK for _Script_MathMod_b_sloc1_1_0
   1A71 F8 04              8500 	lda	hl,4(sp)
   1A73 73                 8501 	ld	(hl),e
   1A74 E8 02              8502 	lda	sp,2(sp)
   1A76 C1                 8503 	pop	bc
                           8504 ;	genAssign (pointer)
                           8505 ;	AOP_STK for _Script_MathMod_b_sloc1_1_0
   1A77 F8 00              8506 	lda	hl,0(sp)
   1A79 7E                 8507 	ld	a,(hl)
   1A7A 02                 8508 	ld	(bc),a
                           8509 ;	src/ScriptRunner_b.c 1172
                           8510 ;	genPlus
                           8511 ;	AOP_HL for _script_cmd_args_len
                           8512 ;	genPlusIncr
   1A7B 21 00 00           8513 	ld	hl,#_script_cmd_args_len
   1A7E 4E                 8514 	ld	c,(hl)
   1A7F 0C                 8515 	inc	c
                           8516 ;	genCast
                           8517 ; Removed redundent load
   1A80 06 00              8518 	ld	b,#0x00
                           8519 ;	genPlus
                           8520 ;	AOP_HL for _script_ptr
                           8521 ;	Can't optimise plus by inc, falling back to the normal way
   1A82 21 00 00           8522 	ld	hl,#_script_ptr
   1A85 7E                 8523 	ld	a,(hl)
   1A86 81                 8524 	add	a,c
   1A87 22                 8525 	ld	(hl+),a
   1A88 7E                 8526 	ld	a,(hl)
   1A89 88                 8527 	adc	a,b
   1A8A 77                 8528 	ld	(hl),a
                           8529 ;	src/ScriptRunner_b.c 1173
                           8530 ;	genAssign
                           8531 ;	AOP_HL for _script_continue
   1A8B 21 00 00           8532 	ld	hl,#_script_continue
   1A8E 36 01              8533 	ld	(hl),#0x01
                           8534 ;	genLabel
   1A90                    8535 00101$:
                           8536 ;	genEndFunction
   1A90 E8 05              8537 	lda	sp,5(sp)
   1A92 C9                 8538 	ret
   1A93                    8539 ___Script_MathMod_b_end:
                           8540 ;	src/ScriptRunner_b.c 1181
                           8541 ;	genLabel
                           8542 ;	genFunction
                           8543 ;	---------------------------------
                           8544 ; Function Script_MathAddVal_b
                           8545 ; ---------------------------------
   1A93                    8546 ___Script_MathAddVal_b_start:
   1A93                    8547 _Script_MathAddVal_b:
   1A93 E8 FC              8548 	lda	sp,-4(sp)
                           8549 ;	src/ScriptRunner_b.c 1183
                           8550 ;	genPlus
                           8551 ;	AOP_HL for _script_ptr_x
                           8552 ;	Can't optimise plus by inc, falling back to the normal way
   1A95 3E 00              8553 	ld	a,#<_script_variables
   1A97 21 00 00           8554 	ld	hl,#_script_ptr_x
   1A9A 86                 8555 	add	a,(hl)
   1A9B 4F                 8556 	ld	c,a
   1A9C 3E 00              8557 	ld	a,#>_script_variables
   1A9E 23                 8558 	inc	hl
   1A9F 8E                 8559 	adc	a,(hl)
   1AA0 47                 8560 	ld	b,a
                           8561 ;	genPointerGet
                           8562 ;	AOP_STK for _Script_MathAddVal_b_a_1_1
   1AA1 0A                 8563 	ld	a,(bc)
   1AA2 F8 03              8564 	lda	hl,3(sp)
   1AA4 77                 8565 	ld	(hl),a
                           8566 ;	genAssign
                           8567 ;	AOP_STK for _Script_MathAddVal_b_a_1_1
                           8568 ;	(registers are the same)
                           8569 ;	src/ScriptRunner_b.c 1184
                           8570 ;	genPlus
                           8571 ;	AOP_HL for _script_ptr_y
                           8572 ;	AOP_STK for _Script_MathAddVal_b_sloc0_1_0
                           8573 ;	Can't optimise plus by inc, falling back to the normal way
   1AA5 11 00 00           8574 	ld	de,#_script_variables
   1AA8 21 00 00           8575 	ld	hl,#_script_ptr_y
   1AAB 2A                 8576 	ld	a,(hl+)
   1AAC 66                 8577 	ld	h,(hl)
   1AAD 6F                 8578 	ld	l,a
   1AAE 19                 8579 	add	hl,de
   1AAF 7D                 8580 	ld	a,l
   1AB0 54                 8581 	ld	d,h
   1AB1 F8 00              8582 	lda	hl,0(sp)
                           8583 ;	genPointerGet
                           8584 ;	AOP_STK for _Script_MathAddVal_b_sloc0_1_0
                           8585 ;	AOP_STK for _Script_MathAddVal_b_b_1_1
   1AB3 22                 8586 	ld	(hl+),a
   1AB4 72                 8587 	ld	(hl),d
   1AB5 5F                 8588 	ld	e,a
   1AB6 1A                 8589 	ld	a,(de)
   1AB7 23                 8590 	inc	hl
                           8591 ;	genAssign
                           8592 ;	AOP_STK for _Script_MathAddVal_b_b_1_1
                           8593 ;	(registers are the same)
                           8594 ;	src/ScriptRunner_b.c 1185
                           8595 ;	genPlus
                           8596 ;	AOP_STK for _Script_MathAddVal_b_a_1_1
                           8597 ;	AOP_STK for _Script_MathAddVal_b_b_1_1
                           8598 ;	Can't optimise plus by inc, falling back to the normal way
   1AB8 22                 8599 	ld	(hl+),a
   1AB9 7E                 8600 	ld	a,(hl)
   1ABA 2B                 8601 	dec	hl
   1ABB 86                 8602 	add	a,(hl)
                           8603 ;	genAssign (pointer)
   1ABC 02                 8604 	ld	(bc),a
                           8605 ;	src/ScriptRunner_b.c 1186
                           8606 ;	genPlus
                           8607 ;	AOP_HL for _script_cmd_args_len
                           8608 ;	genPlusIncr
   1ABD 21 00 00           8609 	ld	hl,#_script_cmd_args_len
   1AC0 4E                 8610 	ld	c,(hl)
   1AC1 0C                 8611 	inc	c
                           8612 ;	genCast
                           8613 ; Removed redundent load
   1AC2 06 00              8614 	ld	b,#0x00
                           8615 ;	genPlus
                           8616 ;	AOP_HL for _script_ptr
                           8617 ;	Can't optimise plus by inc, falling back to the normal way
   1AC4 21 00 00           8618 	ld	hl,#_script_ptr
   1AC7 7E                 8619 	ld	a,(hl)
   1AC8 81                 8620 	add	a,c
   1AC9 22                 8621 	ld	(hl+),a
   1ACA 7E                 8622 	ld	a,(hl)
   1ACB 88                 8623 	adc	a,b
   1ACC 77                 8624 	ld	(hl),a
                           8625 ;	src/ScriptRunner_b.c 1187
                           8626 ;	genAssign
                           8627 ;	AOP_HL for _script_continue
   1ACD 21 00 00           8628 	ld	hl,#_script_continue
   1AD0 36 01              8629 	ld	(hl),#0x01
                           8630 ;	genLabel
   1AD2                    8631 00101$:
                           8632 ;	genEndFunction
   1AD2 E8 04              8633 	lda	sp,4(sp)
   1AD4 C9                 8634 	ret
   1AD5                    8635 ___Script_MathAddVal_b_end:
                           8636 ;	src/ScriptRunner_b.c 1195
                           8637 ;	genLabel
                           8638 ;	genFunction
                           8639 ;	---------------------------------
                           8640 ; Function Script_MathSubVal_b
                           8641 ; ---------------------------------
   1AD5                    8642 ___Script_MathSubVal_b_start:
   1AD5                    8643 _Script_MathSubVal_b:
   1AD5 E8 FC              8644 	lda	sp,-4(sp)
                           8645 ;	src/ScriptRunner_b.c 1197
                           8646 ;	genPlus
                           8647 ;	AOP_HL for _script_ptr_x
                           8648 ;	Can't optimise plus by inc, falling back to the normal way
   1AD7 3E 00              8649 	ld	a,#<_script_variables
   1AD9 21 00 00           8650 	ld	hl,#_script_ptr_x
   1ADC 86                 8651 	add	a,(hl)
   1ADD 4F                 8652 	ld	c,a
   1ADE 3E 00              8653 	ld	a,#>_script_variables
   1AE0 23                 8654 	inc	hl
   1AE1 8E                 8655 	adc	a,(hl)
   1AE2 47                 8656 	ld	b,a
                           8657 ;	genPointerGet
                           8658 ;	AOP_STK for _Script_MathSubVal_b_a_1_1
   1AE3 0A                 8659 	ld	a,(bc)
   1AE4 F8 03              8660 	lda	hl,3(sp)
   1AE6 77                 8661 	ld	(hl),a
                           8662 ;	genAssign
                           8663 ;	AOP_STK for _Script_MathSubVal_b_a_1_1
                           8664 ;	(registers are the same)
                           8665 ;	src/ScriptRunner_b.c 1198
                           8666 ;	genPlus
                           8667 ;	AOP_HL for _script_ptr_y
                           8668 ;	AOP_STK for _Script_MathSubVal_b_sloc0_1_0
                           8669 ;	Can't optimise plus by inc, falling back to the normal way
   1AE7 11 00 00           8670 	ld	de,#_script_variables
   1AEA 21 00 00           8671 	ld	hl,#_script_ptr_y
   1AED 2A                 8672 	ld	a,(hl+)
   1AEE 66                 8673 	ld	h,(hl)
   1AEF 6F                 8674 	ld	l,a
   1AF0 19                 8675 	add	hl,de
   1AF1 7D                 8676 	ld	a,l
   1AF2 54                 8677 	ld	d,h
   1AF3 F8 00              8678 	lda	hl,0(sp)
                           8679 ;	genPointerGet
                           8680 ;	AOP_STK for _Script_MathSubVal_b_sloc0_1_0
                           8681 ;	AOP_STK for _Script_MathSubVal_b_b_1_1
   1AF5 22                 8682 	ld	(hl+),a
   1AF6 72                 8683 	ld	(hl),d
   1AF7 5F                 8684 	ld	e,a
   1AF8 1A                 8685 	ld	a,(de)
   1AF9 23                 8686 	inc	hl
                           8687 ;	genAssign
                           8688 ;	AOP_STK for _Script_MathSubVal_b_b_1_1
                           8689 ;	(registers are the same)
                           8690 ;	src/ScriptRunner_b.c 1199
                           8691 ;	genMinus
                           8692 ;	AOP_STK for _Script_MathSubVal_b_a_1_1
                           8693 ;	AOP_STK for _Script_MathSubVal_b_b_1_1
                           8694 ;	AOP_STK for _Script_MathSubVal_b_sloc0_1_0
   1AFA 22                 8695 	ld	(hl+),a
   1AFB 7E                 8696 	ld	a,(hl)
   1AFC 2B                 8697 	dec	hl
   1AFD 96                 8698 	sub	a,(hl)
   1AFE 2B                 8699 	dec	hl
   1AFF 2B                 8700 	dec	hl
                           8701 ;	genAssign (pointer)
                           8702 ;	AOP_STK for _Script_MathSubVal_b_sloc0_1_0
   1B00 77                 8703 	ld      (hl),a
   1B01 7F                 8704 	ld      a,a
   1B02 02                 8705 	ld	(bc),a
                           8706 ;	src/ScriptRunner_b.c 1200
                           8707 ;	genPlus
                           8708 ;	AOP_HL for _script_cmd_args_len
                           8709 ;	genPlusIncr
   1B03 21 00 00           8710 	ld	hl,#_script_cmd_args_len
   1B06 4E                 8711 	ld	c,(hl)
   1B07 0C                 8712 	inc	c
                           8713 ;	genCast
                           8714 ; Removed redundent load
   1B08 06 00              8715 	ld	b,#0x00
                           8716 ;	genPlus
                           8717 ;	AOP_HL for _script_ptr
                           8718 ;	Can't optimise plus by inc, falling back to the normal way
   1B0A 21 00 00           8719 	ld	hl,#_script_ptr
   1B0D 7E                 8720 	ld	a,(hl)
   1B0E 81                 8721 	add	a,c
   1B0F 22                 8722 	ld	(hl+),a
   1B10 7E                 8723 	ld	a,(hl)
   1B11 88                 8724 	adc	a,b
   1B12 77                 8725 	ld	(hl),a
                           8726 ;	src/ScriptRunner_b.c 1201
                           8727 ;	genAssign
                           8728 ;	AOP_HL for _script_continue
   1B13 21 00 00           8729 	ld	hl,#_script_continue
   1B16 36 01              8730 	ld	(hl),#0x01
                           8731 ;	genLabel
   1B18                    8732 00101$:
                           8733 ;	genEndFunction
   1B18 E8 04              8734 	lda	sp,4(sp)
   1B1A C9                 8735 	ret
   1B1B                    8736 ___Script_MathSubVal_b_end:
                           8737 ;	src/ScriptRunner_b.c 1209
                           8738 ;	genLabel
                           8739 ;	genFunction
                           8740 ;	---------------------------------
                           8741 ; Function Script_MathMulVal_b
                           8742 ; ---------------------------------
   1B1B                    8743 ___Script_MathMulVal_b_start:
   1B1B                    8744 _Script_MathMulVal_b:
   1B1B E8 FC              8745 	lda	sp,-4(sp)
                           8746 ;	src/ScriptRunner_b.c 1211
                           8747 ;	genPlus
                           8748 ;	AOP_HL for _script_ptr_x
                           8749 ;	Can't optimise plus by inc, falling back to the normal way
   1B1D 3E 00              8750 	ld	a,#<_script_variables
   1B1F 21 00 00           8751 	ld	hl,#_script_ptr_x
   1B22 86                 8752 	add	a,(hl)
   1B23 4F                 8753 	ld	c,a
   1B24 3E 00              8754 	ld	a,#>_script_variables
   1B26 23                 8755 	inc	hl
   1B27 8E                 8756 	adc	a,(hl)
   1B28 47                 8757 	ld	b,a
                           8758 ;	genPointerGet
                           8759 ;	AOP_STK for _Script_MathMulVal_b_a_1_1
   1B29 0A                 8760 	ld	a,(bc)
   1B2A F8 03              8761 	lda	hl,3(sp)
   1B2C 77                 8762 	ld	(hl),a
                           8763 ;	genAssign
                           8764 ;	AOP_STK for _Script_MathMulVal_b_a_1_1
                           8765 ;	(registers are the same)
                           8766 ;	src/ScriptRunner_b.c 1212
                           8767 ;	genPlus
                           8768 ;	AOP_HL for _script_ptr_y
                           8769 ;	AOP_STK for _Script_MathMulVal_b_sloc0_1_0
                           8770 ;	Can't optimise plus by inc, falling back to the normal way
   1B2D 11 00 00           8771 	ld	de,#_script_variables
   1B30 21 00 00           8772 	ld	hl,#_script_ptr_y
   1B33 2A                 8773 	ld	a,(hl+)
   1B34 66                 8774 	ld	h,(hl)
   1B35 6F                 8775 	ld	l,a
   1B36 19                 8776 	add	hl,de
   1B37 7D                 8777 	ld	a,l
   1B38 54                 8778 	ld	d,h
   1B39 F8 00              8779 	lda	hl,0(sp)
                           8780 ;	genPointerGet
                           8781 ;	AOP_STK for _Script_MathMulVal_b_sloc0_1_0
                           8782 ;	AOP_STK for _Script_MathMulVal_b_b_1_1
   1B3B 22                 8783 	ld	(hl+),a
   1B3C 72                 8784 	ld	(hl),d
   1B3D 5F                 8785 	ld	e,a
   1B3E 1A                 8786 	ld	a,(de)
   1B3F 23                 8787 	inc	hl
   1B40 77                 8788 	ld	(hl),a
                           8789 ;	genAssign
                           8790 ;	AOP_STK for _Script_MathMulVal_b_b_1_1
                           8791 ;	(registers are the same)
                           8792 ;	src/ScriptRunner_b.c 1213
                           8793 ;	genIpush
                           8794 ; _saveRegsForCall: sendSetSize: 0 deInUse: 0 bcInUse: 1 deSending: 0
   1B41 C5                 8795 	push	bc
                           8796 ;	AOP_STK for _Script_MathMulVal_b_b_1_1
   1B42 7E                 8797 	ld	a,(hl)
   1B43 F5                 8798 	push	af
   1B44 33                 8799 	inc	sp
                           8800 ;	genIpush
                           8801 ;	AOP_STK for _Script_MathMulVal_b_a_1_1
   1B45 23                 8802 	inc	hl
   1B46 7E                 8803 	ld	a,(hl)
   1B47 F5                 8804 	push	af
   1B48 33                 8805 	inc	sp
                           8806 ;	genCall
   1B49 CD 00 00           8807 	call	__muluchar_rrx_s
                           8808 ;	AOP_STK for _Script_MathMulVal_b_sloc0_1_0
   1B4C F8 05              8809 	lda	hl,5(sp)
   1B4E 72                 8810 	ld	(hl),d
   1B4F 2B                 8811 	dec	hl
   1B50 73                 8812 	ld	(hl),e
   1B51 E8 02              8813 	lda	sp,2(sp)
   1B53 C1                 8814 	pop	bc
                           8815 ;	genCast
                           8816 ;	AOP_STK for _Script_MathMulVal_b_sloc0_1_0
   1B54 F8 00              8817 	lda	hl,0(sp)
   1B56 7E                 8818 	ld	a,(hl)
                           8819 ;	genAssign (pointer)
   1B57 02                 8820 	ld	(bc),a
                           8821 ;	src/ScriptRunner_b.c 1214
                           8822 ;	genPlus
                           8823 ;	AOP_HL for _script_cmd_args_len
                           8824 ;	genPlusIncr
   1B58 21 00 00           8825 	ld	hl,#_script_cmd_args_len
   1B5B 4E                 8826 	ld	c,(hl)
   1B5C 0C                 8827 	inc	c
                           8828 ;	genCast
                           8829 ; Removed redundent load
   1B5D 06 00              8830 	ld	b,#0x00
                           8831 ;	genPlus
                           8832 ;	AOP_HL for _script_ptr
                           8833 ;	Can't optimise plus by inc, falling back to the normal way
   1B5F 21 00 00           8834 	ld	hl,#_script_ptr
   1B62 7E                 8835 	ld	a,(hl)
   1B63 81                 8836 	add	a,c
   1B64 22                 8837 	ld	(hl+),a
   1B65 7E                 8838 	ld	a,(hl)
   1B66 88                 8839 	adc	a,b
   1B67 77                 8840 	ld	(hl),a
                           8841 ;	src/ScriptRunner_b.c 1215
                           8842 ;	genAssign
                           8843 ;	AOP_HL for _script_continue
   1B68 21 00 00           8844 	ld	hl,#_script_continue
   1B6B 36 01              8845 	ld	(hl),#0x01
                           8846 ;	genLabel
   1B6D                    8847 00101$:
                           8848 ;	genEndFunction
   1B6D E8 04              8849 	lda	sp,4(sp)
   1B6F C9                 8850 	ret
   1B70                    8851 ___Script_MathMulVal_b_end:
                           8852 ;	src/ScriptRunner_b.c 1223
                           8853 ;	genLabel
                           8854 ;	genFunction
                           8855 ;	---------------------------------
                           8856 ; Function Script_MathDivVal_b
                           8857 ; ---------------------------------
   1B70                    8858 ___Script_MathDivVal_b_start:
   1B70                    8859 _Script_MathDivVal_b:
   1B70 E8 FC              8860 	lda	sp,-4(sp)
                           8861 ;	src/ScriptRunner_b.c 1225
                           8862 ;	genPlus
                           8863 ;	AOP_HL for _script_ptr_x
                           8864 ;	Can't optimise plus by inc, falling back to the normal way
   1B72 3E 00              8865 	ld	a,#<_script_variables
   1B74 21 00 00           8866 	ld	hl,#_script_ptr_x
   1B77 86                 8867 	add	a,(hl)
   1B78 4F                 8868 	ld	c,a
   1B79 3E 00              8869 	ld	a,#>_script_variables
   1B7B 23                 8870 	inc	hl
   1B7C 8E                 8871 	adc	a,(hl)
   1B7D 47                 8872 	ld	b,a
                           8873 ;	genPointerGet
                           8874 ;	AOP_STK for _Script_MathDivVal_b_a_1_1
   1B7E 0A                 8875 	ld	a,(bc)
   1B7F F8 03              8876 	lda	hl,3(sp)
   1B81 77                 8877 	ld	(hl),a
                           8878 ;	genAssign
                           8879 ;	AOP_STK for _Script_MathDivVal_b_a_1_1
                           8880 ;	(registers are the same)
                           8881 ;	src/ScriptRunner_b.c 1226
                           8882 ;	genPlus
                           8883 ;	AOP_HL for _script_ptr_y
                           8884 ;	AOP_STK for _Script_MathDivVal_b_sloc0_1_0
                           8885 ;	Can't optimise plus by inc, falling back to the normal way
   1B82 11 00 00           8886 	ld	de,#_script_variables
   1B85 21 00 00           8887 	ld	hl,#_script_ptr_y
   1B88 2A                 8888 	ld	a,(hl+)
   1B89 66                 8889 	ld	h,(hl)
   1B8A 6F                 8890 	ld	l,a
   1B8B 19                 8891 	add	hl,de
   1B8C 7D                 8892 	ld	a,l
   1B8D 54                 8893 	ld	d,h
   1B8E F8 00              8894 	lda	hl,0(sp)
                           8895 ;	genPointerGet
                           8896 ;	AOP_STK for _Script_MathDivVal_b_sloc0_1_0
                           8897 ;	AOP_STK for _Script_MathDivVal_b_b_1_1
   1B90 22                 8898 	ld	(hl+),a
   1B91 72                 8899 	ld	(hl),d
   1B92 5F                 8900 	ld	e,a
   1B93 1A                 8901 	ld	a,(de)
   1B94 23                 8902 	inc	hl
   1B95 77                 8903 	ld	(hl),a
                           8904 ;	genAssign
                           8905 ;	AOP_STK for _Script_MathDivVal_b_b_1_1
                           8906 ;	(registers are the same)
                           8907 ;	src/ScriptRunner_b.c 1227
                           8908 ;	genIpush
                           8909 ; _saveRegsForCall: sendSetSize: 0 deInUse: 0 bcInUse: 1 deSending: 0
   1B96 C5                 8910 	push	bc
                           8911 ;	AOP_STK for _Script_MathDivVal_b_b_1_1
   1B97 7E                 8912 	ld	a,(hl)
   1B98 F5                 8913 	push	af
   1B99 33                 8914 	inc	sp
                           8915 ;	genIpush
                           8916 ;	AOP_STK for _Script_MathDivVal_b_a_1_1
   1B9A 23                 8917 	inc	hl
   1B9B 7E                 8918 	ld	a,(hl)
   1B9C F5                 8919 	push	af
   1B9D 33                 8920 	inc	sp
                           8921 ;	genCall
   1B9E CD 00 00           8922 	call	__divuchar_rrx_s
                           8923 ;	AOP_STK for _Script_MathDivVal_b_sloc0_1_0
   1BA1 F8 04              8924 	lda	hl,4(sp)
   1BA3 73                 8925 	ld	(hl),e
   1BA4 E8 02              8926 	lda	sp,2(sp)
   1BA6 C1                 8927 	pop	bc
                           8928 ;	genAssign (pointer)
                           8929 ;	AOP_STK for _Script_MathDivVal_b_sloc0_1_0
   1BA7 F8 00              8930 	lda	hl,0(sp)
   1BA9 7E                 8931 	ld	a,(hl)
   1BAA 02                 8932 	ld	(bc),a
                           8933 ;	src/ScriptRunner_b.c 1228
                           8934 ;	genPlus
                           8935 ;	AOP_HL for _script_cmd_args_len
                           8936 ;	genPlusIncr
   1BAB 21 00 00           8937 	ld	hl,#_script_cmd_args_len
   1BAE 4E                 8938 	ld	c,(hl)
   1BAF 0C                 8939 	inc	c
                           8940 ;	genCast
                           8941 ; Removed redundent load
   1BB0 06 00              8942 	ld	b,#0x00
                           8943 ;	genPlus
                           8944 ;	AOP_HL for _script_ptr
                           8945 ;	Can't optimise plus by inc, falling back to the normal way
   1BB2 21 00 00           8946 	ld	hl,#_script_ptr
   1BB5 7E                 8947 	ld	a,(hl)
   1BB6 81                 8948 	add	a,c
   1BB7 22                 8949 	ld	(hl+),a
   1BB8 7E                 8950 	ld	a,(hl)
   1BB9 88                 8951 	adc	a,b
   1BBA 77                 8952 	ld	(hl),a
                           8953 ;	src/ScriptRunner_b.c 1229
                           8954 ;	genAssign
                           8955 ;	AOP_HL for _script_continue
   1BBB 21 00 00           8956 	ld	hl,#_script_continue
   1BBE 36 01              8957 	ld	(hl),#0x01
                           8958 ;	genLabel
   1BC0                    8959 00101$:
                           8960 ;	genEndFunction
   1BC0 E8 04              8961 	lda	sp,4(sp)
   1BC2 C9                 8962 	ret
   1BC3                    8963 ___Script_MathDivVal_b_end:
                           8964 ;	src/ScriptRunner_b.c 1237
                           8965 ;	genLabel
                           8966 ;	genFunction
                           8967 ;	---------------------------------
                           8968 ; Function Script_MathModVal_b
                           8969 ; ---------------------------------
   1BC3                    8970 ___Script_MathModVal_b_start:
   1BC3                    8971 _Script_MathModVal_b:
   1BC3 E8 FC              8972 	lda	sp,-4(sp)
                           8973 ;	src/ScriptRunner_b.c 1239
                           8974 ;	genPlus
                           8975 ;	AOP_HL for _script_ptr_x
                           8976 ;	Can't optimise plus by inc, falling back to the normal way
   1BC5 3E 00              8977 	ld	a,#<_script_variables
   1BC7 21 00 00           8978 	ld	hl,#_script_ptr_x
   1BCA 86                 8979 	add	a,(hl)
   1BCB 4F                 8980 	ld	c,a
   1BCC 3E 00              8981 	ld	a,#>_script_variables
   1BCE 23                 8982 	inc	hl
   1BCF 8E                 8983 	adc	a,(hl)
   1BD0 47                 8984 	ld	b,a
                           8985 ;	genPointerGet
                           8986 ;	AOP_STK for _Script_MathModVal_b_a_1_1
   1BD1 0A                 8987 	ld	a,(bc)
   1BD2 F8 03              8988 	lda	hl,3(sp)
   1BD4 77                 8989 	ld	(hl),a
                           8990 ;	genAssign
                           8991 ;	AOP_STK for _Script_MathModVal_b_a_1_1
                           8992 ;	(registers are the same)
                           8993 ;	src/ScriptRunner_b.c 1240
                           8994 ;	genPlus
                           8995 ;	AOP_HL for _script_ptr_y
                           8996 ;	AOP_STK for _Script_MathModVal_b_sloc0_1_0
                           8997 ;	Can't optimise plus by inc, falling back to the normal way
   1BD5 11 00 00           8998 	ld	de,#_script_variables
   1BD8 21 00 00           8999 	ld	hl,#_script_ptr_y
   1BDB 2A                 9000 	ld	a,(hl+)
   1BDC 66                 9001 	ld	h,(hl)
   1BDD 6F                 9002 	ld	l,a
   1BDE 19                 9003 	add	hl,de
   1BDF 7D                 9004 	ld	a,l
   1BE0 54                 9005 	ld	d,h
   1BE1 F8 00              9006 	lda	hl,0(sp)
                           9007 ;	genPointerGet
                           9008 ;	AOP_STK for _Script_MathModVal_b_sloc0_1_0
                           9009 ;	AOP_STK for _Script_MathModVal_b_b_1_1
   1BE3 22                 9010 	ld	(hl+),a
   1BE4 72                 9011 	ld	(hl),d
   1BE5 5F                 9012 	ld	e,a
   1BE6 1A                 9013 	ld	a,(de)
   1BE7 23                 9014 	inc	hl
   1BE8 77                 9015 	ld	(hl),a
                           9016 ;	genAssign
                           9017 ;	AOP_STK for _Script_MathModVal_b_b_1_1
                           9018 ;	(registers are the same)
                           9019 ;	src/ScriptRunner_b.c 1241
                           9020 ;	genIpush
                           9021 ; _saveRegsForCall: sendSetSize: 0 deInUse: 0 bcInUse: 1 deSending: 0
   1BE9 C5                 9022 	push	bc
                           9023 ;	AOP_STK for _Script_MathModVal_b_b_1_1
   1BEA 7E                 9024 	ld	a,(hl)
   1BEB F5                 9025 	push	af
   1BEC 33                 9026 	inc	sp
                           9027 ;	genIpush
                           9028 ;	AOP_STK for _Script_MathModVal_b_a_1_1
   1BED 23                 9029 	inc	hl
   1BEE 7E                 9030 	ld	a,(hl)
   1BEF F5                 9031 	push	af
   1BF0 33                 9032 	inc	sp
                           9033 ;	genCall
   1BF1 CD 00 00           9034 	call	__moduchar_rrx_s
                           9035 ;	AOP_STK for _Script_MathModVal_b_sloc0_1_0
   1BF4 F8 04              9036 	lda	hl,4(sp)
   1BF6 73                 9037 	ld	(hl),e
   1BF7 E8 02              9038 	lda	sp,2(sp)
   1BF9 C1                 9039 	pop	bc
                           9040 ;	genAssign (pointer)
                           9041 ;	AOP_STK for _Script_MathModVal_b_sloc0_1_0
   1BFA F8 00              9042 	lda	hl,0(sp)
   1BFC 7E                 9043 	ld	a,(hl)
   1BFD 02                 9044 	ld	(bc),a
                           9045 ;	src/ScriptRunner_b.c 1242
                           9046 ;	genPlus
                           9047 ;	AOP_HL for _script_cmd_args_len
                           9048 ;	genPlusIncr
   1BFE 21 00 00           9049 	ld	hl,#_script_cmd_args_len
   1C01 4E                 9050 	ld	c,(hl)
   1C02 0C                 9051 	inc	c
                           9052 ;	genCast
                           9053 ; Removed redundent load
   1C03 06 00              9054 	ld	b,#0x00
                           9055 ;	genPlus
                           9056 ;	AOP_HL for _script_ptr
                           9057 ;	Can't optimise plus by inc, falling back to the normal way
   1C05 21 00 00           9058 	ld	hl,#_script_ptr
   1C08 7E                 9059 	ld	a,(hl)
   1C09 81                 9060 	add	a,c
   1C0A 22                 9061 	ld	(hl+),a
   1C0B 7E                 9062 	ld	a,(hl)
   1C0C 88                 9063 	adc	a,b
   1C0D 77                 9064 	ld	(hl),a
                           9065 ;	src/ScriptRunner_b.c 1243
                           9066 ;	genAssign
                           9067 ;	AOP_HL for _script_continue
   1C0E 21 00 00           9068 	ld	hl,#_script_continue
   1C11 36 01              9069 	ld	(hl),#0x01
                           9070 ;	genLabel
   1C13                    9071 00101$:
                           9072 ;	genEndFunction
   1C13 E8 04              9073 	lda	sp,4(sp)
   1C15 C9                 9074 	ret
   1C16                    9075 ___Script_MathModVal_b_end:
                           9076 ;	src/ScriptRunner_b.c 1251
                           9077 ;	genLabel
                           9078 ;	genFunction
                           9079 ;	---------------------------------
                           9080 ; Function Script_CopyVal_b
                           9081 ; ---------------------------------
   1C16                    9082 ___Script_CopyVal_b_start:
   1C16                    9083 _Script_CopyVal_b:
   1C16 E8 FF              9084 	lda	sp,-1(sp)
                           9085 ;	src/ScriptRunner_b.c 1253
                           9086 ;	genPlus
                           9087 ;	AOP_HL for _script_ptr_y
                           9088 ;	Can't optimise plus by inc, falling back to the normal way
   1C18 3E 00              9089 	ld	a,#<_script_variables
   1C1A 21 00 00           9090 	ld	hl,#_script_ptr_y
   1C1D 86                 9091 	add	a,(hl)
   1C1E 4F                 9092 	ld	c,a
   1C1F 3E 00              9093 	ld	a,#>_script_variables
   1C21 23                 9094 	inc	hl
   1C22 8E                 9095 	adc	a,(hl)
   1C23 47                 9096 	ld	b,a
                           9097 ;	genPointerGet
   1C24 0A                 9098 	ld	a,(bc)
   1C25 4F                 9099 	ld	c,a
                           9100 ;	genAssign
                           9101 ;	AOP_STK for _Script_CopyVal_b_value_1_1
   1C26 F8 00              9102 	lda	hl,0(sp)
   1C28 71                 9103 	ld	(hl),c
                           9104 ;	src/ScriptRunner_b.c 1254
                           9105 ;	genPlus
                           9106 ;	AOP_HL for _script_ptr_x
                           9107 ;	Can't optimise plus by inc, falling back to the normal way
   1C29 3E 00              9108 	ld	a,#<_script_variables
   1C2B 21 00 00           9109 	ld	hl,#_script_ptr_x
   1C2E 86                 9110 	add	a,(hl)
   1C2F 47                 9111 	ld	b,a
   1C30 3E 00              9112 	ld	a,#>_script_variables
   1C32 23                 9113 	inc	hl
   1C33 8E                 9114 	adc	a,(hl)
   1C34 4F                 9115 	ld	c,a
                           9116 ;	genAssign (pointer)
                           9117 ;	AOP_STK for _Script_CopyVal_b_value_1_1
   1C35 58                 9118 	ld	e,b
   1C36 51                 9119 	ld	d,c
   1C37 F8 00              9120 	lda	hl,0(sp)
   1C39 7E                 9121 	ld	a,(hl)
   1C3A 12                 9122 	ld	(de),a
                           9123 ;	src/ScriptRunner_b.c 1255
                           9124 ;	genPlus
                           9125 ;	AOP_HL for _script_cmd_args_len
                           9126 ;	genPlusIncr
   1C3B 21 00 00           9127 	ld	hl,#_script_cmd_args_len
   1C3E 4E                 9128 	ld	c,(hl)
   1C3F 0C                 9129 	inc	c
                           9130 ;	genCast
                           9131 ; Removed redundent load
   1C40 06 00              9132 	ld	b,#0x00
                           9133 ;	genPlus
                           9134 ;	AOP_HL for _script_ptr
                           9135 ;	Can't optimise plus by inc, falling back to the normal way
   1C42 21 00 00           9136 	ld	hl,#_script_ptr
   1C45 7E                 9137 	ld	a,(hl)
   1C46 81                 9138 	add	a,c
   1C47 22                 9139 	ld	(hl+),a
   1C48 7E                 9140 	ld	a,(hl)
   1C49 88                 9141 	adc	a,b
   1C4A 77                 9142 	ld	(hl),a
                           9143 ;	src/ScriptRunner_b.c 1256
                           9144 ;	genAssign
                           9145 ;	AOP_HL for _script_continue
   1C4B 21 00 00           9146 	ld	hl,#_script_continue
   1C4E 36 01              9147 	ld	(hl),#0x01
                           9148 ;	genLabel
   1C50                    9149 00101$:
                           9150 ;	genEndFunction
   1C50 E8 01              9151 	lda	sp,1(sp)
   1C52 C9                 9152 	ret
   1C53                    9153 ___Script_CopyVal_b_end:
                           9154 ;	src/ScriptRunner_b.c 1268
                           9155 ;	genLabel
                           9156 ;	genFunction
                           9157 ;	---------------------------------
                           9158 ; Function Script_IfValueCompare_b
                           9159 ; ---------------------------------
   1C53                    9160 ___Script_IfValueCompare_b_start:
   1C53                    9161 _Script_IfValueCompare_b:
   1C53 E8 FB              9162 	lda	sp,-5(sp)
                           9163 ;	src/ScriptRunner_b.c 1271
                           9164 ;	genPlus
                           9165 ;	AOP_HL for _script_ptr_x
                           9166 ;	Can't optimise plus by inc, falling back to the normal way
   1C55 3E 00              9167 	ld	a,#<_script_variables
   1C57 21 00 00           9168 	ld	hl,#_script_ptr_x
   1C5A 86                 9169 	add	a,(hl)
   1C5B 4F                 9170 	ld	c,a
   1C5C 3E 00              9171 	ld	a,#>_script_variables
   1C5E 23                 9172 	inc	hl
   1C5F 8E                 9173 	adc	a,(hl)
   1C60 47                 9174 	ld	b,a
                           9175 ;	genPointerGet
   1C61 0A                 9176 	ld	a,(bc)
   1C62 4F                 9177 	ld	c,a
                           9178 ;	genAssign
                           9179 ;	AOP_STK for _Script_IfValueCompare_b_a_1_1
   1C63 F8 03              9180 	lda	hl,3(sp)
   1C65 71                 9181 	ld	(hl),c
                           9182 ;	src/ScriptRunner_b.c 1272
                           9183 ;	genPlus
                           9184 ;	AOP_HL for _script_ptr_y
                           9185 ;	Can't optimise plus by inc, falling back to the normal way
   1C66 3E 00              9186 	ld	a,#<_script_variables
   1C68 21 00 00           9187 	ld	hl,#_script_ptr_y
   1C6B 86                 9188 	add	a,(hl)
   1C6C 47                 9189 	ld	b,a
   1C6D 3E 00              9190 	ld	a,#>_script_variables
   1C6F 23                 9191 	inc	hl
   1C70 8E                 9192 	adc	a,(hl)
   1C71 4F                 9193 	ld	c,a
                           9194 ;	genPointerGet
   1C72 58                 9195 	ld	e,b
   1C73 51                 9196 	ld	d,c
   1C74 1A                 9197 	ld	a,(de)
   1C75 47                 9198 	ld	b,a
                           9199 ;	genAssign
   1C76 48                 9200 	ld	c,b
                           9201 ;	src/ScriptRunner_b.c 1274
                           9202 ;	genPointerGet
   1C77 11 00 00           9203 	ld	de,#_script_cmd_args
   1C7A 1A                 9204 	ld	a,(de)
                           9205 ;	genCmpLt
   1C7B 47                 9206 	ld	b,a
   1C7C FE 01              9207 	cp	#0x01
   1C7E DA 15 1D           9208 	jp	c,00107$
                           9209 ;	genCmpGt
   1C81 3E 06              9210 	ld	a,#0x06
   1C83 90                 9211 	sub	a,b
   1C84 DA 15 1D           9212 	jp	c,00107$
                           9213 ;	genMinus
   1C87 05                 9214 	dec	b
                           9215 ;	genJumpTab
   1C88 58                 9216 	ld	e,b
   1C89 16 00              9217 	ld	d,#0x00
   1C8B 21 92 1C           9218 	ld	hl,#00117$
   1C8E 19                 9219 	add	hl,de
   1C8F 19                 9220 	add	hl,de
   1C90 19                 9221 	add	hl,de
   1C91 E9                 9222 	jp	(hl)
   1C92                    9223 00117$:
   1C92 C3 A4 1C           9224 	jp	00101$
   1C95 C3 FA 1C           9225 	jp	00106$
   1C98 C3 B7 1C           9226 	jp	00102$
   1C9B C3 D8 1C           9227 	jp	00104$
   1C9E C3 C3 1C           9228 	jp	00103$
   1CA1 C3 E5 1C           9229 	jp	00105$
                           9230 ;	src/ScriptRunner_b.c 1277
                           9231 ;	genLabel
   1CA4                    9232 00101$:
                           9233 ;	genCmpEq
                           9234 ;	AOP_STK for _Script_IfValueCompare_b_a_1_1
                           9235 ; genCmpEq: left 1, right 1, result 1
   1CA4 F8 03              9236 	lda	hl,3(sp)
   1CA6 7E                 9237 	ld	a,(hl)
   1CA7 B9                 9238 	cp	c
   1CA8 C2 AF 1C           9239 	jp	nz,00118$
   1CAB 3E 01              9240 	ld	a,#0x01
   1CAD 18 01              9241 	jr	00119$
   1CAF                    9242 00118$:
   1CAF AF                 9243 	xor	a,a
   1CB0                    9244 00119$:
   1CB0 47                 9245 	ld	b,a
                           9246 ;	genAssign
                           9247 ;	AOP_STK for _Script_IfValueCompare_b_match_1_1
   1CB1 F8 04              9248 	lda	hl,4(sp)
   1CB3 70                 9249 	ld	(hl),b
                           9250 ;	src/ScriptRunner_b.c 1278
                           9251 ;	genGoto
   1CB4 C3 19 1D           9252 	jp	00108$
                           9253 ;	src/ScriptRunner_b.c 1280
                           9254 ;	genLabel
   1CB7                    9255 00102$:
                           9256 ;	genCmpLt
                           9257 ;	AOP_STK for _Script_IfValueCompare_b_a_1_1
                           9258 ;	AOP_STK for _Script_IfValueCompare_b_match_1_1
   1CB7 F8 03              9259 	lda	hl,3(sp)
   1CB9 7E                 9260 	ld	a,(hl)
   1CBA 91                 9261 	sub	a,c
   1CBB 3E 00              9262 	ld	a,#0x00
   1CBD 17                 9263 	rla
   1CBE 23                 9264 	inc	hl
   1CBF 77                 9265 	ld	(hl),a
                           9266 ;	genAssign
                           9267 ;	AOP_STK for _Script_IfValueCompare_b_match_1_1
                           9268 ;	(registers are the same)
                           9269 ;	src/ScriptRunner_b.c 1281
                           9270 ;	genGoto
   1CC0 C3 19 1D           9271 	jp	00108$
                           9272 ;	src/ScriptRunner_b.c 1283
                           9273 ;	genLabel
   1CC3                    9274 00103$:
                           9275 ;	genCmpGt
                           9276 ;	AOP_STK for _Script_IfValueCompare_b_a_1_1
   1CC3 79                 9277 	ld	a,c
   1CC4 F8 03              9278 	lda	hl,3(sp)
   1CC6 96                 9279 	sub	a,(hl)
   1CC7 3E 00              9280 	ld	a,#0x00
   1CC9 17                 9281 	rla
   1CCA 47                 9282 	ld	b,a
                           9283 ;	genNot
   1CCB AF                 9284 	xor	a,a
   1CCC B0                 9285 	or	a,b
   1CCD D6 01              9286 	sub	a,#0x01
   1CCF 3E 00              9287 	ld	a,#0x00
   1CD1 17                 9288 	rla
   1CD2 47                 9289 	ld	b,a
                           9290 ;	genAssign
                           9291 ;	AOP_STK for _Script_IfValueCompare_b_match_1_1
   1CD3 23                 9292 	inc	hl
   1CD4 70                 9293 	ld	(hl),b
                           9294 ;	src/ScriptRunner_b.c 1284
                           9295 ;	genGoto
   1CD5 C3 19 1D           9296 	jp	00108$
                           9297 ;	src/ScriptRunner_b.c 1286
                           9298 ;	genLabel
   1CD8                    9299 00104$:
                           9300 ;	genCmpGt
                           9301 ;	AOP_STK for _Script_IfValueCompare_b_a_1_1
   1CD8 79                 9302 	ld	a,c
   1CD9 F8 03              9303 	lda	hl,3(sp)
   1CDB 96                 9304 	sub	a,(hl)
   1CDC 3E 00              9305 	ld	a,#0x00
   1CDE 17                 9306 	rla
   1CDF 47                 9307 	ld	b,a
                           9308 ;	genAssign
                           9309 ;	AOP_STK for _Script_IfValueCompare_b_match_1_1
   1CE0 23                 9310 	inc	hl
   1CE1 70                 9311 	ld	(hl),b
                           9312 ;	src/ScriptRunner_b.c 1287
                           9313 ;	genGoto
   1CE2 C3 19 1D           9314 	jp	00108$
                           9315 ;	src/ScriptRunner_b.c 1289
                           9316 ;	genLabel
   1CE5                    9317 00105$:
                           9318 ;	genCmpLt
                           9319 ;	AOP_STK for _Script_IfValueCompare_b_a_1_1
   1CE5 F8 03              9320 	lda	hl,3(sp)
   1CE7 7E                 9321 	ld	a,(hl)
   1CE8 91                 9322 	sub	a,c
   1CE9 3E 00              9323 	ld	a,#0x00
   1CEB 17                 9324 	rla
   1CEC 47                 9325 	ld	b,a
                           9326 ;	genNot
   1CED AF                 9327 	xor	a,a
   1CEE B0                 9328 	or	a,b
   1CEF D6 01              9329 	sub	a,#0x01
   1CF1 3E 00              9330 	ld	a,#0x00
   1CF3 17                 9331 	rla
   1CF4 47                 9332 	ld	b,a
                           9333 ;	genAssign
                           9334 ;	AOP_STK for _Script_IfValueCompare_b_match_1_1
   1CF5 23                 9335 	inc	hl
   1CF6 70                 9336 	ld	(hl),b
                           9337 ;	src/ScriptRunner_b.c 1290
                           9338 ;	genGoto
   1CF7 C3 19 1D           9339 	jp	00108$
                           9340 ;	src/ScriptRunner_b.c 1292
                           9341 ;	genLabel
   1CFA                    9342 00106$:
                           9343 ;	genCmpEq
                           9344 ;	AOP_STK for _Script_IfValueCompare_b_a_1_1
                           9345 ; genCmpEq: left 1, right 1, result 1
   1CFA F8 03              9346 	lda	hl,3(sp)
   1CFC 7E                 9347 	ld	a,(hl)
   1CFD B9                 9348 	cp	c
   1CFE C2 05 1D           9349 	jp	nz,00120$
   1D01 3E 01              9350 	ld	a,#0x01
   1D03 18 01              9351 	jr	00121$
   1D05                    9352 00120$:
   1D05 AF                 9353 	xor	a,a
   1D06                    9354 00121$:
   1D06 4F                 9355 	ld	c,a
                           9356 ;	genNot
   1D07 AF                 9357 	xor	a,a
   1D08 B1                 9358 	or	a,c
   1D09 D6 01              9359 	sub	a,#0x01
   1D0B 3E 00              9360 	ld	a,#0x00
   1D0D 17                 9361 	rla
   1D0E 4F                 9362 	ld	c,a
                           9363 ;	genAssign
                           9364 ;	AOP_STK for _Script_IfValueCompare_b_match_1_1
   1D0F F8 04              9365 	lda	hl,4(sp)
   1D11 71                 9366 	ld	(hl),c
                           9367 ;	src/ScriptRunner_b.c 1293
                           9368 ;	genGoto
   1D12 C3 19 1D           9369 	jp	00108$
                           9370 ;	src/ScriptRunner_b.c 1295
                           9371 ;	genLabel
   1D15                    9372 00107$:
                           9373 ;	genAssign
                           9374 ;	AOP_STK for _Script_IfValueCompare_b_match_1_1
   1D15 F8 04              9375 	lda	hl,4(sp)
   1D17 36 00              9376 	ld	(hl),#0x00
                           9377 ;	src/ScriptRunner_b.c 1296
                           9378 ;	genLabel
   1D19                    9379 00108$:
                           9380 ;	src/ScriptRunner_b.c 1298
                           9381 ;	genIfx
                           9382 ;	AOP_STK for _Script_IfValueCompare_b_match_1_1
   1D19 AF                 9383 	xor	a,a
   1D1A F8 04              9384 	lda	hl,4(sp)
   1D1C B6                 9385 	or	a,(hl)
   1D1D CA 59 1D           9386 	jp	z,00110$
                           9387 ;	src/ScriptRunner_b.c 1300
                           9388 ;	genPlus
                           9389 ;	genPlusIncr
   1D20 01 01 00           9390 	ld	bc,#_script_cmd_args + 1
                           9391 ;	genPointerGet
   1D23 0A                 9392 	ld	a,(bc)
   1D24 4F                 9393 	ld	c,a
                           9394 ;	genCast
                           9395 ; Removed redundent load
   1D25 06 00              9396 	ld	b,#0x00
                           9397 ;	genLeftShift
   1D27 41                 9398 	ld	b,c
   1D28 0E 00              9399 	ld	c,#0x00
                           9400 ;	genPlus
                           9401 ;	AOP_HL for _script_start_ptr
                           9402 ;	Can't optimise plus by inc, falling back to the normal way
   1D2A 21 00 00           9403 	ld	hl,#_script_start_ptr
   1D2D 7E                 9404 	ld	a,(hl)
   1D2E 81                 9405 	add	a,c
   1D2F 4F                 9406 	ld	c,a
   1D30 23                 9407 	inc	hl
   1D31 7E                 9408 	ld	a,(hl)
   1D32 88                 9409 	adc	a,b
   1D33 47                 9410 	ld	b,a
                           9411 ;	genPlus
                           9412 ;	AOP_STK for _Script_IfValueCompare_b_sloc0_1_0
                           9413 ;	genPlusIncr
                           9414 ;	Can't optimise plus by inc, falling back to the normal way
   1D34 11 00 00           9415 	ld	de,#_script_cmd_args
   1D37 21 02 00           9416 	ld	hl,#0x0002
   1D3A 19                 9417 	add	hl,de
   1D3B 7D                 9418 	ld	a,l
   1D3C 54                 9419 	ld	d,h
   1D3D F8 01              9420 	lda	hl,1(sp)
                           9421 ;	genPointerGet
                           9422 ;	AOP_STK for _Script_IfValueCompare_b_sloc0_1_0
                           9423 ;	AOP_STK for _Script_IfValueCompare_b_sloc1_1_0
   1D3F 22                 9424 	ld	(hl+),a
   1D40 72                 9425 	ld	(hl),d
   1D41 5F                 9426 	ld	e,a
   1D42 1A                 9427 	ld	a,(de)
   1D43 2B                 9428 	dec	hl
   1D44 2B                 9429 	dec	hl
   1D45 77                 9430 	ld	(hl),a
                           9431 ;	genCast
                           9432 ;	AOP_STK for _Script_IfValueCompare_b_sloc1_1_0
                           9433 ;	AOP_STK for _Script_IfValueCompare_b_sloc0_1_0
   1D46 2A                 9434 	ld	a,(hl+)
   1D47 22                 9435 	ld	(hl+),a
   1D48 36 00              9436 	ld	(hl),#0x00
                           9437 ;	genPlus
                           9438 ;	AOP_STK for _Script_IfValueCompare_b_sloc0_1_0
                           9439 ;	AOP_HL for _script_ptr
                           9440 ;	Can't optimise plus by inc, falling back to the normal way
   1D4A 2B                 9441 	dec	hl
   1D4B 2A                 9442 	ld	a,(hl+)
   1D4C 66                 9443 	ld	h,(hl)
   1D4D 6F                 9444 	ld	l,a
   1D4E 09                 9445 	add	hl,bc
   1D4F 7D                 9446 	ld	a,l
   1D50 54                 9447 	ld	d,h
   1D51 21 00 00           9448 	ld	hl,#_script_ptr
   1D54 22                 9449 	ld	(hl+),a
   1D55 72                 9450 	ld	(hl),d
                           9451 ;	genGoto
   1D56 C3 69 1D           9452 	jp	00111$
                           9453 ;	genLabel
   1D59                    9454 00110$:
                           9455 ;	src/ScriptRunner_b.c 1304
                           9456 ;	genPlus
                           9457 ;	AOP_HL for _script_cmd_args_len
                           9458 ;	genPlusIncr
   1D59 21 00 00           9459 	ld	hl,#_script_cmd_args_len
   1D5C 4E                 9460 	ld	c,(hl)
   1D5D 0C                 9461 	inc	c
                           9462 ;	genCast
                           9463 ; Removed redundent load
   1D5E 06 00              9464 	ld	b,#0x00
                           9465 ;	genPlus
                           9466 ;	AOP_HL for _script_ptr
                           9467 ;	Can't optimise plus by inc, falling back to the normal way
   1D60 21 00 00           9468 	ld	hl,#_script_ptr
   1D63 7E                 9469 	ld	a,(hl)
   1D64 81                 9470 	add	a,c
   1D65 22                 9471 	ld	(hl+),a
   1D66 7E                 9472 	ld	a,(hl)
   1D67 88                 9473 	adc	a,b
   1D68 77                 9474 	ld	(hl),a
                           9475 ;	genLabel
   1D69                    9476 00111$:
                           9477 ;	src/ScriptRunner_b.c 1306
                           9478 ;	genAssign
                           9479 ;	AOP_HL for _script_continue
   1D69 21 00 00           9480 	ld	hl,#_script_continue
   1D6C 36 01              9481 	ld	(hl),#0x01
                           9482 ;	genLabel
   1D6E                    9483 00112$:
                           9484 ;	genEndFunction
   1D6E E8 05              9485 	lda	sp,5(sp)
   1D70 C9                 9486 	ret
   1D71                    9487 ___Script_IfValueCompare_b_end:
                           9488 ;	src/ScriptRunner_b.c 1319
                           9489 ;	genLabel
                           9490 ;	genFunction
                           9491 ;	---------------------------------
                           9492 ; Function Script_LoadVectors_b
                           9493 ; ---------------------------------
   1D71                    9494 ___Script_LoadVectors_b_start:
   1D71                    9495 _Script_LoadVectors_b:
   1D71 E8 FD              9496 	lda	sp,-3(sp)
                           9497 ;	src/ScriptRunner_b.c 1321
                           9498 ;	genPointerGet
   1D73 11 00 00           9499 	ld	de,#_script_cmd_args
   1D76 1A                 9500 	ld	a,(de)
   1D77 4F                 9501 	ld	c,a
                           9502 ;	genCast
                           9503 ; Removed redundent load
   1D78 06 00              9504 	ld	b,#0x00
                           9505 ;	genLeftShift
   1D7A 41                 9506 	ld	b,c
   1D7B 0E 00              9507 	ld	c,#0x00
                           9508 ;	genPlus
                           9509 ;	AOP_STK for _Script_LoadVectors_b_sloc0_1_0
                           9510 ;	genPlusIncr
                           9511 ;	Can't optimise plus by inc, falling back to the normal way
   1D7D 11 00 00           9512 	ld	de,#_script_cmd_args
   1D80 21 01 00           9513 	ld	hl,#0x0001
   1D83 19                 9514 	add	hl,de
   1D84 7D                 9515 	ld	a,l
   1D85 54                 9516 	ld	d,h
   1D86 F8 01              9517 	lda	hl,1(sp)
                           9518 ;	genPointerGet
                           9519 ;	AOP_STK for _Script_LoadVectors_b_sloc0_1_0
                           9520 ;	AOP_STK for _Script_LoadVectors_b_sloc1_1_0
   1D88 22                 9521 	ld	(hl+),a
   1D89 72                 9522 	ld	(hl),d
   1D8A 5F                 9523 	ld	e,a
   1D8B 1A                 9524 	ld	a,(de)
   1D8C 2B                 9525 	dec	hl
   1D8D 2B                 9526 	dec	hl
   1D8E 77                 9527 	ld	(hl),a
                           9528 ;	genCast
                           9529 ;	AOP_STK for _Script_LoadVectors_b_sloc1_1_0
                           9530 ;	AOP_STK for _Script_LoadVectors_b_sloc0_1_0
   1D8F 2A                 9531 	ld	a,(hl+)
   1D90 22                 9532 	ld	(hl+),a
   1D91 36 00              9533 	ld	(hl),#0x00
                           9534 ;	genPlus
                           9535 ;	AOP_STK for _Script_LoadVectors_b_sloc0_1_0
                           9536 ;	AOP_HL for _script_ptr_x
                           9537 ;	Can't optimise plus by inc, falling back to the normal way
   1D93 2B                 9538 	dec	hl
   1D94 2A                 9539 	ld	a,(hl+)
   1D95 66                 9540 	ld	h,(hl)
   1D96 6F                 9541 	ld	l,a
   1D97 09                 9542 	add	hl,bc
   1D98 7D                 9543 	ld	a,l
   1D99 54                 9544 	ld	d,h
   1D9A 21 00 00           9545 	ld	hl,#_script_ptr_x
   1D9D 22                 9546 	ld	(hl+),a
   1D9E 72                 9547 	ld	(hl),d
                           9548 ;	src/ScriptRunner_b.c 1322
                           9549 ;	genPlus
                           9550 ;	genPlusIncr
   1D9F 01 02 00           9551 	ld	bc,#_script_cmd_args + 2
                           9552 ;	genPointerGet
   1DA2 0A                 9553 	ld	a,(bc)
   1DA3 4F                 9554 	ld	c,a
                           9555 ;	genCast
                           9556 ; Removed redundent load
   1DA4 06 00              9557 	ld	b,#0x00
                           9558 ;	genLeftShift
   1DA6 41                 9559 	ld	b,c
   1DA7 0E 00              9560 	ld	c,#0x00
                           9561 ;	genPlus
                           9562 ;	AOP_STK for _Script_LoadVectors_b_sloc0_1_0
                           9563 ;	genPlusIncr
                           9564 ;	Can't optimise plus by inc, falling back to the normal way
   1DA9 11 00 00           9565 	ld	de,#_script_cmd_args
   1DAC 21 03 00           9566 	ld	hl,#0x0003
   1DAF 19                 9567 	add	hl,de
   1DB0 7D                 9568 	ld	a,l
   1DB1 54                 9569 	ld	d,h
   1DB2 F8 01              9570 	lda	hl,1(sp)
                           9571 ;	genPointerGet
                           9572 ;	AOP_STK for _Script_LoadVectors_b_sloc0_1_0
                           9573 ;	AOP_STK for _Script_LoadVectors_b_sloc1_1_0
   1DB4 22                 9574 	ld	(hl+),a
   1DB5 72                 9575 	ld	(hl),d
   1DB6 5F                 9576 	ld	e,a
   1DB7 1A                 9577 	ld	a,(de)
   1DB8 2B                 9578 	dec	hl
   1DB9 2B                 9579 	dec	hl
   1DBA 77                 9580 	ld	(hl),a
                           9581 ;	genCast
                           9582 ;	AOP_STK for _Script_LoadVectors_b_sloc1_1_0
                           9583 ;	AOP_STK for _Script_LoadVectors_b_sloc0_1_0
   1DBB 2A                 9584 	ld	a,(hl+)
   1DBC 22                 9585 	ld	(hl+),a
   1DBD 36 00              9586 	ld	(hl),#0x00
                           9587 ;	genPlus
                           9588 ;	AOP_STK for _Script_LoadVectors_b_sloc0_1_0
                           9589 ;	AOP_HL for _script_ptr_y
                           9590 ;	Can't optimise plus by inc, falling back to the normal way
   1DBF 2B                 9591 	dec	hl
   1DC0 2A                 9592 	ld	a,(hl+)
   1DC1 66                 9593 	ld	h,(hl)
   1DC2 6F                 9594 	ld	l,a
   1DC3 09                 9595 	add	hl,bc
   1DC4 7D                 9596 	ld	a,l
   1DC5 54                 9597 	ld	d,h
   1DC6 21 00 00           9598 	ld	hl,#_script_ptr_y
   1DC9 22                 9599 	ld	(hl+),a
   1DCA 72                 9600 	ld	(hl),d
                           9601 ;	src/ScriptRunner_b.c 1323
                           9602 ;	genPlus
                           9603 ;	AOP_HL for _script_cmd_args_len
                           9604 ;	genPlusIncr
   1DCB 21 00 00           9605 	ld	hl,#_script_cmd_args_len
   1DCE 4E                 9606 	ld	c,(hl)
   1DCF 0C                 9607 	inc	c
                           9608 ;	genCast
                           9609 ; Removed redundent load
   1DD0 06 00              9610 	ld	b,#0x00
                           9611 ;	genPlus
                           9612 ;	AOP_HL for _script_ptr
                           9613 ;	Can't optimise plus by inc, falling back to the normal way
   1DD2 21 00 00           9614 	ld	hl,#_script_ptr
   1DD5 7E                 9615 	ld	a,(hl)
   1DD6 81                 9616 	add	a,c
   1DD7 22                 9617 	ld	(hl+),a
   1DD8 7E                 9618 	ld	a,(hl)
   1DD9 88                 9619 	adc	a,b
   1DDA 77                 9620 	ld	(hl),a
                           9621 ;	src/ScriptRunner_b.c 1324
                           9622 ;	genAssign
                           9623 ;	AOP_HL for _script_continue
   1DDB 21 00 00           9624 	ld	hl,#_script_continue
   1DDE 36 01              9625 	ld	(hl),#0x01
                           9626 ;	genLabel
   1DE0                    9627 00101$:
                           9628 ;	genEndFunction
   1DE0 E8 03              9629 	lda	sp,3(sp)
   1DE2 C9                 9630 	ret
   1DE3                    9631 ___Script_LoadVectors_b_end:
                           9632 ;	src/ScriptRunner_b.c 1334
                           9633 ;	genLabel
                           9634 ;	genFunction
                           9635 ;	---------------------------------
                           9636 ; Function Script_ActorSetMoveSpeed_b
                           9637 ; ---------------------------------
   1DE3                    9638 ___Script_ActorSetMoveSpeed_b_start:
   1DE3                    9639 _Script_ActorSetMoveSpeed_b:
                           9640 	
                           9641 ;	src/ScriptRunner_b.c 1336
                           9642 ;	genMult
                           9643 ;	AOP_HL for _script_actor
   1DE3 21 00 00           9644 	ld	hl,#_script_actor
   1DE6 5E                 9645 	ld	e,(hl)
   1DE7 16 00              9646 	ld	d,#0x00
   1DE9 6B                 9647 	ld	l,e
   1DEA 62                 9648 	ld	h,d
   1DEB 29                 9649 	add	hl,hl
   1DEC 29                 9650 	add	hl,hl
   1DED 19                 9651 	add	hl,de
   1DEE 29                 9652 	add	hl,hl
   1DEF 19                 9653 	add	hl,de
   1DF0 29                 9654 	add	hl,hl
   1DF1 4D                 9655 	ld	c,l
   1DF2 44                 9656 	ld	b,h
                           9657 ;	genPlus
                           9658 ;	Can't optimise plus by inc, falling back to the normal way
   1DF3 21 00 00           9659 	ld	hl,#_actors
   1DF6 09                 9660 	add	hl,bc
   1DF7 4D                 9661 	ld	c,l
   1DF8 44                 9662 	ld	b,h
                           9663 ;	genPlus
                           9664 ;	genPlusIncr
                           9665 ;	Can't optimise plus by inc, falling back to the normal way
   1DF9 79                 9666 	ld	a,c
   1DFA C6 0D              9667 	add	a,#0x0D
   1DFC 4F                 9668 	ld	c,a
   1DFD 78                 9669 	ld	a,b
   1DFE CE 00              9670 	adc	a,#0x00
   1E00 47                 9671 	ld	b,a
                           9672 ;	genPointerGet
   1E01 11 00 00           9673 	ld	de,#_script_cmd_args
   1E04 1A                 9674 	ld	a,(de)
                           9675 ;	genAssign (pointer)
   1E05 02                 9676 	ld	(bc),a
                           9677 ;	src/ScriptRunner_b.c 1337
                           9678 ;	genPlus
                           9679 ;	AOP_HL for _script_cmd_args_len
                           9680 ;	genPlusIncr
   1E06 21 00 00           9681 	ld	hl,#_script_cmd_args_len
   1E09 4E                 9682 	ld	c,(hl)
   1E0A 0C                 9683 	inc	c
                           9684 ;	genCast
                           9685 ; Removed redundent load
   1E0B 06 00              9686 	ld	b,#0x00
                           9687 ;	genPlus
                           9688 ;	AOP_HL for _script_ptr
                           9689 ;	Can't optimise plus by inc, falling back to the normal way
   1E0D 21 00 00           9690 	ld	hl,#_script_ptr
   1E10 7E                 9691 	ld	a,(hl)
   1E11 81                 9692 	add	a,c
   1E12 22                 9693 	ld	(hl+),a
   1E13 7E                 9694 	ld	a,(hl)
   1E14 88                 9695 	adc	a,b
   1E15 77                 9696 	ld	(hl),a
                           9697 ;	src/ScriptRunner_b.c 1338
                           9698 ;	genAssign
                           9699 ;	AOP_HL for _script_continue
   1E16 21 00 00           9700 	ld	hl,#_script_continue
   1E19 36 01              9701 	ld	(hl),#0x01
                           9702 ;	genLabel
   1E1B                    9703 00101$:
                           9704 ;	genEndFunction
                           9705 	
   1E1B C9                 9706 	ret
   1E1C                    9707 ___Script_ActorSetMoveSpeed_b_end:
                           9708 ;	src/ScriptRunner_b.c 1348
                           9709 ;	genLabel
                           9710 ;	genFunction
                           9711 ;	---------------------------------
                           9712 ; Function Script_ActorSetAnimSpeed_b
                           9713 ; ---------------------------------
   1E1C                    9714 ___Script_ActorSetAnimSpeed_b_start:
   1E1C                    9715 _Script_ActorSetAnimSpeed_b:
                           9716 	
                           9717 ;	src/ScriptRunner_b.c 1350
                           9718 ;	genMult
                           9719 ;	AOP_HL for _script_actor
   1E1C 21 00 00           9720 	ld	hl,#_script_actor
   1E1F 5E                 9721 	ld	e,(hl)
   1E20 16 00              9722 	ld	d,#0x00
   1E22 6B                 9723 	ld	l,e
   1E23 62                 9724 	ld	h,d
   1E24 29                 9725 	add	hl,hl
   1E25 29                 9726 	add	hl,hl
   1E26 19                 9727 	add	hl,de
   1E27 29                 9728 	add	hl,hl
   1E28 19                 9729 	add	hl,de
   1E29 29                 9730 	add	hl,hl
   1E2A 4D                 9731 	ld	c,l
   1E2B 44                 9732 	ld	b,h
                           9733 ;	genPlus
                           9734 ;	Can't optimise plus by inc, falling back to the normal way
   1E2C 21 00 00           9735 	ld	hl,#_actors
   1E2F 09                 9736 	add	hl,bc
   1E30 4D                 9737 	ld	c,l
   1E31 44                 9738 	ld	b,h
                           9739 ;	genPlus
                           9740 ;	genPlusIncr
                           9741 ;	Can't optimise plus by inc, falling back to the normal way
   1E32 79                 9742 	ld	a,c
   1E33 C6 0E              9743 	add	a,#0x0E
   1E35 4F                 9744 	ld	c,a
   1E36 78                 9745 	ld	a,b
   1E37 CE 00              9746 	adc	a,#0x00
   1E39 47                 9747 	ld	b,a
                           9748 ;	genPointerGet
   1E3A 11 00 00           9749 	ld	de,#_script_cmd_args
   1E3D 1A                 9750 	ld	a,(de)
                           9751 ;	genAssign (pointer)
   1E3E 02                 9752 	ld	(bc),a
                           9753 ;	src/ScriptRunner_b.c 1351
                           9754 ;	genPlus
                           9755 ;	AOP_HL for _script_cmd_args_len
                           9756 ;	genPlusIncr
   1E3F 21 00 00           9757 	ld	hl,#_script_cmd_args_len
   1E42 4E                 9758 	ld	c,(hl)
   1E43 0C                 9759 	inc	c
                           9760 ;	genCast
                           9761 ; Removed redundent load
   1E44 06 00              9762 	ld	b,#0x00
                           9763 ;	genPlus
                           9764 ;	AOP_HL for _script_ptr
                           9765 ;	Can't optimise plus by inc, falling back to the normal way
   1E46 21 00 00           9766 	ld	hl,#_script_ptr
   1E49 7E                 9767 	ld	a,(hl)
   1E4A 81                 9768 	add	a,c
   1E4B 22                 9769 	ld	(hl+),a
   1E4C 7E                 9770 	ld	a,(hl)
   1E4D 88                 9771 	adc	a,b
   1E4E 77                 9772 	ld	(hl),a
                           9773 ;	src/ScriptRunner_b.c 1352
                           9774 ;	genAssign
                           9775 ;	AOP_HL for _script_continue
   1E4F 21 00 00           9776 	ld	hl,#_script_continue
   1E52 36 01              9777 	ld	(hl),#0x01
                           9778 ;	genLabel
   1E54                    9779 00101$:
                           9780 ;	genEndFunction
                           9781 	
   1E54 C9                 9782 	ret
   1E55                    9783 ___Script_ActorSetAnimSpeed_b_end:
                           9784 ;	src/ScriptRunner_b.c 1363
                           9785 ;	genLabel
                           9786 ;	genFunction
                           9787 ;	---------------------------------
                           9788 ; Function Script_TextSetAnimSpeed_b
                           9789 ; ---------------------------------
   1E55                    9790 ___Script_TextSetAnimSpeed_b_start:
   1E55                    9791 _Script_TextSetAnimSpeed_b:
                           9792 	
                           9793 ;	src/ScriptRunner_b.c 1365
                           9794 ;	genPointerGet
                           9795 ;	AOP_HL for _text_in_speed
   1E55 11 00 00           9796 	ld	de,#_script_cmd_args
   1E58 1A                 9797 	ld	a,(de)
   1E59 21 00 00           9798 	ld	hl,#_text_in_speed
   1E5C 77                 9799 	ld	(hl),a
                           9800 ;	src/ScriptRunner_b.c 1366
                           9801 ;	genPlus
                           9802 ;	genPlusIncr
   1E5D 01 01 00           9803 	ld	bc,#_script_cmd_args + 1
                           9804 ;	genPointerGet
                           9805 ;	AOP_HL for _text_out_speed
   1E60 0A                 9806 	ld	a,(bc)
   1E61 21 00 00           9807 	ld	hl,#_text_out_speed
   1E64 77                 9808 	ld	(hl),a
                           9809 ;	src/ScriptRunner_b.c 1367
                           9810 ;	genPlus
                           9811 ;	genPlusIncr
   1E65 01 02 00           9812 	ld	bc,#_script_cmd_args + 2
                           9813 ;	genPointerGet
                           9814 ;	AOP_HL for _text_draw_speed
   1E68 0A                 9815 	ld	a,(bc)
   1E69 21 00 00           9816 	ld	hl,#_text_draw_speed
   1E6C 77                 9817 	ld	(hl),a
                           9818 ;	src/ScriptRunner_b.c 1368
                           9819 ;	genPlus
                           9820 ;	AOP_HL for _script_cmd_args_len
                           9821 ;	genPlusIncr
   1E6D 21 00 00           9822 	ld	hl,#_script_cmd_args_len
   1E70 4E                 9823 	ld	c,(hl)
   1E71 0C                 9824 	inc	c
                           9825 ;	genCast
                           9826 ; Removed redundent load
   1E72 06 00              9827 	ld	b,#0x00
                           9828 ;	genPlus
                           9829 ;	AOP_HL for _script_ptr
                           9830 ;	Can't optimise plus by inc, falling back to the normal way
   1E74 21 00 00           9831 	ld	hl,#_script_ptr
   1E77 7E                 9832 	ld	a,(hl)
   1E78 81                 9833 	add	a,c
   1E79 22                 9834 	ld	(hl+),a
   1E7A 7E                 9835 	ld	a,(hl)
   1E7B 88                 9836 	adc	a,b
   1E7C 77                 9837 	ld	(hl),a
                           9838 ;	src/ScriptRunner_b.c 1369
                           9839 ;	genAssign
                           9840 ;	AOP_HL for _script_continue
   1E7D 21 00 00           9841 	ld	hl,#_script_continue
   1E80 36 01              9842 	ld	(hl),#0x01
                           9843 ;	genLabel
   1E82                    9844 00101$:
                           9845 ;	genEndFunction
                           9846 	
   1E82 C9                 9847 	ret
   1E83                    9848 ___Script_TextSetAnimSpeed_b_end:
                           9849 ;	src/ScriptRunner_b.c 1377
                           9850 ;	genLabel
                           9851 ;	genFunction
                           9852 ;	---------------------------------
                           9853 ; Function Script_ActorInvoke_b
                           9854 ; ---------------------------------
   1E83                    9855 ___Script_ActorInvoke_b_start:
   1E83                    9856 _Script_ActorInvoke_b:
                           9857 	
                           9858 ;	src/ScriptRunner_b.c 1379
                           9859 ;	genCall
                           9860 ; _saveRegsForCall: sendSetSize: 0 deInUse: 0 bcInUse: 0 deSending: 0
   1E83 CD A7 1E           9861 	call	_Script_StackPush_b
                           9862 ;	src/ScriptRunner_b.c 1380
                           9863 ;	genMult
                           9864 ;	AOP_HL for _script_actor
   1E86 21 00 00           9865 	ld	hl,#_script_actor
   1E89 5E                 9866 	ld	e,(hl)
   1E8A 16 00              9867 	ld	d,#0x00
   1E8C 6B                 9868 	ld	l,e
   1E8D 62                 9869 	ld	h,d
   1E8E 29                 9870 	add	hl,hl
   1E8F 29                 9871 	add	hl,hl
   1E90 19                 9872 	add	hl,de
   1E91 29                 9873 	add	hl,hl
   1E92 19                 9874 	add	hl,de
   1E93 29                 9875 	add	hl,hl
   1E94 4D                 9876 	ld	c,l
   1E95 44                 9877 	ld	b,h
                           9878 ;	genPlus
                           9879 ;	Can't optimise plus by inc, falling back to the normal way
   1E96 21 00 00           9880 	ld	hl,#_actors
   1E99 09                 9881 	add	hl,bc
   1E9A 4D                 9882 	ld	c,l
   1E9B 44                 9883 	ld	b,h
                           9884 ;	genPlus
                           9885 ;	genPlusIncr
   1E9C 21 12 00           9886 	ld	hl,#0x0012
   1E9F 09                 9887 	add	hl,bc
                           9888 ;	genIpush
                           9889 ; _saveRegsForCall: sendSetSize: 0 deInUse: 0 bcInUse: 0 deSending: 0
   1EA0 E5                 9890 	push	hl
                           9891 ;	genCall
   1EA1 CD 00 00           9892 	call	_ScriptStart
   1EA4 E8 02              9893 	lda	sp,2(sp)
                           9894 ;	genLabel
   1EA6                    9895 00101$:
                           9896 ;	genEndFunction
                           9897 	
   1EA6 C9                 9898 	ret
   1EA7                    9899 ___Script_ActorInvoke_b_end:
                           9900 ;	src/ScriptRunner_b.c 1388
                           9901 ;	genLabel
                           9902 ;	genFunction
                           9903 ;	---------------------------------
                           9904 ; Function Script_StackPush_b
                           9905 ; ---------------------------------
   1EA7                    9906 ___Script_StackPush_b_start:
   1EA7                    9907 _Script_StackPush_b:
   1EA7 E8 FB              9908 	lda	sp,-5(sp)
                           9909 ;	src/ScriptRunner_b.c 1390
                           9910 ;	genCast
                           9911 ;	AOP_HL for _script_stack_ptr
   1EA9 21 00 00           9912 	ld	hl,#_script_stack_ptr
   1EAC 4E                 9913 	ld	c,(hl)
   1EAD 06 00              9914 	ld	b,#0x00
                           9915 ;	genLeftShift
   1EAF CB 21              9916 	sla	c
   1EB1 CB 10              9917 	rl	b
                           9918 ;	genPlus
                           9919 ;	Can't optimise plus by inc, falling back to the normal way
   1EB3 21 00 00           9920 	ld	hl,#_script_stack
   1EB6 09                 9921 	add	hl,bc
   1EB7 4D                 9922 	ld	c,l
   1EB8 44                 9923 	ld	b,h
                           9924 ;	genAssign (pointer)
                           9925 ;	AOP_HL for _script_ptr
   1EB9 59                 9926 	ld	e,c
   1EBA 50                 9927 	ld	d,b
   1EBB 21 00 00           9928 	ld	hl,#_script_ptr
   1EBE 7E                 9929 	ld	a,(hl)
   1EBF 12                 9930 	ld	(de),a
   1EC0 13                 9931 	inc	de
   1EC1 23                 9932 	inc	hl
   1EC2 7E                 9933 	ld	a,(hl)
   1EC3 12                 9934 	ld	(de),a
                           9935 ;	src/ScriptRunner_b.c 1391
                           9936 ;	genPlus
                           9937 ;	AOP_HL for _script_cmd_args_len
                           9938 ;	AOP_STK for _Script_StackPush_b_sloc0_1_0
                           9939 ;	genPlusIncr
                           9940 ;	Can't optimise plus by inc, falling back to the normal way
   1EC4 21 00 00           9941 	ld	hl,#_script_cmd_args_len
   1EC7 7E                 9942 	ld	a,(hl)
   1EC8 C6 01              9943 	add	a,#0x01
   1ECA F8 04              9944 	lda	hl,4(sp)
                           9945 ;	genCast
                           9946 ;	AOP_STK for _Script_StackPush_b_sloc0_1_0
                           9947 ;	AOP_STK for _Script_StackPush_b_sloc1_1_0
   1ECC 77                 9948 	ld      (hl),a
   1ECD 7F                 9949 	ld      a,a
   1ECE 2B                 9950 	dec	hl
   1ECF 2B                 9951 	dec	hl
   1ED0 22                 9952 	ld	(hl+),a
   1ED1 36 00              9953 	ld	(hl),#0x00
                           9954 ;	genPlus
                           9955 ;	AOP_HL for _script_ptr
                           9956 ;	AOP_STK for _Script_StackPush_b_sloc1_1_0
                           9957 ;	AOP_STK for _Script_StackPush_b_sloc2_1_0
                           9958 ;	Can't optimise plus by inc, falling back to the normal way
   1ED3 21 00 00           9959 	ld	hl,#_script_ptr
   1ED6 5E                 9960 	ld	e,(hl)
   1ED7 23                 9961 	inc	hl
   1ED8 56                 9962 	ld	d,(hl)
   1ED9 F8 02              9963 	lda	hl,2(sp)
   1EDB 2A                 9964 	ld	a,(hl+)
   1EDC 66                 9965 	ld	h,(hl)
   1EDD 6F                 9966 	ld	l,a
   1EDE 19                 9967 	add	hl,de
   1EDF 7D                 9968 	ld	a,l
   1EE0 54                 9969 	ld	d,h
   1EE1 F8 00              9970 	lda	hl,0(sp)
   1EE3 22                 9971 	ld	(hl+),a
   1EE4 72                 9972 	ld	(hl),d
                           9973 ;	genAssign (pointer)
                           9974 ;	AOP_STK for _Script_StackPush_b_sloc2_1_0
   1EE5 59                 9975 	ld	e,c
   1EE6 50                 9976 	ld	d,b
   1EE7 2B                 9977 	dec	hl
   1EE8 7E                 9978 	ld	a,(hl)
   1EE9 12                 9979 	ld	(de),a
   1EEA 13                 9980 	inc	de
   1EEB 23                 9981 	inc	hl
   1EEC 7E                 9982 	ld	a,(hl)
   1EED 12                 9983 	ld	(de),a
                           9984 ;	src/ScriptRunner_b.c 1392
                           9985 ;	genPlus
                           9986 ;	AOP_HL for _script_stack_ptr
                           9987 ;	genPlusIncr
   1EEE 21 00 00           9988 	ld	hl,#_script_stack_ptr
   1EF1 34                 9989 	inc	(hl)
                           9990 ;	genLabel
   1EF2                    9991 00101$:
                           9992 ;	genEndFunction
   1EF2 E8 05              9993 	lda	sp,5(sp)
   1EF4 C9                 9994 	ret
   1EF5                    9995 ___Script_StackPush_b_end:
                           9996 ;	src/ScriptRunner_b.c 1400
                           9997 ;	genLabel
                           9998 ;	genFunction
                           9999 ;	---------------------------------
                          10000 ; Function Script_StackPop_b
                          10001 ; ---------------------------------
   1EF5                   10002 ___Script_StackPop_b_start:
   1EF5                   10003 _Script_StackPop_b:
                          10004 	
                          10005 ;	src/ScriptRunner_b.c 1402
                          10006 ;	genMinus
                          10007 ;	AOP_HL for _script_stack_ptr
   1EF5 21 00 00          10008 	ld	hl,#_script_stack_ptr
   1EF8 35                10009 	dec	(hl)
                          10010 ;	src/ScriptRunner_b.c 1403
                          10011 ;	genCast
                          10012 ;	AOP_HL for _script_stack_ptr
   1EF9 4E                10013 	ld	c,(hl)
   1EFA 06 00             10014 	ld	b,#0x00
                          10015 ;	genLeftShift
   1EFC CB 21             10016 	sla	c
   1EFE CB 10             10017 	rl	b
                          10018 ;	genPlus
                          10019 ;	Can't optimise plus by inc, falling back to the normal way
   1F00 21 00 00          10020 	ld	hl,#_script_stack
   1F03 09                10021 	add	hl,bc
   1F04 4D                10022 	ld	c,l
   1F05 44                10023 	ld	b,h
                          10024 ;	genPointerGet
                          10025 ;	AOP_HL for _script_ptr
   1F06 59                10026 	ld	e,c
   1F07 50                10027 	ld	d,b
   1F08 1A                10028 	ld	a,(de)
   1F09 21 00 00          10029 	ld	hl,#_script_ptr
   1F0C 77                10030 	ld	(hl),a
   1F0D 13                10031 	inc	de
   1F0E 1A                10032 	ld	a,(de)
   1F0F 23                10033 	inc	hl
   1F10 77                10034 	ld	(hl),a
                          10035 ;	src/ScriptRunner_b.c 1404
                          10036 ;	genAssign
                          10037 ;	AOP_HL for _script_continue
   1F11 21 00 00          10038 	ld	hl,#_script_continue
   1F14 36 01             10039 	ld	(hl),#0x01
                          10040 ;	genLabel
   1F16                   10041 00101$:
                          10042 ;	genEndFunction
                          10043 	
   1F16 C9                10044 	ret
   1F17                   10045 ___Script_StackPop_b_end:
                          10046 ;	src/ScriptRunner_b.c 1412
                          10047 ;	genLabel
                          10048 ;	genFunction
                          10049 ;	---------------------------------
                          10050 ; Function Script_ScenePushState_b
                          10051 ; ---------------------------------
   1F17                   10052 ___Script_ScenePushState_b_start:
   1F17                   10053 _Script_ScenePushState_b:
   1F17 E8 FB             10054 	lda	sp,-5(sp)
                          10055 ;	src/ScriptRunner_b.c 1414
                          10056 ;	genCmpLt
                          10057 ;	AOP_HL for _scene_stack_ptr
   1F19 21 00 00          10058 	ld	hl,#_scene_stack_ptr
   1F1C 7E                10059 	ld	a,(hl)
   1F1D FE 08             10060 	cp	#0x08
   1F1F D2 D5 1F          10061 	jp	nc,00102$
                          10062 ;	src/ScriptRunner_b.c 1416
                          10063 ;	genMult
                          10064 ;	AOP_HL for _scene_stack_ptr
   1F22 5E                10065 	ld	e,(hl)
   1F23 16 00             10066 	ld	d,#0x00
   1F25 6B                10067 	ld	l,e
   1F26 62                10068 	ld	h,d
   1F27 29                10069 	add	hl,hl
   1F28 19                10070 	add	hl,de
   1F29 29                10071 	add	hl,hl
   1F2A 4D                10072 	ld	c,l
   1F2B 44                10073 	ld	b,h
                          10074 ;	genPlus
                          10075 ;	Can't optimise plus by inc, falling back to the normal way
   1F2C 21 00 00          10076 	ld	hl,#_scene_stack
   1F2F 09                10077 	add	hl,bc
   1F30 4D                10078 	ld	c,l
   1F31 44                10079 	ld	b,h
                          10080 ;	genAssign (pointer)
                          10081 ;	AOP_HL for _scene_index
   1F32 59                10082 	ld	e,c
   1F33 50                10083 	ld	d,b
   1F34 21 00 00          10084 	ld	hl,#_scene_index
   1F37 7E                10085 	ld	a,(hl)
   1F38 12                10086 	ld	(de),a
   1F39 13                10087 	inc	de
   1F3A 23                10088 	inc	hl
   1F3B 7E                10089 	ld	a,(hl)
   1F3C 12                10090 	ld	(de),a
                          10091 ;	src/ScriptRunner_b.c 1417
                          10092 ;	genPlus
                          10093 ;	AOP_STK for _Script_ScenePushState_b_sloc0_1_0
                          10094 ;	genPlusIncr
                          10095 ;	Can't optimise plus by inc, falling back to the normal way
   1F3D 21 04 00          10096 	ld	hl,#0x0004
   1F40 09                10097 	add	hl,bc
   1F41 7D                10098 	ld	a,l
   1F42 54                10099 	ld	d,h
   1F43 F8 03             10100 	lda	hl,3(sp)
   1F45 22                10101 	ld	(hl+),a
   1F46 72                10102 	ld	(hl),d
                          10103 ;	genPlus
                          10104 ;	AOP_STK for _Script_ScenePushState_b_sloc1_1_0
                          10105 ;	genPlusIncr
                          10106 ;	Can't optimise plus by inc, falling back to the normal way
   1F47 11 00 00          10107 	ld	de,#_actors
   1F4A 21 03 00          10108 	ld	hl,#0x0003
   1F4D 19                10109 	add	hl,de
   1F4E 7D                10110 	ld	a,l
   1F4F 54                10111 	ld	d,h
   1F50 F8 01             10112 	lda	hl,1(sp)
                          10113 ;	genPointerGet
                          10114 ;	AOP_STK for _Script_ScenePushState_b_sloc1_1_0
   1F52 22                10115 	ld	(hl+),a
   1F53 72                10116 	ld	(hl),d
   1F54 5F                10117 	ld	e,a
   1F55 1A                10118 	ld	a,(de)
                          10119 ;	genAssign (pointer)
                          10120 ;	AOP_STK for _Script_ScenePushState_b_sloc0_1_0
   1F56 23                10121 	inc	hl
   1F57 5E                10122 	ld	e,(hl)
   1F58 23                10123 	inc	hl
   1F59 56                10124 	ld	d,(hl)
   1F5A 12                10125 	ld	(de),a
                          10126 ;	src/ScriptRunner_b.c 1418
                          10127 ;	genPlus
                          10128 ;	AOP_STK for _Script_ScenePushState_b_sloc1_1_0
                          10129 ;	genPlusIncr
                          10130 ;	Can't optimise plus by inc, falling back to the normal way
   1F5B 21 05 00          10131 	ld	hl,#0x0005
   1F5E 09                10132 	add	hl,bc
   1F5F 7D                10133 	ld	a,l
   1F60 54                10134 	ld	d,h
   1F61 F8 01             10135 	lda	hl,1(sp)
   1F63 22                10136 	ld	(hl+),a
   1F64 72                10137 	ld	(hl),d
                          10138 ;	genPlus
                          10139 ;	AOP_STK for _Script_ScenePushState_b_sloc0_1_0
                          10140 ;	genPlusIncr
                          10141 ;	Can't optimise plus by inc, falling back to the normal way
   1F65 11 00 00          10142 	ld	de,#_actors
   1F68 21 04 00          10143 	ld	hl,#0x0004
   1F6B 19                10144 	add	hl,de
   1F6C 7D                10145 	ld	a,l
   1F6D 54                10146 	ld	d,h
   1F6E F8 03             10147 	lda	hl,3(sp)
                          10148 ;	genPointerGet
                          10149 ;	AOP_STK for _Script_ScenePushState_b_sloc0_1_0
   1F70 22                10150 	ld	(hl+),a
   1F71 72                10151 	ld	(hl),d
   1F72 5F                10152 	ld	e,a
   1F73 1A                10153 	ld	a,(de)
                          10154 ;	genAssign (pointer)
                          10155 ;	AOP_STK for _Script_ScenePushState_b_sloc1_1_0
   1F74 F8 01             10156 	lda	hl,1(sp)
   1F76 5E                10157 	ld	e,(hl)
   1F77 23                10158 	inc	hl
   1F78 56                10159 	ld	d,(hl)
   1F79 12                10160 	ld	(de),a
                          10161 ;	src/ScriptRunner_b.c 1419
                          10162 ;	genPlus
                          10163 ;	AOP_STK for _Script_ScenePushState_b_sloc1_1_0
                          10164 ;	genPlusIncr
                          10165 ;	Can't optimise plus by inc, falling back to the normal way
   1F7A 21 02 00          10166 	ld	hl,#0x0002
   1F7D 09                10167 	add	hl,bc
   1F7E 7D                10168 	ld	a,l
   1F7F 54                10169 	ld	d,h
   1F80 F8 01             10170 	lda	hl,1(sp)
   1F82 22                10171 	ld	(hl+),a
   1F83 72                10172 	ld	(hl),d
                          10173 ;	genAssign (pointer)
                          10174 ;	AOP_STK for _Script_ScenePushState_b_sloc1_1_0
   1F84 2B                10175 	dec	hl
   1F85 5E                10176 	ld	e,(hl)
   1F86 23                10177 	inc	hl
   1F87 56                10178 	ld	d,(hl)
   1F88 3E 00             10179 	ld	a,#0x00
   1F8A 12                10180 	ld	(de),a
                          10181 ;	src/ScriptRunner_b.c 1420
                          10182 ;	genPlus
                          10183 ;	AOP_STK for _Script_ScenePushState_b_sloc0_1_0
                          10184 ;	genPlusIncr
                          10185 ;	Can't optimise plus by inc, falling back to the normal way
   1F8B 11 00 00          10186 	ld	de,#_actors
   1F8E 21 01 00          10187 	ld	hl,#0x0001
   1F91 19                10188 	add	hl,de
   1F92 7D                10189 	ld	a,l
   1F93 54                10190 	ld	d,h
   1F94 F8 03             10191 	lda	hl,3(sp)
                          10192 ;	genPointerGet
                          10193 ;	AOP_STK for _Script_ScenePushState_b_sloc0_1_0
                          10194 ;	AOP_STK for _Script_ScenePushState_b_sloc2_1_0
   1F96 22                10195 	ld	(hl+),a
   1F97 72                10196 	ld	(hl),d
   1F98 5F                10197 	ld	e,a
   1F99 1A                10198 	ld	a,(de)
   1F9A F8 00             10199 	lda	hl,0(sp)
                          10200 ;	genRightShift
                          10201 ;	AOP_STK for _Script_ScenePushState_b_sloc2_1_0
                          10202 ;	AOP_STK for _Script_ScenePushState_b_sloc0_1_0
   1F9C 77                10203 	ld      (hl),a
   1F9D 7F                10204 	ld      a,a
   1F9E CB 3F             10205 	srl	a
   1FA0 CB 3F             10206 	srl	a
   1FA2 CB 3F             10207 	srl	a
   1FA4 F8 03             10208 	lda	hl,3(sp)
                          10209 ;	genAssign (pointer)
                          10210 ;	AOP_STK for _Script_ScenePushState_b_sloc1_1_0
                          10211 ;	AOP_STK for _Script_ScenePushState_b_sloc0_1_0
   1FA6 32                10212 	ld      (hl-),a
   1FA7 2B                10213 	dec	hl
   1FA8 5E                10214 	ld	e,(hl)
   1FA9 23                10215 	inc	hl
   1FAA 56                10216 	ld	d,(hl)
   1FAB 23                10217 	inc	hl
   1FAC 7E                10218 	ld	a,(hl)
   1FAD 12                10219 	ld	(de),a
                          10220 ;	src/ScriptRunner_b.c 1421
                          10221 ;	genPlus
                          10222 ;	genPlusIncr
   1FAE 03                10223 	inc	bc
   1FAF 03                10224 	inc	bc
   1FB0 03                10225 	inc	bc
                          10226 ;	genAssign (pointer)
   1FB1 3E 00             10227 	ld	a,#0x00
   1FB3 02                10228 	ld	(bc),a
                          10229 ;	src/ScriptRunner_b.c 1422
                          10230 ;	genPlus
                          10231 ;	AOP_STK for _Script_ScenePushState_b_sloc1_1_0
                          10232 ;	genPlusIncr
                          10233 ;	Can't optimise plus by inc, falling back to the normal way
   1FB4 11 00 00          10234 	ld	de,#_actors
   1FB7 21 02 00          10235 	ld	hl,#0x0002
   1FBA 19                10236 	add	hl,de
   1FBB 7D                10237 	ld	a,l
   1FBC 54                10238 	ld	d,h
   1FBD F8 01             10239 	lda	hl,1(sp)
                          10240 ;	genPointerGet
                          10241 ;	AOP_STK for _Script_ScenePushState_b_sloc1_1_0
                          10242 ;	AOP_STK for _Script_ScenePushState_b_sloc2_1_0
   1FBF 22                10243 	ld	(hl+),a
   1FC0 72                10244 	ld	(hl),d
   1FC1 5F                10245 	ld	e,a
   1FC2 1A                10246 	ld	a,(de)
   1FC3 2B                10247 	dec	hl
   1FC4 2B                10248 	dec	hl
                          10249 ;	genRightShift
                          10250 ;	AOP_STK for _Script_ScenePushState_b_sloc2_1_0
                          10251 ;	AOP_STK for _Script_ScenePushState_b_sloc1_1_0
   1FC5 77                10252 	ld      (hl),a
   1FC6 7F                10253 	ld      a,a
   1FC7 CB 3F             10254 	srl	a
   1FC9 CB 3F             10255 	srl	a
   1FCB CB 3F             10256 	srl	a
   1FCD 23                10257 	inc	hl
                          10258 ;	genAssign (pointer)
                          10259 ;	AOP_STK for _Script_ScenePushState_b_sloc1_1_0
   1FCE 77                10260 	ld      (hl),a
   1FCF 7F                10261 	ld      a,a
   1FD0 02                10262 	ld	(bc),a
                          10263 ;	src/ScriptRunner_b.c 1423
                          10264 ;	genPlus
                          10265 ;	AOP_HL for _scene_stack_ptr
                          10266 ;	genPlusIncr
   1FD1 21 00 00          10267 	ld	hl,#_scene_stack_ptr
   1FD4 34                10268 	inc	(hl)
                          10269 ;	genLabel
   1FD5                   10270 00102$:
                          10271 ;	src/ScriptRunner_b.c 1426
                          10272 ;	genPlus
                          10273 ;	AOP_HL for _script_cmd_args_len
                          10274 ;	genPlusIncr
   1FD5 21 00 00          10275 	ld	hl,#_script_cmd_args_len
   1FD8 4E                10276 	ld	c,(hl)
   1FD9 0C                10277 	inc	c
                          10278 ;	genCast
                          10279 ; Removed redundent load
   1FDA 06 00             10280 	ld	b,#0x00
                          10281 ;	genPlus
                          10282 ;	AOP_HL for _script_ptr
                          10283 ;	Can't optimise plus by inc, falling back to the normal way
   1FDC 21 00 00          10284 	ld	hl,#_script_ptr
   1FDF 7E                10285 	ld	a,(hl)
   1FE0 81                10286 	add	a,c
   1FE1 22                10287 	ld	(hl+),a
   1FE2 7E                10288 	ld	a,(hl)
   1FE3 88                10289 	adc	a,b
   1FE4 77                10290 	ld	(hl),a
                          10291 ;	src/ScriptRunner_b.c 1427
                          10292 ;	genAssign
                          10293 ;	AOP_HL for _script_continue
   1FE5 21 00 00          10294 	ld	hl,#_script_continue
   1FE8 36 01             10295 	ld	(hl),#0x01
                          10296 ;	genLabel
   1FEA                   10297 00103$:
                          10298 ;	genEndFunction
   1FEA E8 05             10299 	lda	sp,5(sp)
   1FEC C9                10300 	ret
   1FED                   10301 ___Script_ScenePushState_b_end:
                          10302 ;	src/ScriptRunner_b.c 1437
                          10303 ;	genLabel
                          10304 ;	genFunction
                          10305 ;	---------------------------------
                          10306 ; Function Script_ScenePopState_b
                          10307 ; ---------------------------------
   1FED                   10308 ___Script_ScenePopState_b_start:
   1FED                   10309 _Script_ScenePopState_b:
   1FED E8 FB             10310 	lda	sp,-5(sp)
                          10311 ;	src/ScriptRunner_b.c 1439
                          10312 ;	genIfx
                          10313 ;	AOP_HL for _scene_stack_ptr
   1FEF AF                10314 	xor	a,a
   1FF0 21 00 00          10315 	ld	hl,#_scene_stack_ptr
   1FF3 B6                10316 	or	a,(hl)
   1FF4 CA D2 20          10317 	jp	z,00102$
                          10318 ;	src/ScriptRunner_b.c 1441
                          10319 ;	genMinus
                          10320 ;	AOP_HL for _scene_stack_ptr
   1FF7 35                10321 	dec	(hl)
                          10322 ;	src/ScriptRunner_b.c 1443
                          10323 ;	genMult
                          10324 ;	AOP_HL for _scene_stack_ptr
   1FF8 5E                10325 	ld	e,(hl)
   1FF9 16 00             10326 	ld	d,#0x00
   1FFB 6B                10327 	ld	l,e
   1FFC 62                10328 	ld	h,d
   1FFD 29                10329 	add	hl,hl
   1FFE 19                10330 	add	hl,de
   1FFF 29                10331 	add	hl,hl
   2000 4D                10332 	ld	c,l
   2001 44                10333 	ld	b,h
                          10334 ;	genPlus
                          10335 ;	Can't optimise plus by inc, falling back to the normal way
   2002 21 00 00          10336 	ld	hl,#_scene_stack
   2005 09                10337 	add	hl,bc
   2006 4D                10338 	ld	c,l
   2007 44                10339 	ld	b,h
                          10340 ;	genPointerGet
                          10341 ;	AOP_HL for _scene_next_index
   2008 59                10342 	ld	e,c
   2009 50                10343 	ld	d,b
   200A 1A                10344 	ld	a,(de)
   200B 21 00 00          10345 	ld	hl,#_scene_next_index
   200E 77                10346 	ld	(hl),a
   200F 13                10347 	inc	de
   2010 1A                10348 	ld	a,(de)
   2011 23                10349 	inc	hl
                          10350 ;	src/ScriptRunner_b.c 1444
                          10351 ;	genPlus
                          10352 ;	AOP_HL for _scene_next_index
                          10353 ;	AOP_HL for _scene_index
                          10354 ;	genPlusIncr
                          10355 ;	Can't optimise plus by inc, falling back to the normal way
   2012 32                10356 	ld      (hl-),a
   2013 7E                10357 	ld	a,(hl)
   2014 C6 01             10358 	add	a,#0x01
   2016 21 00 00          10359 	ld	hl,#_scene_index
   2019 77                10360 	ld	(hl),a
   201A 21 01 00          10361 	ld	hl,#_scene_next_index + 1
   201D 7E                10362 	ld	a,(hl)
   201E CE 00             10363 	adc	a,#0x00
   2020 21 01 00          10364 	ld	hl,#_scene_index + 1
   2023 77                10365 	ld	(hl),a
                          10366 ;	src/ScriptRunner_b.c 1446
                          10367 ;	genAssign (pointer)
   2024 11 00 00          10368 	ld	de,#_map_next_pos
   2027 3E 00             10369 	ld	a,#0x00
   2029 12                10370 	ld	(de),a
                          10371 ;	src/ScriptRunner_b.c 1447
                          10372 ;	genPlus
                          10373 ;	AOP_STK for _Script_ScenePopState_b_sloc0_1_0
                          10374 ;	genPlusIncr
                          10375 ;	Can't optimise plus by inc, falling back to the normal way
   202A 21 02 00          10376 	ld	hl,#0x0002
   202D 09                10377 	add	hl,bc
   202E 7D                10378 	ld	a,l
   202F 54                10379 	ld	d,h
   2030 F8 03             10380 	lda	hl,3(sp)
                          10381 ;	genPointerGet
                          10382 ;	AOP_STK for _Script_ScenePopState_b_sloc0_1_0
                          10383 ;	AOP_STK for _Script_ScenePopState_b_sloc1_1_0
   2032 22                10384 	ld	(hl+),a
   2033 72                10385 	ld	(hl),d
   2034 5F                10386 	ld	e,a
   2035 1A                10387 	ld	a,(de)
   2036 2B                10388 	dec	hl
   2037 2B                10389 	dec	hl
                          10390 ;	genLeftShift
                          10391 ;	AOP_STK for _Script_ScenePopState_b_sloc1_1_0
                          10392 ;	AOP_STK for _Script_ScenePopState_b_sloc0_1_0
   2038 77                10393 	ld      (hl),a
                          10394 ; Removed redundent load
   2039 CB 27             10395 	sla	a
   203B CB 17             10396 	rl	a
   203D CB 17             10397 	rl	a
   203F E6 F8             10398 	and	a,#0xF8
   2041 23                10399 	inc	hl
   2042 77                10400 	ld	(hl),a
                          10401 ;	genAssign (pointer)
                          10402 ;	AOP_STK for _Script_ScenePopState_b_sloc0_1_0
   2043 11 00 00          10403 	ld	de,#_map_next_pos
   2046 7E                10404 	ld	a,(hl)
   2047 12                10405 	ld	(de),a
                          10406 ;	src/ScriptRunner_b.c 1448
                          10407 ;	genPlus
                          10408 ;	AOP_STK for _Script_ScenePopState_b_sloc0_1_0
                          10409 ;	genPlusIncr
                          10410 ;	Can't optimise plus by inc, falling back to the normal way
   2048 11 00 00          10411 	ld	de,#_map_next_pos
   204B 21 01 00          10412 	ld	hl,#0x0001
   204E 19                10413 	add	hl,de
   204F 7D                10414 	ld	a,l
   2050 54                10415 	ld	d,h
   2051 F8 03             10416 	lda	hl,3(sp)
   2053 22                10417 	ld	(hl+),a
   2054 72                10418 	ld	(hl),d
                          10419 ;	genAssign (pointer)
                          10420 ;	AOP_STK for _Script_ScenePopState_b_sloc0_1_0
   2055 2B                10421 	dec	hl
   2056 5E                10422 	ld	e,(hl)
   2057 23                10423 	inc	hl
   2058 56                10424 	ld	d,(hl)
   2059 3E 00             10425 	ld	a,#0x00
   205B 12                10426 	ld	(de),a
                          10427 ;	src/ScriptRunner_b.c 1449
                          10428 ;	genPlus
                          10429 ;	AOP_STK for _Script_ScenePopState_b_sloc2_1_0
                          10430 ;	genPlusIncr
                          10431 ;	Can't optimise plus by inc, falling back to the normal way
   205C 21 03 00          10432 	ld	hl,#0x0003
   205F 09                10433 	add	hl,bc
   2060 7D                10434 	ld	a,l
   2061 54                10435 	ld	d,h
   2062 F8 00             10436 	lda	hl,0(sp)
                          10437 ;	genPointerGet
                          10438 ;	AOP_STK for _Script_ScenePopState_b_sloc2_1_0
                          10439 ;	AOP_STK for _Script_ScenePopState_b_sloc1_1_0
   2064 22                10440 	ld	(hl+),a
   2065 72                10441 	ld	(hl),d
   2066 5F                10442 	ld	e,a
   2067 1A                10443 	ld	a,(de)
   2068 23                10444 	inc	hl
                          10445 ;	genLeftShift
                          10446 ;	AOP_STK for _Script_ScenePopState_b_sloc1_1_0
                          10447 ;	AOP_STK for _Script_ScenePopState_b_sloc2_1_0
   2069 77                10448 	ld      (hl),a
                          10449 ; Removed redundent load
   206A CB 27             10450 	sla	a
   206C CB 17             10451 	rl	a
   206E CB 17             10452 	rl	a
   2070 E6 F8             10453 	and	a,#0xF8
   2072 2B                10454 	dec	hl
   2073 2B                10455 	dec	hl
   2074 77                10456 	ld	(hl),a
                          10457 ;	genAssign (pointer)
                          10458 ;	AOP_STK for _Script_ScenePopState_b_sloc0_1_0
                          10459 ;	AOP_STK for _Script_ScenePopState_b_sloc2_1_0
   2075 F8 03             10460 	lda	hl,3(sp)
   2077 5E                10461 	ld	e,(hl)
   2078 23                10462 	inc	hl
   2079 56                10463 	ld	d,(hl)
   207A F8 00             10464 	lda	hl,0(sp)
   207C 7E                10465 	ld	a,(hl)
   207D 12                10466 	ld	(de),a
                          10467 ;	src/ScriptRunner_b.c 1450
                          10468 ;	genPlus
                          10469 ;	AOP_STK for _Script_ScenePopState_b_sloc2_1_0
                          10470 ;	genPlusIncr
                          10471 ;	Can't optimise plus by inc, falling back to the normal way
   207E 21 04 00          10472 	ld	hl,#0x0004
   2081 09                10473 	add	hl,bc
   2082 7D                10474 	ld	a,l
   2083 54                10475 	ld	d,h
   2084 F8 00             10476 	lda	hl,0(sp)
                          10477 ;	genPointerGet
                          10478 ;	AOP_STK for _Script_ScenePopState_b_sloc2_1_0
   2086 22                10479 	ld	(hl+),a
   2087 72                10480 	ld	(hl),d
   2088 5F                10481 	ld	e,a
   2089 1A                10482 	ld	a,(de)
                          10483 ;	genAssign (pointer)
   208A 11 00 00          10484 	ld	de,#_map_next_dir
   208D 12                10485 	ld	(de),a
                          10486 ;	src/ScriptRunner_b.c 1451
                          10487 ;	genPlus
                          10488 ;	AOP_STK for _Script_ScenePopState_b_sloc2_1_0
                          10489 ;	genPlusIncr
                          10490 ;	Can't optimise plus by inc, falling back to the normal way
   208E 11 00 00          10491 	ld	de,#_map_next_dir
   2091 21 01 00          10492 	ld	hl,#0x0001
   2094 19                10493 	add	hl,de
   2095 7D                10494 	ld	a,l
   2096 54                10495 	ld	d,h
   2097 F8 00             10496 	lda	hl,0(sp)
   2099 22                10497 	ld	(hl+),a
   209A 72                10498 	ld	(hl),d
                          10499 ;	genPlus
                          10500 ;	genPlusIncr
   209B 03                10501 	inc	bc
   209C 03                10502 	inc	bc
   209D 03                10503 	inc	bc
   209E 03                10504 	inc	bc
   209F 03                10505 	inc	bc
                          10506 ;	genPointerGet
   20A0 0A                10507 	ld	a,(bc)
                          10508 ;	genAssign (pointer)
                          10509 ;	AOP_STK for _Script_ScenePopState_b_sloc2_1_0
   20A1 2B                10510 	dec	hl
   20A2 5E                10511 	ld	e,(hl)
   20A3 23                10512 	inc	hl
   20A4 56                10513 	ld	d,(hl)
   20A5 12                10514 	ld	(de),a
                          10515 ;	src/ScriptRunner_b.c 1453
                          10516 ;	genAssign
                          10517 ;	AOP_HL for _stage_next_type
   20A6 21 00 00          10518 	ld	hl,#_stage_next_type
   20A9 36 01             10519 	ld	(hl),#0x01
                          10520 ;	src/ScriptRunner_b.c 1454
                          10521 ;	genAssign
                          10522 ;	AOP_HL for _script_action_complete
   20AB 21 00 00          10523 	ld	hl,#_script_action_complete
   20AE 36 00             10524 	ld	(hl),#0x00
                          10525 ;	src/ScriptRunner_b.c 1455
                          10526 ;	genPointerGet
   20B0 11 00 00          10527 	ld	de,#_script_cmd_args
   20B3 1A                10528 	ld	a,(de)
                          10529 ;	genIpush
                          10530 ; _saveRegsForCall: sendSetSize: 0 deInUse: 0 bcInUse: 0 deSending: 0
   20B4 4F                10531 	ld	c,a
   20B5 F5                10532 	push	af
   20B6 33                10533 	inc	sp
                          10534 ;	genCall
   20B7 CD 00 00          10535 	call	_FadeSetSpeed
   20BA E8 01             10536 	lda	sp,1(sp)
                          10537 ;	src/ScriptRunner_b.c 1456
                          10538 ;	genCall
                          10539 ; _saveRegsForCall: sendSetSize: 0 deInUse: 0 bcInUse: 0 deSending: 0
   20BC CD 00 00          10540 	call	_FadeOut
                          10541 ;	src/ScriptRunner_b.c 1457
                          10542 ;	genPlus
                          10543 ;	AOP_HL for _script_cmd_args_len
                          10544 ;	genPlusIncr
   20BF 21 00 00          10545 	ld	hl,#_script_cmd_args_len
   20C2 4E                10546 	ld	c,(hl)
   20C3 0C                10547 	inc	c
                          10548 ;	genCast
                          10549 ; Removed redundent load
   20C4 06 00             10550 	ld	b,#0x00
                          10551 ;	genPlus
                          10552 ;	AOP_HL for _script_ptr
                          10553 ;	Can't optimise plus by inc, falling back to the normal way
   20C6 21 00 00          10554 	ld	hl,#_script_ptr
   20C9 7E                10555 	ld	a,(hl)
   20CA 81                10556 	add	a,c
   20CB 22                10557 	ld	(hl+),a
   20CC 7E                10558 	ld	a,(hl)
   20CD 88                10559 	adc	a,b
   20CE 77                10560 	ld	(hl),a
                          10561 ;	src/ScriptRunner_b.c 1459
                          10562 ;	genRet
   20CF C3 E7 20          10563 	jp	00103$
                          10564 ;	genLabel
   20D2                   10565 00102$:
                          10566 ;	src/ScriptRunner_b.c 1462
                          10567 ;	genAssign
                          10568 ;	AOP_HL for _script_action_complete
   20D2 21 00 00          10569 	ld	hl,#_script_action_complete
   20D5 36 01             10570 	ld	(hl),#0x01
                          10571 ;	src/ScriptRunner_b.c 1463
                          10572 ;	genPlus
                          10573 ;	AOP_HL for _script_cmd_args_len
                          10574 ;	genPlusIncr
   20D7 21 00 00          10575 	ld	hl,#_script_cmd_args_len
   20DA 4E                10576 	ld	c,(hl)
   20DB 0C                10577 	inc	c
                          10578 ;	genCast
                          10579 ; Removed redundent load
   20DC 06 00             10580 	ld	b,#0x00
                          10581 ;	genPlus
                          10582 ;	AOP_HL for _script_ptr
                          10583 ;	Can't optimise plus by inc, falling back to the normal way
   20DE 21 00 00          10584 	ld	hl,#_script_ptr
   20E1 7E                10585 	ld	a,(hl)
   20E2 81                10586 	add	a,c
   20E3 22                10587 	ld	(hl+),a
   20E4 7E                10588 	ld	a,(hl)
   20E5 88                10589 	adc	a,b
   20E6 77                10590 	ld	(hl),a
                          10591 ;	genLabel
   20E7                   10592 00103$:
                          10593 ;	genEndFunction
   20E7 E8 05             10594 	lda	sp,5(sp)
   20E9 C9                10595 	ret
   20EA                   10596 ___Script_ScenePopState_b_end:
                          10597 ;	src/ScriptRunner_b.c 1471
                          10598 ;	genLabel
                          10599 ;	genFunction
                          10600 ;	---------------------------------
                          10601 ; Function Script_SceneResetStack_b
                          10602 ; ---------------------------------
   20EA                   10603 ___Script_SceneResetStack_b_start:
   20EA                   10604 _Script_SceneResetStack_b:
                          10605 	
                          10606 ;	src/ScriptRunner_b.c 1473
                          10607 ;	genAssign
                          10608 ;	AOP_HL for _scene_stack_ptr
   20EA 21 00 00          10609 	ld	hl,#_scene_stack_ptr
   20ED 36 00             10610 	ld	(hl),#0x00
                          10611 ;	src/ScriptRunner_b.c 1474
                          10612 ;	genPlus
                          10613 ;	AOP_HL for _script_cmd_args_len
                          10614 ;	genPlusIncr
   20EF 21 00 00          10615 	ld	hl,#_script_cmd_args_len
   20F2 4E                10616 	ld	c,(hl)
   20F3 0C                10617 	inc	c
                          10618 ;	genCast
                          10619 ; Removed redundent load
   20F4 06 00             10620 	ld	b,#0x00
                          10621 ;	genPlus
                          10622 ;	AOP_HL for _script_ptr
                          10623 ;	Can't optimise plus by inc, falling back to the normal way
   20F6 21 00 00          10624 	ld	hl,#_script_ptr
   20F9 7E                10625 	ld	a,(hl)
   20FA 81                10626 	add	a,c
   20FB 22                10627 	ld	(hl+),a
   20FC 7E                10628 	ld	a,(hl)
   20FD 88                10629 	adc	a,b
   20FE 77                10630 	ld	(hl),a
                          10631 ;	src/ScriptRunner_b.c 1475
                          10632 ;	genAssign
                          10633 ;	AOP_HL for _script_continue
   20FF 21 00 00          10634 	ld	hl,#_script_continue
   2102 36 01             10635 	ld	(hl),#0x01
                          10636 ;	genLabel
   2104                   10637 00101$:
                          10638 ;	genEndFunction
                          10639 	
   2104 C9                10640 	ret
   2105                   10641 ___Script_SceneResetStack_b_end:
                          10642 ;	src/ScriptRunner_b.c 1483
                          10643 ;	genLabel
                          10644 ;	genFunction
                          10645 ;	---------------------------------
                          10646 ; Function Script_ScenePopAllState_b
                          10647 ; ---------------------------------
   2105                   10648 ___Script_ScenePopAllState_b_start:
   2105                   10649 _Script_ScenePopAllState_b:
   2105 E8 FD             10650 	lda	sp,-3(sp)
                          10651 ;	src/ScriptRunner_b.c 1485
                          10652 ;	genIfx
                          10653 ;	AOP_HL for _scene_stack_ptr
   2107 AF                10654 	xor	a,a
   2108 21 00 00          10655 	ld	hl,#_scene_stack_ptr
   210B B6                10656 	or	a,(hl)
   210C CA B1 21          10657 	jp	z,00102$
                          10658 ;	src/ScriptRunner_b.c 1487
                          10659 ;	genAssign
                          10660 ;	AOP_HL for _scene_stack_ptr
   210F 36 00             10661 	ld	(hl),#0x00
                          10662 ;	src/ScriptRunner_b.c 1489
                          10663 ;	genPointerGet
                          10664 ;	AOP_HL for _scene_next_index
   2111 11 00 00          10665 	ld	de,#_scene_stack
   2114 1A                10666 	ld	a,(de)
   2115 21 00 00          10667 	ld	hl,#_scene_next_index
   2118 77                10668 	ld	(hl),a
   2119 13                10669 	inc	de
   211A 1A                10670 	ld	a,(de)
   211B 23                10671 	inc	hl
                          10672 ;	src/ScriptRunner_b.c 1490
                          10673 ;	genPlus
                          10674 ;	AOP_HL for _scene_next_index
                          10675 ;	AOP_HL for _scene_index
                          10676 ;	genPlusIncr
                          10677 ;	Can't optimise plus by inc, falling back to the normal way
   211C 32                10678 	ld      (hl-),a
   211D 7E                10679 	ld	a,(hl)
   211E C6 01             10680 	add	a,#0x01
   2120 21 00 00          10681 	ld	hl,#_scene_index
   2123 77                10682 	ld	(hl),a
   2124 21 01 00          10683 	ld	hl,#_scene_next_index + 1
   2127 7E                10684 	ld	a,(hl)
   2128 CE 00             10685 	adc	a,#0x00
   212A 21 01 00          10686 	ld	hl,#_scene_index + 1
   212D 77                10687 	ld	(hl),a
                          10688 ;	src/ScriptRunner_b.c 1492
                          10689 ;	genAssign (pointer)
   212E 11 00 00          10690 	ld	de,#_map_next_pos
   2131 3E 00             10691 	ld	a,#0x00
   2133 12                10692 	ld	(de),a
                          10693 ;	src/ScriptRunner_b.c 1493
                          10694 ;	genPlus
                          10695 ;	genPlusIncr
   2134 01 02 00          10696 	ld	bc,#_scene_stack + 2
                          10697 ;	genPointerGet
   2137 0A                10698 	ld	a,(bc)
                          10699 ;	genLeftShift
   2138 4F                10700 	ld	c,a
   2139 CB 27             10701 	sla	a
   213B CB 17             10702 	rl	a
   213D CB 17             10703 	rl	a
   213F E6 F8             10704 	and	a,#0xF8
   2141 4F                10705 	ld	c,a
                          10706 ;	genAssign (pointer)
   2142 11 00 00          10707 	ld	de,#_map_next_pos
   2145 79                10708 	ld	a,c
   2146 12                10709 	ld	(de),a
                          10710 ;	src/ScriptRunner_b.c 1494
                          10711 ;	genPlus
                          10712 ;	genPlusIncr
   2147 01 01 00          10713 	ld	bc,#_map_next_pos + 1
                          10714 ;	genAssign (pointer)
   214A 3E 00             10715 	ld	a,#0x00
   214C 02                10716 	ld	(bc),a
                          10717 ;	src/ScriptRunner_b.c 1495
                          10718 ;	genPlus
                          10719 ;	AOP_STK for _Script_ScenePopAllState_b_sloc0_1_0
                          10720 ;	genPlusIncr
                          10721 ;	Can't optimise plus by inc, falling back to the normal way
   214D 11 00 00          10722 	ld	de,#_scene_stack
   2150 21 03 00          10723 	ld	hl,#0x0003
   2153 19                10724 	add	hl,de
   2154 7D                10725 	ld	a,l
   2155 54                10726 	ld	d,h
   2156 F8 01             10727 	lda	hl,1(sp)
                          10728 ;	genPointerGet
                          10729 ;	AOP_STK for _Script_ScenePopAllState_b_sloc0_1_0
                          10730 ;	AOP_STK for _Script_ScenePopAllState_b_sloc1_1_0
   2158 22                10731 	ld	(hl+),a
   2159 72                10732 	ld	(hl),d
   215A 5F                10733 	ld	e,a
   215B 1A                10734 	ld	a,(de)
   215C 2B                10735 	dec	hl
   215D 2B                10736 	dec	hl
                          10737 ;	genLeftShift
                          10738 ;	AOP_STK for _Script_ScenePopAllState_b_sloc1_1_0
                          10739 ;	AOP_STK for _Script_ScenePopAllState_b_sloc0_1_0
   215E 77                10740 	ld      (hl),a
                          10741 ; Removed redundent load
   215F CB 27             10742 	sla	a
   2161 CB 17             10743 	rl	a
   2163 CB 17             10744 	rl	a
   2165 E6 F8             10745 	and	a,#0xF8
   2167 23                10746 	inc	hl
                          10747 ;	genAssign (pointer)
                          10748 ;	AOP_STK for _Script_ScenePopAllState_b_sloc0_1_0
   2168 77                10749 	ld      (hl),a
                          10750 ; Removed redundent load
   2169 02                10751 	ld	(bc),a
                          10752 ;	src/ScriptRunner_b.c 1496
                          10753 ;	genPlus
                          10754 ;	genPlusIncr
   216A 01 04 00          10755 	ld	bc,#_scene_stack + 4
                          10756 ;	genPointerGet
   216D 0A                10757 	ld	a,(bc)
                          10758 ;	genAssign (pointer)
   216E 11 00 00          10759 	ld	de,#_map_next_dir
   2171 12                10760 	ld	(de),a
                          10761 ;	src/ScriptRunner_b.c 1497
                          10762 ;	genPlus
                          10763 ;	genPlusIncr
   2172 01 01 00          10764 	ld	bc,#_map_next_dir + 1
                          10765 ;	genPlus
                          10766 ;	AOP_STK for _Script_ScenePopAllState_b_sloc0_1_0
                          10767 ;	genPlusIncr
                          10768 ;	Can't optimise plus by inc, falling back to the normal way
   2175 11 00 00          10769 	ld	de,#_scene_stack
   2178 21 05 00          10770 	ld	hl,#0x0005
   217B 19                10771 	add	hl,de
   217C 7D                10772 	ld	a,l
   217D 54                10773 	ld	d,h
   217E F8 01             10774 	lda	hl,1(sp)
                          10775 ;	genPointerGet
                          10776 ;	AOP_STK for _Script_ScenePopAllState_b_sloc0_1_0
   2180 22                10777 	ld	(hl+),a
   2181 72                10778 	ld	(hl),d
   2182 5F                10779 	ld	e,a
   2183 1A                10780 	ld	a,(de)
                          10781 ;	genAssign (pointer)
   2184 02                10782 	ld	(bc),a
                          10783 ;	src/ScriptRunner_b.c 1499
                          10784 ;	genAssign
                          10785 ;	AOP_HL for _stage_next_type
   2185 21 00 00          10786 	ld	hl,#_stage_next_type
   2188 36 01             10787 	ld	(hl),#0x01
                          10788 ;	src/ScriptRunner_b.c 1500
                          10789 ;	genAssign
                          10790 ;	AOP_HL for _script_action_complete
   218A 21 00 00          10791 	ld	hl,#_script_action_complete
   218D 36 00             10792 	ld	(hl),#0x00
                          10793 ;	src/ScriptRunner_b.c 1501
                          10794 ;	genPointerGet
   218F 11 00 00          10795 	ld	de,#_script_cmd_args
   2192 1A                10796 	ld	a,(de)
                          10797 ;	genIpush
                          10798 ; _saveRegsForCall: sendSetSize: 0 deInUse: 0 bcInUse: 0 deSending: 0
   2193 4F                10799 	ld	c,a
   2194 F5                10800 	push	af
   2195 33                10801 	inc	sp
                          10802 ;	genCall
   2196 CD 00 00          10803 	call	_FadeSetSpeed
   2199 E8 01             10804 	lda	sp,1(sp)
                          10805 ;	src/ScriptRunner_b.c 1502
                          10806 ;	genCall
                          10807 ; _saveRegsForCall: sendSetSize: 0 deInUse: 0 bcInUse: 0 deSending: 0
   219B CD 00 00          10808 	call	_FadeOut
                          10809 ;	src/ScriptRunner_b.c 1503
                          10810 ;	genPlus
                          10811 ;	AOP_HL for _script_cmd_args_len
                          10812 ;	genPlusIncr
   219E 21 00 00          10813 	ld	hl,#_script_cmd_args_len
   21A1 4E                10814 	ld	c,(hl)
   21A2 0C                10815 	inc	c
                          10816 ;	genCast
                          10817 ; Removed redundent load
   21A3 06 00             10818 	ld	b,#0x00
                          10819 ;	genPlus
                          10820 ;	AOP_HL for _script_ptr
                          10821 ;	Can't optimise plus by inc, falling back to the normal way
   21A5 21 00 00          10822 	ld	hl,#_script_ptr
   21A8 7E                10823 	ld	a,(hl)
   21A9 81                10824 	add	a,c
   21AA 22                10825 	ld	(hl+),a
   21AB 7E                10826 	ld	a,(hl)
   21AC 88                10827 	adc	a,b
   21AD 77                10828 	ld	(hl),a
                          10829 ;	src/ScriptRunner_b.c 1505
                          10830 ;	genRet
   21AE C3 C6 21          10831 	jp	00103$
                          10832 ;	genLabel
   21B1                   10833 00102$:
                          10834 ;	src/ScriptRunner_b.c 1508
                          10835 ;	genAssign
                          10836 ;	AOP_HL for _script_action_complete
   21B1 21 00 00          10837 	ld	hl,#_script_action_complete
   21B4 36 01             10838 	ld	(hl),#0x01
                          10839 ;	src/ScriptRunner_b.c 1509
                          10840 ;	genPlus
                          10841 ;	AOP_HL for _script_cmd_args_len
                          10842 ;	genPlusIncr
   21B6 21 00 00          10843 	ld	hl,#_script_cmd_args_len
   21B9 4E                10844 	ld	c,(hl)
   21BA 0C                10845 	inc	c
                          10846 ;	genCast
                          10847 ; Removed redundent load
   21BB 06 00             10848 	ld	b,#0x00
                          10849 ;	genPlus
                          10850 ;	AOP_HL for _script_ptr
                          10851 ;	Can't optimise plus by inc, falling back to the normal way
   21BD 21 00 00          10852 	ld	hl,#_script_ptr
   21C0 7E                10853 	ld	a,(hl)
   21C1 81                10854 	add	a,c
   21C2 22                10855 	ld	(hl+),a
   21C3 7E                10856 	ld	a,(hl)
   21C4 88                10857 	adc	a,b
   21C5 77                10858 	ld	(hl),a
                          10859 ;	genLabel
   21C6                   10860 00103$:
                          10861 ;	genEndFunction
   21C6 E8 03             10862 	lda	sp,3(sp)
   21C8 C9                10863 	ret
   21C9                   10864 ___Script_ScenePopAllState_b_end:
                          10865 ;	src/ScriptRunner_b.c 1517
                          10866 ;	genLabel
                          10867 ;	genFunction
                          10868 ;	---------------------------------
                          10869 ; Function Script_SetInputScript_b
                          10870 ; ---------------------------------
   21C9                   10871 ___Script_SetInputScript_b_start:
   21C9                   10872 _Script_SetInputScript_b:
   21C9 E8 F9             10873 	lda	sp,-7(sp)
                          10874 ;	src/ScriptRunner_b.c 1521
                          10875 ;	genPointerGet
   21CB 11 00 00          10876 	ld	de,#_script_cmd_args
   21CE 1A                10877 	ld	a,(de)
   21CF 4F                10878 	ld	c,a
                          10879 ;	genAssign
                          10880 ;	(registers are the same)
                          10881 ;	src/ScriptRunner_b.c 1523
                          10882 ;	genAssign
   21D0 06 00             10883 	ld	b,#0x00
                          10884 ;	src/ScriptRunner_b.c 1524
                          10885 ;	genLabel
   21D2                   10886 00102$:
                          10887 ;	genAnd
   21D2 79                10888 	ld	a,c
   21D3 E6 01             10889 	and	a,#0x01
   21D5 20 03             10890 	jr	nz,00110$
   21D7 C3 DD 21          10891 	jp	00111$
   21DA                   10892 00110$:
   21DA C3 E8 21          10893 	jp	00104$
   21DD                   10894 00111$:
                          10895 ;	genCmpEq
                          10896 ; genCmpEq: left 1, right 1, result 0
   21DD 79                10897 	ld	a,c
   21DE B7                10898 	or	a,a
   21DF CA E8 21          10899 	jp	z,00104$
   21E2                   10900 00112$:
                          10901 ;	src/ScriptRunner_b.c 1526
                          10902 ;	genPlus
                          10903 ;	genPlusIncr
                          10904 ; Removed redundent load
   21E2 04                10905 	inc	b
                          10906 ;	src/ScriptRunner_b.c 1527
                          10907 ;	genRightShift
                          10908 ; Removed redundent load
   21E3 CB 39             10909 	srl	c
                          10910 ;	genGoto
   21E5 C3 D2 21          10911 	jp	00102$
                          10912 ;	genLabel
   21E8                   10913 00104$:
                          10914 ;	src/ScriptRunner_b.c 1530
                          10915 ;	genMult
   21E8 58                10916 	ld	e,b
   21E9 16 00             10917 	ld	d,#0x00
   21EB 6B                10918 	ld	l,e
   21EC 62                10919 	ld	h,d
   21ED 29                10920 	add	hl,hl
   21EE 19                10921 	add	hl,de
   21EF 45                10922 	ld	b,l
   21F0 4C                10923 	ld	c,h
                          10924 ;	genPlus
                          10925 ;	Can't optimise plus by inc, falling back to the normal way
   21F1 3E 00             10926 	ld	a,#<_input_script_ptrs
   21F3 80                10927 	add	a,b
   21F4 47                10928 	ld	b,a
   21F5 3E 00             10929 	ld	a,#>_input_script_ptrs
   21F7 89                10930 	adc	a,c
   21F8 4F                10931 	ld	c,a
                          10932 ;	genPlus
                          10933 ;	AOP_STK for _Script_SetInputScript_b_sloc0_1_0
                          10934 ;	genPlusIncr
                          10935 ;	Can't optimise plus by inc, falling back to the normal way
   21F9 11 00 00          10936 	ld	de,#_script_cmd_args
   21FC 21 01 00          10937 	ld	hl,#0x0001
   21FF 19                10938 	add	hl,de
   2200 7D                10939 	ld	a,l
   2201 54                10940 	ld	d,h
   2202 F8 05             10941 	lda	hl,5(sp)
                          10942 ;	genPointerGet
                          10943 ;	AOP_STK for _Script_SetInputScript_b_sloc0_1_0
   2204 22                10944 	ld	(hl+),a
   2205 72                10945 	ld	(hl),d
   2206 5F                10946 	ld	e,a
   2207 1A                10947 	ld	a,(de)
                          10948 ;	genAssign (pointer)
   2208 58                10949 	ld	e,b
   2209 51                10950 	ld	d,c
   220A 12                10951 	ld	(de),a
                          10952 ;	src/ScriptRunner_b.c 1531
                          10953 ;	genPlus
                          10954 ;	genPlusIncr
   220B 04                10955 	inc	b
   220C 20 01             10956 	jr	nz,00113$
   220E 0C                10957 	inc	c
   220F                   10958 00113$:
                          10959 ;	genPlus
                          10960 ;	AOP_STK for _Script_SetInputScript_b_sloc0_1_0
                          10961 ;	genPlusIncr
                          10962 ;	Can't optimise plus by inc, falling back to the normal way
   220F 11 00 00          10963 	ld	de,#_script_cmd_args
   2212 21 02 00          10964 	ld	hl,#0x0002
   2215 19                10965 	add	hl,de
   2216 7D                10966 	ld	a,l
   2217 54                10967 	ld	d,h
   2218 F8 05             10968 	lda	hl,5(sp)
                          10969 ;	genPointerGet
                          10970 ;	AOP_STK for _Script_SetInputScript_b_sloc0_1_0
                          10971 ;	AOP_STK for _Script_SetInputScript_b_sloc1_1_0
   221A 22                10972 	ld	(hl+),a
   221B 72                10973 	ld	(hl),d
   221C 5F                10974 	ld	e,a
   221D 1A                10975 	ld	a,(de)
   221E 2B                10976 	dec	hl
   221F 2B                10977 	dec	hl
   2220 77                10978 	ld	(hl),a
                          10979 ;	genCast
                          10980 ;	AOP_STK for _Script_SetInputScript_b_sloc1_1_0
                          10981 ;	AOP_STK for _Script_SetInputScript_b_sloc0_1_0
   2221 2A                10982 	ld	a,(hl+)
   2222 22                10983 	ld	(hl+),a
   2223 36 00             10984 	ld	(hl),#0x00
                          10985 ;	genLeftShift
                          10986 ;	AOP_STK for _Script_SetInputScript_b_sloc0_1_0
                          10987 ;	AOP_STK for _Script_SetInputScript_b_sloc2_1_0
   2225 2B                10988 	dec	hl
   2226 7E                10989 	ld	a,(hl)
   2227 2B                10990 	dec	hl
   2228 2B                10991 	dec	hl
   2229 32                10992 	ld      (hl-),a
   222A 36 00             10993 	ld	(hl),#0x00
                          10994 ;	genPlus
                          10995 ;	AOP_STK for _Script_SetInputScript_b_sloc0_1_0
                          10996 ;	genPlusIncr
                          10997 ;	Can't optimise plus by inc, falling back to the normal way
   222C 11 00 00          10998 	ld	de,#_script_cmd_args
   222F 21 03 00          10999 	ld	hl,#0x0003
   2232 19                11000 	add	hl,de
   2233 7D                11001 	ld	a,l
   2234 54                11002 	ld	d,h
   2235 F8 05             11003 	lda	hl,5(sp)
                          11004 ;	genPointerGet
                          11005 ;	AOP_STK for _Script_SetInputScript_b_sloc0_1_0
                          11006 ;	AOP_STK for _Script_SetInputScript_b_sloc1_1_0
   2237 22                11007 	ld	(hl+),a
   2238 72                11008 	ld	(hl),d
   2239 5F                11009 	ld	e,a
   223A 1A                11010 	ld	a,(de)
   223B 2B                11011 	dec	hl
   223C 2B                11012 	dec	hl
   223D 77                11013 	ld	(hl),a
                          11014 ;	genCast
                          11015 ;	AOP_STK for _Script_SetInputScript_b_sloc1_1_0
                          11016 ;	AOP_STK for _Script_SetInputScript_b_sloc0_1_0
   223E 2A                11017 	ld	a,(hl+)
   223F 22                11018 	ld	(hl+),a
   2240 36 00             11019 	ld	(hl),#0x00
                          11020 ;	genPlus
                          11021 ;	AOP_STK for _Script_SetInputScript_b_sloc2_1_0
                          11022 ;	AOP_STK for _Script_SetInputScript_b_sloc0_1_0
                          11023 ;	AOP_STK for _Script_SetInputScript_b_sloc3_1_0
                          11024 ;	Can't optimise plus by inc, falling back to the normal way
   2242 F8 02             11025 	lda	hl,2(sp)
   2244 5E                11026 	ld	e,(hl)
   2245 23                11027 	inc	hl
   2246 56                11028 	ld	d,(hl)
   2247 23                11029 	inc	hl
   2248 23                11030 	inc	hl
   2249 2A                11031 	ld	a,(hl+)
   224A 66                11032 	ld	h,(hl)
   224B 6F                11033 	ld	l,a
   224C 19                11034 	add	hl,de
   224D 7D                11035 	ld	a,l
   224E 54                11036 	ld	d,h
   224F F8 00             11037 	lda	hl,0(sp)
   2251 22                11038 	ld	(hl+),a
   2252 72                11039 	ld	(hl),d
                          11040 ;	genAssign (pointer)
                          11041 ;	AOP_STK for _Script_SetInputScript_b_sloc3_1_0
   2253 58                11042 	ld	e,b
   2254 51                11043 	ld	d,c
   2255 2B                11044 	dec	hl
   2256 7E                11045 	ld	a,(hl)
   2257 12                11046 	ld	(de),a
   2258 13                11047 	inc	de
   2259 23                11048 	inc	hl
   225A 7E                11049 	ld	a,(hl)
   225B 12                11050 	ld	(de),a
                          11051 ;	src/ScriptRunner_b.c 1533
                          11052 ;	genAssign
                          11053 ;	AOP_HL for _script_action_complete
   225C 21 00 00          11054 	ld	hl,#_script_action_complete
   225F 36 01             11055 	ld	(hl),#0x01
                          11056 ;	src/ScriptRunner_b.c 1534
                          11057 ;	genPlus
                          11058 ;	AOP_HL for _script_cmd_args_len
                          11059 ;	genPlusIncr
   2261 21 00 00          11060 	ld	hl,#_script_cmd_args_len
   2264 4E                11061 	ld	c,(hl)
   2265 0C                11062 	inc	c
                          11063 ;	genCast
                          11064 ; Removed redundent load
   2266 06 00             11065 	ld	b,#0x00
                          11066 ;	genPlus
                          11067 ;	AOP_HL for _script_ptr
                          11068 ;	Can't optimise plus by inc, falling back to the normal way
   2268 21 00 00          11069 	ld	hl,#_script_ptr
   226B 7E                11070 	ld	a,(hl)
   226C 81                11071 	add	a,c
   226D 22                11072 	ld	(hl+),a
   226E 7E                11073 	ld	a,(hl)
   226F 88                11074 	adc	a,b
   2270 77                11075 	ld	(hl),a
                          11076 ;	genLabel
   2271                   11077 00105$:
                          11078 ;	genEndFunction
   2271 E8 07             11079 	lda	sp,7(sp)
   2273 C9                11080 	ret
   2274                   11081 ___Script_SetInputScript_b_end:
                          11082 ;	src/ScriptRunner_b.c 1542
                          11083 ;	genLabel
                          11084 ;	genFunction
                          11085 ;	---------------------------------
                          11086 ; Function Script_RemoveInputScript_b
                          11087 ; ---------------------------------
   2274                   11088 ___Script_RemoveInputScript_b_start:
   2274                   11089 _Script_RemoveInputScript_b:
   2274 E8 FC             11090 	lda	sp,-4(sp)
                          11091 ;	src/ScriptRunner_b.c 1546
                          11092 ;	genPointerGet
   2276 11 00 00          11093 	ld	de,#_script_cmd_args
   2279 1A                11094 	ld	a,(de)
   227A 4F                11095 	ld	c,a
                          11096 ;	genAssign
                          11097 ;	AOP_STK for _Script_RemoveInputScript_b_input_1_1
   227B F8 03             11098 	lda	hl,3(sp)
   227D 71                11099 	ld	(hl),c
                          11100 ;	src/ScriptRunner_b.c 1549
                          11101 ;	genAssign
                          11102 ;	AOP_STK for _Script_RemoveInputScript_b_index_1_1
   227E 2B                11103 	dec	hl
   227F 36 00             11104 	ld	(hl),#0x00
                          11105 ;	genLabel
   2281                   11106 00103$:
                          11107 ;	genCmpEq
                          11108 ;	AOP_STK for _Script_RemoveInputScript_b_index_1_1
                          11109 ; genCmpEq: left 1, right 1, result 0
   2281 F8 02             11110 	lda	hl,2(sp)
   2283 7E                11111 	ld	a,(hl)
   2284 FE 08             11112 	cp	a,#0x08
   2286 CA B9 22          11113 	jp	z,00106$
   2289                   11114 00112$:
                          11115 ;	src/ScriptRunner_b.c 1551
                          11116 ;	genAnd
                          11117 ;	AOP_STK for _Script_RemoveInputScript_b_input_1_1
   2289 F8 03             11118 	lda	hl,3(sp)
   228B 7E                11119 	ld	a,(hl)
   228C E6 01             11120 	and	a,#0x01
   228E 20 03             11121 	jr	nz,00113$
   2290 C3 AF 22          11122 	jp	00102$
   2293                   11123 00113$:
                          11124 ;	src/ScriptRunner_b.c 1553
                          11125 ;	genMult
                          11126 ;	AOP_STK for _Script_RemoveInputScript_b_index_1_1
                          11127 ;	AOP_STK for _Script_RemoveInputScript_b_sloc0_1_0
   2293 F8 02             11128 	lda	hl,2(sp)
   2295 5E                11129 	ld	e,(hl)
   2296 16 00             11130 	ld	d,#0x00
   2298 6B                11131 	ld	l,e
   2299 62                11132 	ld	h,d
   229A 29                11133 	add	hl,hl
   229B 19                11134 	add	hl,de
   229C 7D                11135 	ld	a,l
   229D 54                11136 	ld	d,h
   229E F8 00             11137 	lda	hl,0(sp)
   22A0 22                11138 	ld	(hl+),a
   22A1 72                11139 	ld	(hl),d
                          11140 ;	genPlus
                          11141 ;	AOP_STK for _Script_RemoveInputScript_b_sloc0_1_0
                          11142 ;	Can't optimise plus by inc, falling back to the normal way
   22A2 11 00 00          11143 	ld	de,#_input_script_ptrs
   22A5 2B                11144 	dec	hl
   22A6 2A                11145 	ld	a,(hl+)
   22A7 66                11146 	ld	h,(hl)
   22A8 6F                11147 	ld	l,a
   22A9 19                11148 	add	hl,de
   22AA 4D                11149 	ld	c,l
   22AB 44                11150 	ld	b,h
                          11151 ;	genAssign (pointer)
   22AC 3E 00             11152 	ld	a,#0x00
   22AE 02                11153 	ld	(bc),a
                          11154 ;	genLabel
   22AF                   11155 00102$:
                          11156 ;	src/ScriptRunner_b.c 1555
                          11157 ;	genRightShift
                          11158 ;	AOP_STK for _Script_RemoveInputScript_b_input_1_1
   22AF F8 03             11159 	lda	hl,3(sp)
   22B1 7E                11160 	ld	a,(hl)
   22B2 CB 3F             11161 	srl	a
                          11162 ;	src/ScriptRunner_b.c 1549
                          11163 ;	genPlus
                          11164 ;	AOP_STK for _Script_RemoveInputScript_b_index_1_1
                          11165 ;	genPlusIncr
   22B4 32                11166 	ld      (hl-),a
   22B5 34                11167 	inc	(hl)
                          11168 ;	genGoto
   22B6 C3 81 22          11169 	jp	00103$
                          11170 ;	genLabel
   22B9                   11171 00106$:
                          11172 ;	src/ScriptRunner_b.c 1558
                          11173 ;	genAssign
                          11174 ;	AOP_HL for _script_action_complete
   22B9 21 00 00          11175 	ld	hl,#_script_action_complete
   22BC 36 01             11176 	ld	(hl),#0x01
                          11177 ;	src/ScriptRunner_b.c 1559
                          11178 ;	genPlus
                          11179 ;	AOP_HL for _script_cmd_args_len
                          11180 ;	genPlusIncr
   22BE 21 00 00          11181 	ld	hl,#_script_cmd_args_len
   22C1 4E                11182 	ld	c,(hl)
   22C2 0C                11183 	inc	c
                          11184 ;	genCast
                          11185 ; Removed redundent load
   22C3 06 00             11186 	ld	b,#0x00
                          11187 ;	genPlus
                          11188 ;	AOP_HL for _script_ptr
                          11189 ;	Can't optimise plus by inc, falling back to the normal way
   22C5 21 00 00          11190 	ld	hl,#_script_ptr
   22C8 7E                11191 	ld	a,(hl)
   22C9 81                11192 	add	a,c
   22CA 22                11193 	ld	(hl+),a
   22CB 7E                11194 	ld	a,(hl)
   22CC 88                11195 	adc	a,b
   22CD 77                11196 	ld	(hl),a
                          11197 ;	genLabel
   22CE                   11198 00107$:
                          11199 ;	genEndFunction
   22CE E8 04             11200 	lda	sp,4(sp)
   22D0 C9                11201 	ret
   22D1                   11202 ___Script_RemoveInputScript_b_end:
                          11203 ;	src/ScriptRunner_b.c 1567
                          11204 ;	genLabel
                          11205 ;	genFunction
                          11206 ;	---------------------------------
                          11207 ; Function Script_ActorSetFrame_b
                          11208 ; ---------------------------------
   22D1                   11209 ___Script_ActorSetFrame_b_start:
   22D1                   11210 _Script_ActorSetFrame_b:
   22D1 E8 FD             11211 	lda	sp,-3(sp)
                          11212 ;	src/ScriptRunner_b.c 1569
                          11213 ;	genMult
                          11214 ;	AOP_HL for _script_actor
   22D3 21 00 00          11215 	ld	hl,#_script_actor
   22D6 5E                11216 	ld	e,(hl)
   22D7 16 00             11217 	ld	d,#0x00
   22D9 6B                11218 	ld	l,e
   22DA 62                11219 	ld	h,d
   22DB 29                11220 	add	hl,hl
   22DC 29                11221 	add	hl,hl
   22DD 19                11222 	add	hl,de
   22DE 29                11223 	add	hl,hl
   22DF 19                11224 	add	hl,de
   22E0 29                11225 	add	hl,hl
   22E1 4D                11226 	ld	c,l
   22E2 44                11227 	ld	b,h
                          11228 ;	genPlus
                          11229 ;	Can't optimise plus by inc, falling back to the normal way
   22E3 21 00 00          11230 	ld	hl,#_actors
   22E6 09                11231 	add	hl,bc
   22E7 4D                11232 	ld	c,l
   22E8 44                11233 	ld	b,h
                          11234 ;	genPlus
                          11235 ;	AOP_STK for _Script_ActorSetFrame_b_sloc0_1_0
                          11236 ;	genPlusIncr
                          11237 ;	Can't optimise plus by inc, falling back to the normal way
   22E9 21 06 00          11238 	ld	hl,#0x0006
   22EC 09                11239 	add	hl,bc
   22ED 7D                11240 	ld	a,l
   22EE 54                11241 	ld	d,h
   22EF F8 01             11242 	lda	hl,1(sp)
   22F1 22                11243 	ld	(hl+),a
   22F2 72                11244 	ld	(hl),d
                          11245 ;	genAssign (pointer)
                          11246 ;	AOP_STK for _Script_ActorSetFrame_b_sloc0_1_0
   22F3 2B                11247 	dec	hl
   22F4 5E                11248 	ld	e,(hl)
   22F5 23                11249 	inc	hl
   22F6 56                11250 	ld	d,(hl)
   22F7 3E 00             11251 	ld	a,#0x00
   22F9 12                11252 	ld	(de),a
                          11253 ;	src/ScriptRunner_b.c 1570
                          11254 ;	genPlus
                          11255 ;	genPlusIncr
   22FA 21 0A 00          11256 	ld	hl,#0x000A
   22FD 09                11257 	add	hl,bc
                          11258 ;	genAssign (pointer)
   22FE 36 00             11259 	ld	(hl),#0x00
                          11260 ;	src/ScriptRunner_b.c 1571
                          11261 ;	genPointerGet
                          11262 ;	AOP_STK for _Script_ActorSetFrame_b_sloc1_1_0
   2300 11 00 00          11263 	ld	de,#_script_cmd_args
   2303 1A                11264 	ld	a,(de)
   2304 F8 00             11265 	lda	hl,0(sp)
   2306 77                11266 	ld	(hl),a
                          11267 ;	genPlus
                          11268 ;	genPlusIncr
                          11269 ;	Can't optimise plus by inc, falling back to the normal way
   2307 79                11270 	ld	a,c
   2308 C6 07             11271 	add	a,#0x07
   230A 4F                11272 	ld	c,a
   230B 78                11273 	ld	a,b
   230C CE 00             11274 	adc	a,#0x00
   230E 47                11275 	ld	b,a
                          11276 ;	genPointerGet
   230F 0A                11277 	ld	a,(bc)
                          11278 ;	genIpush
                          11279 ; _saveRegsForCall: sendSetSize: 0 deInUse: 0 bcInUse: 0 deSending: 0
   2310 4F                11280 	ld	c,a
   2311 F5                11281 	push	af
   2312 33                11282 	inc	sp
                          11283 ;	genIpush
                          11284 ;	AOP_STK for _Script_ActorSetFrame_b_sloc1_1_0
   2313 7E                11285 	ld	a,(hl)
   2314 F5                11286 	push	af
   2315 33                11287 	inc	sp
                          11288 ;	genCall
   2316 CD 00 00          11289 	call	__moduchar_rrx_s
   2319 4B                11290 	ld	c,e
   231A E8 02             11291 	lda	sp,2(sp)
                          11292 ;	genAssign (pointer)
                          11293 ;	AOP_STK for _Script_ActorSetFrame_b_sloc0_1_0
   231C F8 01             11294 	lda	hl,1(sp)
   231E 5E                11295 	ld	e,(hl)
   231F 23                11296 	inc	hl
   2320 56                11297 	ld	d,(hl)
   2321 79                11298 	ld	a,c
   2322 12                11299 	ld	(de),a
                          11300 ;	src/ScriptRunner_b.c 1572
                          11301 ;	genIpush
                          11302 ; _saveRegsForCall: sendSetSize: 0 deInUse: 0 bcInUse: 0 deSending: 0
                          11303 ;	AOP_HL for _script_actor
   2323 21 00 00          11304 	ld	hl,#_script_actor
   2326 7E                11305 	ld	a,(hl)
   2327 F5                11306 	push	af
   2328 33                11307 	inc	sp
                          11308 ;	genCall
   2329 CD 00 00          11309 	call	_SceneRenderActor
   232C E8 01             11310 	lda	sp,1(sp)
                          11311 ;	src/ScriptRunner_b.c 1573
                          11312 ;	genPlus
                          11313 ;	AOP_HL for _script_cmd_args_len
                          11314 ;	genPlusIncr
   232E 21 00 00          11315 	ld	hl,#_script_cmd_args_len
   2331 4E                11316 	ld	c,(hl)
   2332 0C                11317 	inc	c
                          11318 ;	genCast
                          11319 ; Removed redundent load
   2333 06 00             11320 	ld	b,#0x00
                          11321 ;	genPlus
                          11322 ;	AOP_HL for _script_ptr
                          11323 ;	Can't optimise plus by inc, falling back to the normal way
   2335 21 00 00          11324 	ld	hl,#_script_ptr
   2338 7E                11325 	ld	a,(hl)
   2339 81                11326 	add	a,c
   233A 22                11327 	ld	(hl+),a
   233B 7E                11328 	ld	a,(hl)
   233C 88                11329 	adc	a,b
   233D 77                11330 	ld	(hl),a
                          11331 ;	src/ScriptRunner_b.c 1574
                          11332 ;	genAssign
                          11333 ;	AOP_HL for _script_continue
   233E 21 00 00          11334 	ld	hl,#_script_continue
   2341 36 01             11335 	ld	(hl),#0x01
                          11336 ;	genLabel
   2343                   11337 00101$:
                          11338 ;	genEndFunction
   2343 E8 03             11339 	lda	sp,3(sp)
   2345 C9                11340 	ret
   2346                   11341 ___Script_ActorSetFrame_b_end:
                          11342 ;	src/ScriptRunner_b.c 1582
                          11343 ;	genLabel
                          11344 ;	genFunction
                          11345 ;	---------------------------------
                          11346 ; Function Script_ActorSetFlip_b
                          11347 ; ---------------------------------
   2346                   11348 ___Script_ActorSetFlip_b_start:
   2346                   11349 _Script_ActorSetFlip_b:
                          11350 	
                          11351 ;	src/ScriptRunner_b.c 1584
                          11352 ;	genMult
                          11353 ;	AOP_HL for _script_actor
   2346 21 00 00          11354 	ld	hl,#_script_actor
   2349 5E                11355 	ld	e,(hl)
   234A 16 00             11356 	ld	d,#0x00
   234C 6B                11357 	ld	l,e
   234D 62                11358 	ld	h,d
   234E 29                11359 	add	hl,hl
   234F 29                11360 	add	hl,hl
   2350 19                11361 	add	hl,de
   2351 29                11362 	add	hl,hl
   2352 19                11363 	add	hl,de
   2353 29                11364 	add	hl,hl
   2354 4D                11365 	ld	c,l
   2355 44                11366 	ld	b,h
                          11367 ;	genPlus
                          11368 ;	Can't optimise plus by inc, falling back to the normal way
   2356 21 00 00          11369 	ld	hl,#_actors
   2359 09                11370 	add	hl,bc
   235A 4D                11371 	ld	c,l
   235B 44                11372 	ld	b,h
                          11373 ;	genPlus
                          11374 ;	genPlusIncr
                          11375 ;	Can't optimise plus by inc, falling back to the normal way
   235C 79                11376 	ld	a,c
   235D C6 0A             11377 	add	a,#0x0A
   235F 4F                11378 	ld	c,a
   2360 78                11379 	ld	a,b
   2361 CE 00             11380 	adc	a,#0x00
   2363 47                11381 	ld	b,a
                          11382 ;	genAssign (pointer)
   2364 3E 00             11383 	ld	a,#0x00
   2366 02                11384 	ld	(bc),a
                          11385 ;	src/ScriptRunner_b.c 1585
                          11386 ;	genPointerGet
   2367 11 00 00          11387 	ld	de,#_script_cmd_args
   236A 1A                11388 	ld	a,(de)
                          11389 ;	genAssign (pointer)
   236B 02                11390 	ld	(bc),a
                          11391 ;	src/ScriptRunner_b.c 1586
                          11392 ;	genIpush
                          11393 ; _saveRegsForCall: sendSetSize: 0 deInUse: 0 bcInUse: 0 deSending: 0
                          11394 ;	AOP_HL for _script_actor
   236C 21 00 00          11395 	ld	hl,#_script_actor
   236F 7E                11396 	ld	a,(hl)
   2370 F5                11397 	push	af
   2371 33                11398 	inc	sp
                          11399 ;	genCall
   2372 CD 00 00          11400 	call	_SceneRenderActor
   2375 E8 01             11401 	lda	sp,1(sp)
                          11402 ;	src/ScriptRunner_b.c 1587
                          11403 ;	genPlus
                          11404 ;	AOP_HL for _script_cmd_args_len
                          11405 ;	genPlusIncr
   2377 21 00 00          11406 	ld	hl,#_script_cmd_args_len
   237A 4E                11407 	ld	c,(hl)
   237B 0C                11408 	inc	c
                          11409 ;	genCast
                          11410 ; Removed redundent load
   237C 06 00             11411 	ld	b,#0x00
                          11412 ;	genPlus
                          11413 ;	AOP_HL for _script_ptr
                          11414 ;	Can't optimise plus by inc, falling back to the normal way
   237E 21 00 00          11415 	ld	hl,#_script_ptr
   2381 7E                11416 	ld	a,(hl)
   2382 81                11417 	add	a,c
   2383 22                11418 	ld	(hl+),a
   2384 7E                11419 	ld	a,(hl)
   2385 88                11420 	adc	a,b
   2386 77                11421 	ld	(hl),a
                          11422 ;	src/ScriptRunner_b.c 1588
                          11423 ;	genAssign
                          11424 ;	AOP_HL for _script_continue
   2387 21 00 00          11425 	ld	hl,#_script_continue
   238A 36 01             11426 	ld	(hl),#0x01
                          11427 ;	genLabel
   238C                   11428 00101$:
                          11429 ;	genEndFunction
                          11430 	
   238C C9                11431 	ret
   238D                   11432 ___Script_ActorSetFlip_b_end:
                          11433 ;	src/ScriptRunner_b.c 1600
                          11434 ;	genLabel
                          11435 ;	genFunction
                          11436 ;	---------------------------------
                          11437 ; Function Script_TextMulti_b
                          11438 ; ---------------------------------
   238D                   11439 ___Script_TextMulti_b_start:
   238D                   11440 _Script_TextMulti_b:
                          11441 	
                          11442 ;	src/ScriptRunner_b.c 1603
                          11443 ;	genPointerGet
   238D 11 00 00          11444 	ld	de,#_script_cmd_args
   2390 1A                11445 	ld	a,(de)
                          11446 ;	genAssign
                          11447 ;	(registers are the same)
                          11448 ;	src/ScriptRunner_b.c 1605
                          11449 ;	genCmpEq
                          11450 ; genCmpEq: left 1, right 1, result 0
   2391 4F                11451 	ld	c,a
   2392 B7                11452 	or	a,a
   2393 C2 AB 23          11453 	jp	nz,00110$
   2396 18 03             11454 	jr	00119$
   2398                   11455 00118$:
   2398 C3 AB 23          11456 	jp	00110$
   239B                   11457 00119$:
                          11458 ;	src/ScriptRunner_b.c 1607
                          11459 ;	genAssign
                          11460 ;	AOP_HL for _text_out_speed
                          11461 ;	AOP_HL for _tmp_text_out_speed
   239B 21 00 00          11462 	ld	hl,#_text_out_speed
   239E 7E                11463 	ld	a,(hl)
   239F 21 00 00          11464 	ld	hl,#_tmp_text_out_speed
   23A2 77                11465 	ld	(hl),a
                          11466 ;	src/ScriptRunner_b.c 1608
                          11467 ;	genAssign
                          11468 ;	AOP_HL for _text_out_speed
   23A3 21 00 00          11469 	ld	hl,#_text_out_speed
   23A6 36 00             11470 	ld	(hl),#0x00
                          11471 ;	genGoto
   23A8 C3 F7 23          11472 	jp	00111$
                          11473 ;	genLabel
   23AB                   11474 00110$:
                          11475 ;	src/ScriptRunner_b.c 1610
                          11476 ;	genCmpEq
                          11477 ; genCmpEq: left 1, right 1, result 0
   23AB 79                11478 	ld	a,c
   23AC FE 01             11479 	cp	a,#0x01
   23AE C2 C6 23          11480 	jp	nz,00107$
   23B1 18 03             11481 	jr	00121$
   23B3                   11482 00120$:
   23B3 C3 C6 23          11483 	jp	00107$
   23B6                   11484 00121$:
                          11485 ;	src/ScriptRunner_b.c 1612
                          11486 ;	genAssign
                          11487 ;	AOP_HL for _text_in_speed
                          11488 ;	AOP_HL for _tmp_text_in_speed
   23B6 21 00 00          11489 	ld	hl,#_text_in_speed
   23B9 7E                11490 	ld	a,(hl)
   23BA 21 00 00          11491 	ld	hl,#_tmp_text_in_speed
   23BD 77                11492 	ld	(hl),a
                          11493 ;	src/ScriptRunner_b.c 1613
                          11494 ;	genAssign
                          11495 ;	AOP_HL for _text_in_speed
   23BE 21 00 00          11496 	ld	hl,#_text_in_speed
   23C1 36 00             11497 	ld	(hl),#0x00
                          11498 ;	genGoto
   23C3 C3 F7 23          11499 	jp	00111$
                          11500 ;	genLabel
   23C6                   11501 00107$:
                          11502 ;	src/ScriptRunner_b.c 1615
                          11503 ;	genCmpEq
                          11504 ; genCmpEq: left 1, right 1, result 0
   23C6 79                11505 	ld	a,c
   23C7 FE 02             11506 	cp	a,#0x02
   23C9 C2 DC 23          11507 	jp	nz,00104$
   23CC 18 03             11508 	jr	00123$
   23CE                   11509 00122$:
   23CE C3 DC 23          11510 	jp	00104$
   23D1                   11511 00123$:
                          11512 ;	src/ScriptRunner_b.c 1617
                          11513 ;	genAssign
                          11514 ;	AOP_HL for _tmp_text_out_speed
                          11515 ;	AOP_HL for _text_out_speed
   23D1 21 00 00          11516 	ld	hl,#_tmp_text_out_speed
   23D4 7E                11517 	ld	a,(hl)
   23D5 21 00 00          11518 	ld	hl,#_text_out_speed
   23D8 77                11519 	ld	(hl),a
                          11520 ;	genGoto
   23D9 C3 F7 23          11521 	jp	00111$
                          11522 ;	genLabel
   23DC                   11523 00104$:
                          11524 ;	src/ScriptRunner_b.c 1619
                          11525 ;	genCmpEq
                          11526 ; genCmpEq: left 1, right 1, result 0
   23DC 79                11527 	ld	a,c
   23DD FE 03             11528 	cp	a,#0x03
   23DF C2 F7 23          11529 	jp	nz,00111$
   23E2 18 03             11530 	jr	00125$
   23E4                   11531 00124$:
   23E4 C3 F7 23          11532 	jp	00111$
   23E7                   11533 00125$:
                          11534 ;	src/ScriptRunner_b.c 1621
                          11535 ;	genAssign
                          11536 ;	AOP_HL for _tmp_text_in_speed
                          11537 ;	AOP_HL for _text_in_speed
   23E7 21 00 00          11538 	ld	hl,#_tmp_text_in_speed
   23EA 7E                11539 	ld	a,(hl)
   23EB 21 00 00          11540 	ld	hl,#_text_in_speed
   23EE 77                11541 	ld	(hl),a
                          11542 ;	src/ScriptRunner_b.c 1622
                          11543 ;	genAssign
                          11544 ;	AOP_HL for _tmp_text_out_speed
                          11545 ;	AOP_HL for _text_out_speed
   23EF 21 00 00          11546 	ld	hl,#_tmp_text_out_speed
   23F2 7E                11547 	ld	a,(hl)
   23F3 21 00 00          11548 	ld	hl,#_text_out_speed
   23F6 77                11549 	ld	(hl),a
                          11550 ;	genLabel
   23F7                   11551 00111$:
                          11552 ;	src/ScriptRunner_b.c 1625
                          11553 ;	genPlus
                          11554 ;	AOP_HL for _script_cmd_args_len
                          11555 ;	genPlusIncr
   23F7 21 00 00          11556 	ld	hl,#_script_cmd_args_len
   23FA 4E                11557 	ld	c,(hl)
   23FB 0C                11558 	inc	c
                          11559 ;	genCast
                          11560 ; Removed redundent load
   23FC 06 00             11561 	ld	b,#0x00
                          11562 ;	genPlus
                          11563 ;	AOP_HL for _script_ptr
                          11564 ;	Can't optimise plus by inc, falling back to the normal way
   23FE 21 00 00          11565 	ld	hl,#_script_ptr
   2401 7E                11566 	ld	a,(hl)
   2402 81                11567 	add	a,c
   2403 22                11568 	ld	(hl+),a
   2404 7E                11569 	ld	a,(hl)
   2405 88                11570 	adc	a,b
   2406 77                11571 	ld	(hl),a
                          11572 ;	src/ScriptRunner_b.c 1626
                          11573 ;	genAssign
                          11574 ;	AOP_HL for _script_continue
   2407 21 00 00          11575 	ld	hl,#_script_continue
   240A 36 01             11576 	ld	(hl),#0x01
                          11577 ;	genLabel
   240C                   11578 00112$:
                          11579 ;	genEndFunction
                          11580 	
   240C C9                11581 	ret
   240D                   11582 ___Script_TextMulti_b_end:
                          11583 	.area _CODE_4
ASxxxx Assembler V01.75  (GameBoy Z80-like CPU), page 1.

Symbol Table

    _ClampUBYTE                        **** GX
    _FadeIn                            **** GX
    _FadeOut                           **** GX
    _FadeSetSpeed                      **** GX
    _MusicPlay                         **** GX
    _MusicStop                         **** GX
  1 _RAMPtr                            0001 GR
    _ReadBankedBankPtr                 **** GX
    _ReadBankedUBYTE                   **** GX
    _SceneRenderActor                  **** GX
    _SceneSetEmote                     **** GX
    _ScriptStart                       **** GX
  9 _Script_ActorActivate_b            03D6 GR
  9 _Script_ActorGetPos_b              1440 GR
  9 _Script_ActorHide_b                07F0 GR
  9 _Script_ActorInvoke_b              1E83 GR
  9 _Script_ActorMoveRel_b             15DF GR
  9 _Script_ActorMoveToVal_b           1570 GR
  9 _Script_ActorMoveTo_b              06F9 GR
  9 _Script_ActorPush_b                0DBC GR
  9 _Script_ActorSetAnimSpeed_b        1E1C GR
  9 _Script_ActorSetDir_b              031C GR
  9 _Script_ActorSetEmote_b            0824 GR
  9 _Script_ActorSetFlip_b             2346 GR
  9 _Script_ActorSetFrame_b            22D1 GR
  9 _Script_ActorSetMoveSpeed_b        1DE3 GR
  9 _Script_ActorSetPosRel_b           1709 GR
  9 _Script_ActorSetPosToVal_b         14DD GR
  9 _Script_ActorSetPos_b              0677 GR
  9 _Script_ActorShow_b                07BC GR
  9 _Script_AwaitInput_b               0977 GR
  9 _Script_CameraLock_b               0456 GR
  9 _Script_CameraMoveTo_b             03F4 GR
  9 _Script_CameraShake_b              084F GR
  9 _Script_Choice_b                   0BA9 GR
  9 _Script_ClearData_b                122C GR
  9 _Script_ClearFlag_b                02D2 GR
  9 _Script_CopyVal_b                  1C16 GR
  9 _Script_DecFlag_b                  0A95 GR
  9 _Script_End_b                      0011 GR
  9 _Script_FadeIn_b                   053E GR
  9 _Script_FadeOut_b                  0519 GR
  9 _Script_Goto_b                     0066 GR
  9 _Script_HideOverlay_b              08C5 GR
  9 _Script_HideSprites_b              078C GR
  9 _Script_IfActorDirection_b         12D8 GR
  9 _Script_IfActorPos_b               0F44 GR
  9 _Script_IfFlag_b                   00A6 GR
  9 _Script_IfInput_b                  0B48 GR
  9 _Script_IfSavedData_b              125C GR
  9 _Script_IfValueCompare_b           1C53 GR
  9 _Script_IfValue_b                  012B GR
  9 _Script_IncFlag_b                  0A37 GR
  9 _Script_LoadData_b                 10FB GR
  9 _Script_LoadScene_b                0563 GR
  9 _Script_LoadVectors_b              1D71 GR
  9 _Script_MathAddVal_b               1A93 GR
  9 _Script_MathAdd_b                  187A GR
  9 _Script_MathDivVal_b               1B70 GR
  9 _Script_MathDiv_b                  19B1 GR
  9 _Script_MathModVal_b               1BC3 GR
  9 _Script_MathMod_b                  1A22 GR
  9 _Script_MathMulVal_b               1B1B GR
  9 _Script_MathMul_b                  193E GR
  9 _Script_MathSubVal_b               1AD5 GR
  9 _Script_MathSub_b                  18DA GR
  9 _Script_MusicPlay_b                0995 GR
  9 _Script_MusicStop_b                09C6 GR
  9 _Script_NextFrame_b                0A21 GR
  9 _Script_Noop_b                     0000 GR
  9 _Script_OverlayMoveTo_b            0921 GR
  9 _Script_OverlaySetPos_b            08E4 GR
  9 _Script_PlayerSetSprite_b          0C2E GR
  9 _Script_RemoveInputScript_b        2274 GR
  9 _Script_ResetVariables_b           09E7 GR
  9 _Script_SaveData_b                 1013 GR
  9 _Script_ScenePopAllState_b         2105 GR
  9 _Script_ScenePopState_b            1FED GR
  9 _Script_ScenePushState_b           1F17 GR
  9 _Script_SceneResetStack_b          20EA GR
  9 _Script_SetFlagRandomValue_b       13B3 GR
  9 _Script_SetFlagValue_b             0AF1 GR
  9 _Script_SetFlag_b                  0288 GR
  9 _Script_SetInputScript_b           21C9 GR
  9 _Script_ShowOverlay_b              086D GR
  9 _Script_ShowSprites_b              075C GR
  9 _Script_StackPop_b                 1EF5 GR
  9 _Script_StackPush_b                1EA7 GR
  9 _Script_TextMulti_b                238D GR
  9 _Script_TextSetAnimSpeed_b         1E55 GR
  9 _Script_Text_b                     001F GR
  9 _Script_Wait_b                     04FB GR
    _SetBankedSpriteData               **** GX
    _UIMoveTo                          **** GX
    _UISetColor                        **** GX
    _UISetPos                          **** GX
    _UIShowChoice                      **** GX
    _UIShowText                        **** GX
  9 ___Script_ActorActivate_b_end      03F4 R
  9 ___Script_ActorActivate_b_start    03D6 R
  9 ___Script_ActorGetPos_b_end        14DD R
  9 ___Script_ActorGetPos_b_start      1440 R
  9 ___Script_ActorHide_b_end          0824 R
  9 ___Script_ActorHide_b_start        07F0 R
  9 ___Script_ActorInvoke_b_end        1EA7 R
  9 ___Script_ActorInvoke_b_start      1E83 R
  9 ___Script_ActorMoveRel_b_end       1709 R
  9 ___Script_ActorMoveRel_b_start     15DF R
  9 ___Script_ActorMoveToVal_b_end     15DF R
  9 ___Script_ActorMoveToVal_b_start   1570 R
  9 ___Script_ActorMoveTo_b_end        075C R
  9 ___Script_ActorMoveTo_b_start      06F9 R
  9 ___Script_ActorPush_b_end          0F44 R
  9 ___Script_ActorPush_b_start        0DBC R
  9 ___Script_ActorSetAnimSpeed_b_en   1E55 R
  9 ___Script_ActorSetAnimSpeed_b_st   1E1C R
  9 ___Script_ActorSetDir_b_end        03D6 R
  9 ___Script_ActorSetDir_b_start      031C R
  9 ___Script_ActorSetEmote_b_end      084F R
  9 ___Script_ActorSetEmote_b_start    0824 R
  9 ___Script_ActorSetFlip_b_end       238D R
  9 ___Script_ActorSetFlip_b_start     2346 R
  9 ___Script_ActorSetFrame_b_end      2346 R
  9 ___Script_ActorSetFrame_b_start    22D1 R
  9 ___Script_ActorSetMoveSpeed_b_en   1E1C R
  9 ___Script_ActorSetMoveSpeed_b_st   1DE3 R
  9 ___Script_ActorSetPosRel_b_end     187A R
  9 ___Script_ActorSetPosRel_b_start   1709 R
  9 ___Script_ActorSetPosToVal_b_end   1570 R
  9 ___Script_ActorSetPosToVal_b_sta   14DD R
  9 ___Script_ActorSetPos_b_end        06F9 R
  9 ___Script_ActorSetPos_b_start      0677 R
  9 ___Script_ActorShow_b_end          07F0 R
  9 ___Script_ActorShow_b_start        07BC R
  9 ___Script_AwaitInput_b_end         0995 R
  9 ___Script_AwaitInput_b_start       0977 R
  9 ___Script_CameraLock_b_end         04FB R
  9 ___Script_CameraLock_b_start       0456 R
  9 ___Script_CameraMoveTo_b_end       0456 R
  9 ___Script_CameraMoveTo_b_start     03F4 R
  9 ___Script_CameraShake_b_end        086D R
  9 ___Script_CameraShake_b_start      084F R
  9 ___Script_Choice_b_end             0C2E R
  9 ___Script_Choice_b_start           0BA9 R
  9 ___Script_ClearData_b_end          125C R
  9 ___Script_ClearData_b_start        122C R
  9 ___Script_ClearFlag_b_end          031C R
  9 ___Script_ClearFlag_b_start        02D2 R
  9 ___Script_CopyVal_b_end            1C53 R
  9 ___Script_CopyVal_b_start          1C16 R
  9 ___Script_DecFlag_b_end            0AF1 R
  9 ___Script_DecFlag_b_start          0A95 R
  9 ___Script_End_b_end                001F R
  9 ___Script_End_b_start              0011 R
  9 ___Script_FadeIn_b_end             0563 R
  9 ___Script_FadeIn_b_start           053E R
  9 ___Script_FadeOut_b_end            053E R
  9 ___Script_FadeOut_b_start          0519 R
  9 ___Script_Goto_b_end               00A6 R
  9 ___Script_Goto_b_start             0066 R
  9 ___Script_HideOverlay_b_end        08E4 R
  9 ___Script_HideOverlay_b_start      08C5 R
  9 ___Script_HideSprites_b_end        07BC R
  9 ___Script_HideSprites_b_start      078C R
  9 ___Script_IfActorDirection_b_end   13B3 R
  9 ___Script_IfActorDirection_b_sta   12D8 R
  9 ___Script_IfActorPos_b_end         1013 R
  9 ___Script_IfActorPos_b_start       0F44 R
  9 ___Script_IfFlag_b_end             012B R
  9 ___Script_IfFlag_b_start           00A6 R
  9 ___Script_IfInput_b_end            0BA9 R
  9 ___Script_IfInput_b_start          0B48 R
  9 ___Script_IfSavedData_b_end        12D8 R
  9 ___Script_IfSavedData_b_start      125C R
  9 ___Script_IfValueCompare_b_end     1D71 R
  9 ___Script_IfValueCompare_b_start   1C53 R
  9 ___Script_IfValue_b_end            0288 R
  9 ___Script_IfValue_b_start          012B R
  9 ___Script_IncFlag_b_end            0A95 R
  9 ___Script_IncFlag_b_start          0A37 R
  9 ___Script_LoadData_b_end           122C R
  9 ___Script_LoadData_b_start         10FB R
  9 ___Script_LoadScene_b_end          0677 R
  9 ___Script_LoadScene_b_start        0563 R
  9 ___Script_LoadVectors_b_end        1DE3 R
  9 ___Script_LoadVectors_b_start      1D71 R
  9 ___Script_MathAddVal_b_end         1AD5 R
  9 ___Script_MathAddVal_b_start       1A93 R
  9 ___Script_MathAdd_b_end            18DA R
  9 ___Script_MathAdd_b_start          187A R
  9 ___Script_MathDivVal_b_end         1BC3 R
  9 ___Script_MathDivVal_b_start       1B70 R
  9 ___Script_MathDiv_b_end            1A22 R
  9 ___Script_MathDiv_b_start          19B1 R
  9 ___Script_MathModVal_b_end         1C16 R
  9 ___Script_MathModVal_b_start       1BC3 R
  9 ___Script_MathMod_b_end            1A93 R
  9 ___Script_MathMod_b_start          1A22 R
  9 ___Script_MathMulVal_b_end         1B70 R
  9 ___Script_MathMulVal_b_start       1B1B R
  9 ___Script_MathMul_b_end            19B1 R
  9 ___Script_MathMul_b_start          193E R
  9 ___Script_MathSubVal_b_end         1B1B R
  9 ___Script_MathSubVal_b_start       1AD5 R
  9 ___Script_MathSub_b_end            193E R
  9 ___Script_MathSub_b_start          18DA R
  9 ___Script_MusicPlay_b_end          09C6 R
  9 ___Script_MusicPlay_b_start        0995 R
  9 ___Script_MusicStop_b_end          09E7 R
  9 ___Script_MusicStop_b_start        09C6 R
  9 ___Script_NextFrame_b_end          0A37 R
  9 ___Script_NextFrame_b_start        0A21 R
  9 ___Script_Noop_b_end               0011 R
  9 ___Script_Noop_b_start             0000 R
  9 ___Script_OverlayMoveTo_b_end      0977 R
  9 ___Script_OverlayMoveTo_b_start    0921 R
  9 ___Script_OverlaySetPos_b_end      0921 R
  9 ___Script_OverlaySetPos_b_start    08E4 R
  9 ___Script_PlayerSetSprite_b_end    0DBC R
  9 ___Script_PlayerSetSprite_b_star   0C2E R
  9 ___Script_RemoveInputScript_b_en   22D1 R
  9 ___Script_RemoveInputScript_b_st   2274 R
  9 ___Script_ResetVariables_b_end     0A21 R
  9 ___Script_ResetVariables_b_start   09E7 R
  9 ___Script_SaveData_b_end           10FB R
  9 ___Script_SaveData_b_start         1013 R
  9 ___Script_ScenePopAllState_b_end   21C9 R
  9 ___Script_ScenePopAllState_b_sta   2105 R
  9 ___Script_ScenePopState_b_end      20EA R
  9 ___Script_ScenePopState_b_start    1FED R
  9 ___Script_ScenePushState_b_end     1FED R
  9 ___Script_ScenePushState_b_start   1F17 R
  9 ___Script_SceneResetStack_b_end    2105 R
  9 ___Script_SceneResetStack_b_star   20EA R
  9 ___Script_SetFlagRandomValue_b_e   1440 R
  9 ___Script_SetFlagRandomValue_b_s   13B3 R
  9 ___Script_SetFlagValue_b_end       0B48 R
  9 ___Script_SetFlagValue_b_start     0AF1 R
  9 ___Script_SetFlag_b_end            02D2 R
  9 ___Script_SetFlag_b_start          0288 R
  9 ___Script_SetInputScript_b_end     2274 R
  9 ___Script_SetInputScript_b_start   21C9 R
  9 ___Script_ShowOverlay_b_end        08C5 R
  9 ___Script_ShowOverlay_b_start      086D R
  9 ___Script_ShowSprites_b_end        078C R
  9 ___Script_ShowSprites_b_start      075C R
  9 ___Script_StackPop_b_end           1F17 R
  9 ___Script_StackPop_b_start         1EF5 R
  9 ___Script_StackPush_b_end          1EF5 R
  9 ___Script_StackPush_b_start        1EA7 R
  9 ___Script_TextMulti_b_end          240D R
  9 ___Script_TextMulti_b_start        238D R
  9 ___Script_TextSetAnimSpeed_b_end   1E83 R
  9 ___Script_TextSetAnimSpeed_b_sta   1E55 R
  9 ___Script_Text_b_end               0066 R
  9 ___Script_Text_b_start             001F R
  9 ___Script_Wait_b_end               0519 R
  9 ___Script_Wait_b_start             04FB R
    __divuchar_rrx_s                   **** GX
    __moduchar_rrx_s                   **** GX
    __muluchar_rrx_s                   **** GX
    _actor_move_dest                   **** GX
    _actor_move_settings               **** GX
    _actors                            **** GX
    _await_input                       **** GX
    _bank_data_ptrs                    **** GX
    _camera_dest                       **** GX
    _camera_settings                   **** GX
    _camera_speed                      **** GX
    _input_script_ptrs                 **** GX
    _joy                               **** GX
    _map_next_dir                      **** GX
    _map_next_pos                      **** GX
    _map_next_sprite                   **** GX
    _rand                              **** GX
    _scene_height                      **** GX
    _scene_index                       **** GX
    _scene_next_index                  **** GX
    _scene_stack                       **** GX
    _scene_stack_ptr                   **** GX
    _scene_width                       **** GX
    _script_action_complete            **** GX
    _script_actor                      **** GX
    _script_cmd_args                   **** GX
    _script_cmd_args_len               **** GX
    _script_continue                   **** GX
    _script_ptr                        **** GX
    _script_ptr_bank                   **** GX
    _script_ptr_x                      **** GX
    _script_ptr_y                      **** GX
    _script_stack                      **** GX
    _script_stack_ptr                  **** GX
    _script_start_ptr                  **** GX
    _script_variables                  **** GX
  1 _scriptrunner_bank                 0000 GR
    _shake_time                        **** GX
    _sprite_bank_ptrs                  **** GX
    _stage_next_type                   **** GX
    _text_draw_speed                   **** GX
    _text_in_speed                     **** GX
    _text_out_speed                    **** GX
    _tmp_text_in_speed                 **** GX
    _tmp_text_out_speed                **** GX
    _wait_time                         **** GX

ASxxxx Assembler V01.75  (GameBoy Z80-like CPU), page 2.

Area Table

   0 _CODE                              size    0   flags 0
   1 _DATA                              size    3   flags 0
   2 _OVERLAY                           size    0   flags 0
   3 _ISEG                              size    0   flags 0
   4 _BSEG                              size    0   flags 0
   5 _XSEG                              size    0   flags 0
   6 _GSINIT                            size    5   flags 0
   7 _GSFINAL                           size    0   flags 0
   8 _HOME                              size    0   flags 0
   9 _CODE_4                            size 240D   flags 0
